Dc:_glClearStencil
The:_Array_InternalArray__ICollection_Add_TisMark_t2724874473_m1613484179_gshared
_Ig:__ZL80Graphic_t2426225576_CustomAttributesCacheGenerator_Graphic_OnFillVBO_m1723985607P21CustomAttributesCache
Huj:__ZN6il2cpp2vm5Array13GetByteLengthEP11Il2CppArray
uth:_Raycast3DCallback_BeginInvoke_m3028685017
_1g:__Z79RuntimeInvoker_RuntimeObject_Int64_t909078037_Int64_t909078037_Int64_t909078037PFvvEPK10MethodInfoPvPS4_
aRi:_TextGenerator_Invalidate_m1993568841
mnf:_Comparison_1_Invoke_m353639462_gshared
sIa:__Z30GetIntermediateRendererManagerv
GCd:_GraphicRegistry_RegisterGraphicForCanvas_m2284226562
Yia:__Z21SourceMipLevelForBlitiiii
_Ma:__ZN31CanvasBatchIntermediateRenderer15AddAsRenderNodeER15RenderNodeQueueRK20DeprecatedSourceData
$Wd:_Enumerator_get_Key_m2908810861
Yzi:_GUI_DoSetSkin_m2532620610
$r:__ZN11UnityEngine9Animation28GenericAnimationBindingCacheD2Ev
_Nh:_EqualityComparer_1__cctor_m968537130_gshared
cXe:_List_1_System_Collections_IList_IndexOf_m39706221_gshared
gIh:_Dictionary_2_Remove_m1849931834_gshared
RZd:_Decimal_op_Implicit_m2971610317
jBi:_GUILayoutGroup_ResetCursor_m3614985691
cAd:_Graphic_UnregisterDirtyVerticesCallback_m1526739224
_Vb:__Z18RestoreRenderStateR20CameraRenderOldStateR17ShaderPassContext
JSd:_SynchronizedArrayListWrapper_get_Item_m3309425850
Gwb:__Z18Transfer_BlittableI18StreamedBinaryReadILb1EELb1E5RectTIfEEvRK29SerializationCommandArgumentsR31RuntimeSerializationCommandInfo
Jii:_UnityEventBase_RebuildPersistentCallsIfNeeded_m2776978024
ysb:__Z18Transfer_BlittableI24GenerateTypeTreeTransferLb0E11ColorRGBA32EvRK29SerializationCommandArgumentsR31RuntimeSerializationCommandInfo
X0:__Z25scripting_class_from_name17ScriptingImagePtrPKcS1_
Ghj:__ZN14dense_hash_mapI10KeyWrapperINSt3__24pairIPK12PropertyInfoP11Il2CppClassEEEj17ReflectionMapHashIS8_ENS9_14EqualsComparerINS1_8equal_toIS8_EEEENS1_9allocatorINS2_IKS9_jEEEEE15set_deleted_keyERSH_
KCb:__Z29scripting_class_enum_basetype17ScriptingClassPtr
vdh:__Z111RuntimeInvoker_Void_t1841601450_Vector4_t2243707581_Vector4_t2243707581_Vector4_t2243707581_Vector4_t2243707581PFvvEPK10MethodInfoPvPS4_
XCc:__ZN16PhysicsManager2D7RaycastERK3RayfiR12RaycastHit2D
VTg:_GenericTypeParameterBuilder_GetHashCode_m867619899
g1f:_TimeSpan_ToString_m2947282901
wNh:_EqualityComparer_1__cctor_m3397254040_gshared
$jb:__ZNK20LocalFileSystemPosix6ParentERK13FileEntryDataRN4core12basic_stringIcNS3_20StringStorageDefaultIcEEEE
gne:_Array_Sort_TisVector2_t2243707579_m1307634946_gshared
Bga:__ZN7ApiGLES17CopyBufferSubDataEjjlll
_4f:_UInt64_System_IConvertible_ToDecimal_m4205696037
Znc:__ZN5Unity9rapidjson15GenericDocumentINS0_4UTF8IcEE13JSONAllocatorS4_E11ParseStreamILj1ES3_NS0_25GenericInsituStringStreamIS3_EEEERS5_RT1_
PRi:_U3CCreateWhereIteratorU3Ec__Iterator1D_1_Reset_m1773515612_gshared
_Nb:__ZN25CameraStackRenderingState20GetOrCreateBuiltinRTE24BuiltinRenderTextureTypeii17DepthBufferFormat19RenderTextureFormatj22RenderTextureReadWrite14VRTextureUsagei
FHi:_AesManaged_CreateEncryptor_m1729287824
D$a:__ZNK14Texture2DArray26CanReuploadDataToGfxDeviceEv
tSb:__ZN17PrePassRenderLoop14RenderBasePassEP13RenderTextureRK14LightingLayersR13dynamic_arrayI16RenderObjectDataLj4EERbR10MinMaxAABB
OPd:_Char_System_IConvertible_ToInt16_m2741348777_AdjustorThunk
Nlc:__ZN5IMGUI18RepaintModalWindowER8GUIState
Igf:_ReadOnlyCollection_1_System_Collections_Generic_IListU3CTU3E_set_Item_m1547026160_gshared
iHa:__ZNK15dense_hashtableINSt3__24pairIKN9ShaderLab7Program23ShaderKeywordSetAndHashEPKNS2_10SubProgramEEES4_NS3_24ShaderKeywordHashFunctorEN14dense_hash_mapIS4_S8_SA_NS0_8equal_toIS4_EE13stl_allocatorIS9_L18MemLabelIdentifier67ELi16EEE9SelectKeyESD_SG_E23find_position_with_hashERS5_j
Iag:__ZL61MarshalAsAttribute_t2900773360_CustomAttributesCacheGeneratorP21CustomAttributesCache
k_a:__Z23SetSpriteMeshIndexCountP14SharedMeshDataj
ROa:__ZN7Texture13SetFilterModeEi
Pcc:__Z46Register_UnityEngine_Application_get_isPlayingv
Gwj:__ZN6il2cpp8metadata13GenericMethod9GetMethodEPK19Il2CppGenericMethod
uq:__ZNSt3__26vectorIN4core12basic_stringIcNS1_20StringStorageDefaultIcEEEENS_9allocatorIS5_EEE7reserveEj
k0d:_Convert_ToUInt16_m2130758075
Odj:__ZN15dense_hashtableINSt3__24pairIK10KeyWrapperINS1_IPK11Il2CppImageP11Il2CppClassEEEjEES9_17ReflectionMapHashIS8_EN14dense_hash_mapIS9_jSD_NS9_14EqualsComparerINS0_8equal_toIS8_EEEENS0_9allocatorISB_EEE9SelectKeyESI_SK_E3endEv
jGf:_X509BasicConstraintsExtension_Encode_m3505127076
Kaa:__ZN13GfxDeviceGLES11SetViewportERK5RectTIiE
aFd:_Image_get_pixelsPerUnit_m4104195799
Szh:_Toggle_InternalToggle_m2323729210
w4d:_Decimal_System_IConvertible_ToInt64_m2504363272
WKd:_Array_GetValue_m3182152438
Ud:_emscripten_glDepthRange
AVf:_DESTransform_CipherFunct_m3559419566
Dfd:_Rijndael_Create_m113171669
hYb:__ZNSt3__26vectorINS_4pairIN4core12basic_stringIcNS2_20StringStorageDefaultIcEEEES6_EE13stl_allocatorIS7_L18MemLabelIdentifier38ELi16EEE12__move_rangeEPS7_SC_SC_
_cb:__Z14resize_trimmedINSt3__26vectorIN9ShaderLab20SerializedSubProgram12UAVParameterENS0_9allocatorIS4_EEEEEvRT_j
roc:__ZN5Unity9rapidjson13GenericReaderINS0_4UTF8IcEES3_13JSONAllocatorE11ParseObjectILj1ENS0_25GenericInsituStringStreamIS3_EENS0_15GenericDocumentIS3_S4_S4_EEEEvRT0_RT1_
QQf:_SerializationInfo_AddValue_m1781549036
kuf:_TlsServerKeyExchange_verifySignature_m3641534563
b3:__ZNSt3__218__insertion_sort_3IRNS_6__lessI14ObjectLoadDataS2_EEPS2_EEvT0_S6_T_
eyh:_Slider_FindSelectableOnLeft_m3136767885
wia:__ZN4crndL20crnd_default_reallocEPvjPjbS0_
Oee:_Array_BinarySearch_TisInt32_t2071877448_m51233948_gshared
uKj:__ZNSt3__212basic_stringIcNS_11char_traitsIcEENS_9allocatorIcEEEC2ERKS5_
lPf:_ProviderData_CopyFrom_m431414335
a$a:__ZN18SpriteAtlasManager19AddRequestingSpriteE4PPtrI6SpriteE
WYf:_UTF32Encoding_GetPreamble_m767706727
dic:__Z33Texture_CUSTOM_Internal_GetHeightP12Il2CppObject
rJd:_LayoutGroup_get_preferredHeight_m3901163825
cVb:__ZN23ScriptableRenderContextC2Ev
uZd:_DateTime_AbsoluteDays_m3061694073
TXc:_UNITY_FT_Stream_GetChar
fxb:__Z18Transfer_BlittableI18StreamedBinaryReadILb1EELb1EdEvRK29SerializationCommandArgumentsR31RuntimeSerializationCommandInfo
iCh:_Enumerator_System_Collections_IEnumerator_get_Current_m229223308_gshared
TCb:__Z26BuildSerializationCacheFor17ScriptingClassPtrRb
Coa:__ZN7ApiGLES15BlitFramebufferEN2gl6HandleILNS0_10ObjectTypeE9EEENS0_15FramebufferReadES3_S3_iiiiiiiiNS0_15FramebufferTypeE
Ali:_Mesh_CheckCanAccessSubmeshTriangles_m2644388378
cbh:__Z112RuntimeInvoker_RuntimeObject_RuntimeObject_RuntimeObject_RuntimeObject_RuntimeObject_RuntimeObject_RuntimeObjectPFvvEPK10MethodInfoPvPS4_
xxi:_UnitySynchronizationContext__ctor_m1804960286
sSd:_FixedSizeArrayListWrapper_AddRange_m2071800418
ZD:__ZN13ProduceHelperI8AnimatorLb0EE7ProduceE18MemLabelIdentifier18ObjectCreationMode
kEb:__Z9InitInputv
G7g:__Z85RuntimeInvoker_Boolean_t3825574718_Int64_t909078037_Int64_t909078037_SByte_t454417549PFvvEPK10MethodInfoPvPS4_
RVe:_Enumerator_VerifyState_m2358705882_AdjustorThunk
wtb:__Z29Transfer_Blittable_ArrayFieldI24GenerateTypeTreeTransfer11ColorRGBA32EvRT_R9ArrayInfoRK23StaticTransferFieldInfo
elb:__ZN16MemoryFileSystem6DeleteER13FileEntryDatab
oja:__ZL21BlitScaleStbImageImplRK14ImageReferenceRS_NS_10ColorSpaceE
Rti:_RectTransform_INTERNAL_set_pivot_m4248720081
RAf:_TlsStream_set_Position_m378064217
PFc:__ZNSt3__26__sortIR31RayHitsByInverseDepthComparitorP12RaycastHit2DEEvT0_S5_T_
qob:__Z29Transfer_Blittable_ArrayFieldI14SafeBinaryReadyEvRT_R9ArrayInfoRK23StaticTransferFieldInfo
VL:__ZN20SoundChannelInstance15setChannelGroupEPN4FMOD12ChannelGroupE
Jkd:_Evidence_Equals_m2325859915
Jqi:_PlayableHandle_INTERNAL_CALL_GetPlayableTypeOf_m1683061051
ePg:_Default__ctor_m172834064
rc:invoke_vifffii
jmj:__ZN6il2cpp2vm9Exception27RaiseNullReferenceExceptionEv
hai:_Regex_IsMatch_m2159202025
qBa:__ZNK25MultiBlocksMemoryFileData5CloneEv
iCj:_GC_add_ext_descriptor
wMf:_RemotingServices_GetMethodBaseFromName_m3271095947
wMj:dynCall_iiiiiiiiiiii
Lpd:_ASCIIEncoding_GetBytes_m3617160053
otf:_CipherSuiteCollection_System_Collections_IList_RemoveAt_m143866082
Ihb:__ZL26KeywordSetToStringDontSortRKNSt3__26vectorIN4core12basic_stringIcNS1_20StringStorageDefaultIcEEEENS_9allocatorIS5_EEEERS5_
b5c:__Z54Register_UnityEngine_Analytics_CustomEventData_AddCharv
gla:__ZN6prcoreL17RemapGenericFloatI16TexFormatRGFloat17TexFormatRGBAHalfEEvPKNS_9InnerInfoE
qG:__ZN12AudioManager22CreateFMODSoundFromWWWEP10IWWWStream15FMOD_SOUND_TYPE17FMOD_SOUND_FORMATjjbbP10SampleClip
o4b:__ZNK32RendererMaterialAnimationBinding15GenerateBindingERKN4core12basic_stringIcNS0_20StringStorageDefaultIcEEEEbRN11UnityEngine9Animation14GenericBindingE
k0:__ZN8Remapper23GetOrGenerateInstanceIDERK26SerializedObjectIdentifier
dOe:_StreamWriter_Flush_m3426120024
_a:invoke_iiiiiifffiiifii
JLe:_MemoryStream__ctor_m1489366847
bld:_SecurityElement_IsValidTag_m64902195
j_g:_PropertyInfo_SetValue_m2961483868
M$e:_List_1_System_Collections_IList_Contains_m4193366963_gshared
CPg:_ConstructorInfo_Invoke_m2144827141
x_a:__ZN6Sprite8TransferI24GenerateTypeTreeTransferEEvRT_
jjc:__Z48Register_UnityEngine_Transform_SetAsFirstSiblingv
A_a:__ZN7SubMesh8TransferI24GenerateTypeTreeTransferEEvRT_
nZg:_MonoProperty_get_CanWrite_m2124922514
J5i:__ZN6il2cpp6icalls8mscorlib6SystemL16CheckMemberMatchI9FieldInfoNS_5utils10functional6FilterINSt3__212basic_stringIcNS8_11char_traitsIcEENS8_9allocatorIcEEEENS5_13VmStringUtils23CaseInsensitiveComparerEEEEEbPKT_PK11Il2CppClassSN_iRKT0_
vJj:_poll
vLe:_Stream_BeginRead_m1985960185
h2b:__ZN13ProduceHelperI14Texture2DArrayLb0EE7ProduceE18MemLabelIdentifier18ObjectCreationMode
Eqf:_MD4Managed_GG_m1462438360
Ogc:__Z53PlayableHandle_CUSTOM_INTERNAL_CALL_GetPlayableTypeOfR9HPlayable
Dac:__ZN9Transform23SetSiblingIndexInternalEib
pse:_SimpleCollator_LastIndexOfOrdinal_m45234497
lJe:_BinaryReader_CheckBuffer_m1059275266
COj:dynCall_iiiifiii
Zaa:__ZN13GfxDeviceGLES17DestroySubProgramEPN9ShaderLab10SubProgramE
Zt:__ZN7mecanim5human12HumanPoseSubERNS0_9HumanPoseERKS1_S4_
tyi:_Vector3_Max_m2076081170
qqf:_MD4_Create_m2582504069
Iqj:__ZN6il2cpp8metadata15GenericMetadata15GetGenericClassEiPK17Il2CppGenericInst
zNd:_Boolean_System_IConvertible_ToInt16_m977801621
Rmb:__Z18Transfer_BlittableI14SafeBinaryReadLb0E10Matrix4x4fEvRK29SerializationCommandArgumentsR31RuntimeSerializationCommandInfo
jCb:__Z24GetFixedBehaviourManagerv
lLb:__ZN12FlareManager9UpdateJobEP25FlareManagerUpdateJobData
m5i:__ZN6il2cpp2vm10ThreadPool4WaitEP17Il2CppAsyncResultPPv
Rmi:_Plane__ctor_m730644932_AdjustorThunk
EHc:__ZN11Rigidbody2D8TransferI14SafeBinaryReadEEvRT_
GHj:_vfprintf
kmc:__ZN10GUIManager12AddGUIScriptER8ListNodeI13MonoBehaviourE
rMa:__ZN19ShaderPropertySheet20ReservePropertyCountEj
VLb:__ZN20DynamicPropertySheetD0Ev
mYb:__ZN14SafeBinaryRead17RegisterConverterEPKcS1_PFbPvRS_E
SX:__ZN35RegisterRuntimeInitializeAndCleanup8RegisterEPFvPvES2_iS0_
kjj:__ZNSt3__26vectorIN6il2cpp8metadata18GenericArrayMethodENS_9allocatorIS3_EEE7reserveEj
Nlf:_ReadOnlyCollection_1_System_Collections_IList_Clear_m2600246370_gshared
Hve:_DSAManaged_NormalizeArray_m2287089393
ojc:__Z21Object_CUSTOM_DestroyP12Il2CppObjectf
MZh:_InternalEnumerator_1_System_Collections_IEnumerator_get_Current_m2389982234_AdjustorThunk
mhb:__ZN8Material26ResetAllCachedMaterialDataEP6Shader
bYc:_UNITY_TT_Get_MM_Var
RUi:__ZN6il2cpp6icalls8mscorlib6System7Decimal13decimal2Int64EP19il2cpp_decimal_reprPx
ba:invoke_diddi
gtd:_ExecuteEvents__cctor_m288775360
g_c:__ZNK2UI6Canvas13GetRenderModeEv
G_d:_Double_TryParseStringConstant_m2585405703
bmb:__Z18Transfer_BlittableI14SafeBinaryReadLb0EiEvRK29SerializationCommandArgumentsR31RuntimeSerializationCommandInfo
_3i:__ZN6il2cpp2vm13MetadataCache30GetPropertyDefinitionFromIndexEi
u1h:_ResourceEnumerator__ctor_m1679839941
Ofd:_RijndaelTransform_Clear_m1652144089
$Je:_MonoIO_GetException_m2577367044
D8c:__ZN22BaseUnityConnectClient17InitializeSessionERKN4core12basic_stringIcNS0_20StringStorageDefaultIcEEEES6_N19CloudServiceHandler13InitModeFlagsE
MEh:_Enumerator_MoveNext_m1404007384_gshared
MSe:_NumberFormatter_get_IsZero_m1325357749
xli:_Mesh_PrintErrorCantAccessIndices_m2990602703
zSj:_emscripten_glDeleteBuffers__wrapper
Zfh:__Z121RuntimeInvoker_Void_t1841601450_Single_t2076509932_Single_t2076509932_Single_t2076509932_Single_t2076509932_RuntimeObjectPFvvEPK10MethodInfoPvPS4_
W7d:_Enum_ToObject_m322320225
ncc:__ZN13MonoBehaviour34StopCoroutineFromEnumeratorManagedE18ScriptingObjectPtr
pjd:_X509Certificate__ctor_m3860837120
Cih:__Z109RuntimeInvoker_RuntimeObject_Ray_t2469606224_Single_t2076509932_Int32_t2071877448_RuntimeObject_RuntimeObjectPFvvEPK10MethodInfoPvPS4_
Ilf:_ReadOnlyCollection_1_System_Collections_Generic_IListU3CTU3E_set_Item_m3663361643_gshared
kE:__ZN7mecanim9animation14AvatarConstant15InitializeClassEv
Ivc:__ZN11UnityEngine9Analytics18SceneLoadTimeEvent12SetSceneLoadERKN4core12basic_stringIcNS2_20StringStorageDefaultIcEEEEiyyyy
w8a:__ZN30RuntimeInitializeOnLoadManager8TransferI18StreamedBinaryReadILb0EEEEvRT_
dSg:_TypeBuilder_not_supported_m3178173643
tQc:_UNITY_tt_face_load_pclt
Ibc:__ZL34GetComponentsImplementationRecurseILb1ELi0ELi2EEbR10GameObjectbRK17CompareParametersRK39GetComponentsImplementation_ReturnValue
HAc:__ZN10ClipperLib7Clipper24InsertLocalMinimaIntoAELEx
PEj:__ZN6il2cpp6icalls8mscorlib6System9Threading5Mutex20CreateMutex_internalEbP12Il2CppStringPb
$Rd:_ArrayListWrapper_Remove_m1105489978
pLb:__ZNK6Camera18WorldToScreenPointERK8Vector3fPb
BBi:_GUISkin__ctor_m2824039590
E3c:__ZN14UnityAnalyticsD0Ev
RVd:_HashKeys_CopyTo_m3566668422
Yna:__Z18IsCompressedFormat14GraphicsFormat
WPd:_Convert_ToSByte_m2665932200
w$:__ZNSt3__227__insertion_sort_incompleteIRPFbRKN18AwakeFromLoadQueue4ItemES4_EPS2_EEbT0_S9_T_
_Qg:_ILGenerator_label_fixup_m1325994348
c2i:__ZN14dense_hash_mapI10KeyWrapperIN6il2cpp5utils13dynamic_arrayIPK10Il2CppTypeLj4EEEEPFvvENS1_8metadata19Il2CppSignatureHashENS8_14EqualsComparerINSB_22Il2CppSignatureCompareEEENSt3__29allocatorINSG_4pairIKS8_SA_EEEEE15set_deleted_keyERSJ_
qsh:_Navigation_Equals_m4214630671_AdjustorThunk
Uif:_ReadOnlyCollection_1_System_Collections_Generic_IListU3CTU3E_set_Item_m257196015_gshared
JWg:_FieldInfo_GetPseudoCustomAttributes_m2500972355
DWa:__ZN26EnlightenSystemInformation8TransferI14SafeBinaryReadEEvRT_
kpe:_Array_InternalArray__get_Item_TisLink_t2723257478_m2281261655_gshared
_9c:__ZN11UnityEngine15PlatformWrapper20SetPlayerPrefsUInt64ERKN4core12basic_stringIcNS1_20StringStorageDefaultIcEEEEy
u2a:__ZN12MeshRendererD0Ev
oP:__ZN12AudioManager35GetCurrentSpatializerDefinitionNameEv
TUd:_Hashtable__ctor_m2702360557
Dh:_utime
Syi:_Vector4_get_sqrMagnitude_m641641704_AdjustorThunk
zB:__Z28SetExposedSkeletonTransformsRKN7mecanim9animation14AvatarConstantERKN11UnityEngine9Animation30AnimatorGenericBindingConstantERKNS_8skeleton13SkeletonPoseTIN4math4trsXEEERKNSA_INSB_7affineXEEERNS5_21AvatarBindingConstantEy
ede:_PlayableHandle_IsPlayableOfType_TisAnimationLayerMixerPlayable_t3057952312_m2522157783_AdjustorThunk
cpf:_PrimalityTest_Invoke_m4058801829
vn:FUNCTION_TABLE_viiiiif
VPf:_RemotingConfiguration_SetCustomErrorsMode_m1844153208
An:FUNCTION_TABLE_viiiiii
pae:_CultureInfo_GetFormat_m3560116485
YC:__ZN7mecanim9animation22DestroyAvatarWorkspaceEPNS0_15AvatarWorkspaceERNS_6memory9AllocatorE
Jai:_AnchorInfo_get_IsPosition_m3791659233
zSb:__ZN15LightmapSTCacheC2ER13BatchRendererR15RenderLoopStats
Ilc:__ZNSt3__210__list_impIN10GUIManager12SortedScriptE11memory_poolIS2_EE5clearEv
jTa:__ZN14PlayableOutput17SetSourcePlayableEP8Playable
o8a:__ZNSt3__26vectorIN4core12basic_stringIcNS1_20StringStorageDefaultIcEEEE13stl_allocatorIS5_L18MemLabelIdentifier13ELi16EEE8__appendEj
kQf:_TrackingServices__cctor_m3639412334
oC:__ZN7mecanim9animation29MotionOutputGetDeltaTransformEPKNS0_12MotionOutputE
e0b:__Z13RegisterClassI16GraphicsSettingsEvv
Hvc:__ZN27PerformanceReportingManager21OnSceneTimingCallbackERK15SceneLoadTimingRKN4core12basic_stringIcNS3_20StringStorageDefaultIcEEEE
HE:__ZN8Animator14OnAddComponentEPN5Unity9ComponentE
R5e:_List_1_CheckMatch_m1184924052_gshared
Hic:__Z43Transform_CUSTOM_INTERNAL_get_localRotationP12Il2CppObjectP11Quaternionf
GQj:_glGetShaderInfoLog__wrapper
gi:_emscripten_glGetTexParameteriv
OGj:__ZN6il2cpp8metadata21Il2CppGenericInstHash4HashEPK17Il2CppGenericInst
zrf:_RSAManaged_ImportParameters_m3060955884
W3h:_ChannelData_CopyFrom_m4049054607
l0b:__Z13RegisterClassI4MeshEvv
ISa:__ZN8PlayableD0Ev
TH:__ZN12AudioManager8TransferI19StreamedBinaryWriteILb0EEEEvRT_
aMe:_WriteDelegate_Invoke_m2103848735
UGi:_Locale_GetText_m512920887
DPf:_RemotingConfiguration_get_ProcessId_m3870172209
sCc:__ZN16CircleCollider2D10SmartResetEv
_Ce:_SortKey_ToString_m2406913228
Jjb:__ZN22LocalFileSystemHandler9MakeLocalER13FileEntryDatab
nyj:__ZN6il2cpp2vm8Profiler10AllocationEP12Il2CppObjectP11Il2CppClass
MZd:_Convert_ToDateTime_m1020507389
VNc:__ZNSt3__23mapIN20TextRenderingPrivate7FontRefENS1_6OSFontENS_4lessIS2_EENS_9allocatorINS_4pairIKS2_S3_EEEEEixERS8_
zki:_Material_SetInt_m2847439171
K8:__Z13FormatOrderedPKcz
ZJe:_Path_IsPathRooted_m1347207448
yRf:_ObjectManager_RegisterObjectInternal_m879109503
Mae:_Array_get_swapper_TisVector4_t2243707581_m97441823_gshared
iLc:__ZN14SafeBinaryRead21TransferSTLStyleArrayI10vector_mapINSt3__24pairIttEEfN20TextRenderingPrivate8FontImpl14KerningCompareENS2_9allocatorINS3_IS4_fEEEEEEEvRT_17TransferMetaFlags
I0b:__Z13RegisterClassI15QualitySettingsEvv
Xwj:__ZN6il2cpp2vm6String21InitializeEmptyStringEP11Il2CppClass
iSb:__ZN25DeferredRenderLoopScratchD0Ev
uw:__ZN27AnimationLayerMixerPlayable14SetInputWeightEif
Vt:__ZN7mecanim9animation17EvaluateHumanPoseERKNS0_18ClipMuscleConstantERKNS0_15ClipMuscleInputEPKfRKNS0_12MotionOutputERNS_5human9HumanPoseE
dji:_GameObject_AddComponent_m540062519
Hcb:__ZN15dense_hashtableINSt3__24pairIKiN4core17string_with_labelILi1EEEEEi18SInt32HashFunctionN14dense_hash_mapIiS5_S7_NS0_8equal_toIiEE13stl_allocatorIS6_L18MemLabelIdentifier1ELi16EEE9SelectKeyESA_SD_E9copy_fromERKSG_j
xIa:__ZN6Camera11ResetAspectEv
L2f:_Type_get_IsGenericType_m3396841573
Y6a:__ZN15ResourceManagerD0Ev
lGf:_X509BasicConstraintsExtension_get_HasPathLengthConstraint_m3788532759
qMa:__ZNK17InstancedPropInfo22FillInstancePropertiesER19ShaderPropertySheetjPK17BatchInstanceDatajRK15RenderNodeQueue
uHa:__ZN22CreateGpuProgramOutputD2Ev
XO:__ZN13ProduceHelperI13AudioListenerLb0EE7ProduceE18MemLabelIdentifier18ObjectCreationMode
uTi:_WillRenderCanvases_Invoke_m4267547094
LYd:_DateTimeFormatInfo_GetInstance_m3133223810
wof:_ModulusRing_BarrettReduction_m2802101099
Uib:__ZN12HandlerChain4OpenER13FileEntryData14FilePermission16FileAutoBehavior
jdj:__ZN15dense_hashtableINSt3__24pairIK10KeyWrapperINS1_IPK10MethodInfoP11Il2CppClassEEEjEES9_17ReflectionMapHashIS8_EN14dense_hash_mapIS9_jSD_NS9_14EqualsComparerINS0_8equal_toIS8_EEEENS0_9allocatorISB_EEE9SelectKeyESI_SK_E6insertERKSB_
Tvc:__ZN27PerformanceReportingManager29OnSceneLoadedAfterAwakeStaticEPS_iR18AwakeFromLoadQueueN19RuntimeSceneManager11LoadingModeE
NFh:_ValueCollection_System_Collections_Generic_ICollectionU3CTValueU3E_Remove_m4188992987_gshared
w2:__ZN14FileCacherReadD2Ev
gab:__ZN13RendererScene23UpdatePreviousFrameDataEii
khd:_RSAPKCS1SignatureDeformatter_VerifySignature_m1825067195
Tti:_RectTransform_remove_reapplyDrivenProperties_m52143263
gOi:__ZL25UnresolvedVirtualCall_123P12Il2CppObjectffPK10MethodInfo
aec:__Z50Register_UnityEngine_CullingGroup_FinalizerFailurev
tUe:_KeyValuePair_2_ToString_m2613351884_gshared
Qab:__ZN27UnloadUnusedAssetsOperationD0Ev
eIg:__ZL69ColorBlock_t2652774230_CustomAttributesCacheGenerator_m_DisabledColorP21CustomAttributesCache
Ath:_Scrollbar__ctor_m2244981801
cVi:_AnimationLayerMixerPlayable__ctor_m678972180
Ohd:_SHA256Managed_HashCore_m4111458495
eae:_CultureInfo_get_CompareInfo_m3085280862
ubg:__ZL55Dictionary_2_t2276497324_CustomAttributesCacheGeneratorP21CustomAttributesCache
zSf:_ObjectManager_RecordDelayedFixup_m1895730844
IF:__ZN9AudioClip23VirtualRedirectTransferER18StreamedBinaryReadILb0EE
Quf:_ClientSessionInfo_CheckDisposed_m1394638186
pUf:_SByte_Parse_m2544167007
Rmd:_Single_CompareTo_m2081476257
Wse:_BigInteger__ctor_m2945783161
Awf:_TlsClientHello_Update_m1723542631
pti:_RectOffset_set_top_m1587840032
dEe:_IndexOutOfRangeException__ctor_m3497760912
Gj:_glCopyTexSubImage2D
vPf:_RealProxy_InternalGetTransparentProxy_m3415358600
LVe:_Enumerator_System_Collections_IEnumerator_Reset_m2200349770_gshared
lyj:__ZN6il2cpp6icalls8mscorlib6System7Convert24InternalFromBase64StringEP12Il2CppStringb
Rid:_SymmetricAlgorithm_CreateDecryptor_m4240570785
ozh:_Text_get_preferredWidth_m3352156860
e1c:__ZN2UI13CanvasManager14GetRenderOrderEPKNS_6CanvasE
Nmb:__Z18Transfer_BlittableI14SafeBinaryReadLb0E5RectTIfEEvRK29SerializationCommandArgumentsR31RuntimeSerializationCommandInfo
Bbd:__ZNK20UnityWebRequestProtoI24UnityWebRequestTransport16AtomicRefCounter14RedirectHelper14ResponseHelper15DownloadHandler13UploadHandler12HeaderHelper14AsyncOperationE14GetUploadBytesEv
Yjf:_ReadOnlyCollection_1_System_Collections_Generic_IListU3CTU3E_RemoveAt_m878653284_gshared
Aae:_DateTimeFormatInfo_GetFormat_m3676195179
eha:__ZN14GfxContextGLES14GetFramebufferEv
QSj:_emscripten_glGenVertexArrays__wrapper
Tja:__ZN6prcoreL21CreateRemapAnyBlitterE13TextureFormatS0_
G9b:__ZN17AnimationCurveTplIfE16StripInvalidKeysEv
she:_Array_InternalArray__ICollection_Add_TisKeyValuePair_2_t3716250094_m2381539361_gshared
Zhi:_InvokableCall_add_Delegate_m1994890856
eAe:_X509Extension_WriteLine_m2850991173
W$c:__ZNK2UI6Canvas17GetSortingLayerIDEv
L_b:__ZL12HashLen0to16PKcj
aGc:__ZN14Raycast2DQuery8RunQueryEb
d0b:__Z13RegisterClassI17GlobalGameManagerEvv
kYa:__ZN8Renderer24SetupNewRendererForSceneEv
lce:_Array_InternalArray__ICollection_Remove_TisInt64_t909078037_m2653583130_gshared
OQi:_TextGenerator_Populate_Internal_m65392018
e_f:_Thread_get_ExecutionContext_m922067206
woe:_BaseInvokableCall_ThrowOnInvalidArg_TisInt32_t2071877448_m2823200566_gshared
Psc:__Z35Transfer_Blittable_FixedBufferFieldI8JSONReadtEvRK29SerializationCommandArgumentsR31RuntimeSerializationCommandInfo
Y6b:__ZN14PlayableOutput6HandleEv
UZa:__ZNK6Sprite22GetTypeVirtualInternalEv
un:FUNCTION_TABLE_iiiiiiiiiiiiii
lbh:__Z100RuntimeInvoker_Void_t1841601450_SByte_t454417549_SByte_t454417549_Int32_t2071877448_SByte_t454417549PFvvEPK10MethodInfoPvPS4_
kRc:_UNITY_tt_get_cmap_info
ytb:__Z29Transfer_Blittable_ArrayFieldI24GenerateTypeTreeTransfer5RectTIiEEvRT_R9ArrayInfoRK23StaticTransferFieldInfo
GNa:__ZN16ReflectionProbes8ScheduleEN18ReflectionProbeJob7JobTypeEP15ReflectionProbei
Pdf:_Collection_1_IsFixedSize_m3675221982_gshared
UWe:_Enumerator_MoveNext_m3293920409_AdjustorThunk
$ya:__Z18IsDirectoryCreatedRKN4core12basic_stringIcNS_20StringStorageDefaultIcEEEE
R_c:__ZN2UI13CanvasManagerD2Ev
i0h:_Comparer_1__cctor_m3112251759_gshared
vXi:_Collector_IncreaseScore_m126177752
vFf:_X509KeyUsageExtension_ToString_m1992050580
ANc:_UNITY_FT_GlyphLoader_Done
g6f:_ValueType_DefaultEquals_m2245650968
Wai:_BalancingGroup__ctor_m2474435406
F3h:_ConstructionCall__ctor_m1143766850
j0h:_Comparer_1_System_Collections_IComparer_Compare_m3203078743_gshared
uGc:__ZN19OverlapPointQuery2D14InitializeAABBER6b2AABB
_Rc:_tt_cmap14_char_var_index
$zb:__Z35Transfer_Blittable_FixedBufferFieldI18StreamedBinaryReadILb0EEdEvRK29SerializationCommandArgumentsR31RuntimeSerializationCommandInfo
tTc:_psh_globals_new
QLe:_FileStream_Seek_m950719389
YZd:_Decimal_stripStyles_m294582157
W9:__ZN9GfxDevice20SetMaxBufferedFramesEi
q0e:_List_1_RemoveAll_m4125997475_gshared
s3g:__Z98RuntimeInvoker_Void_t1841601450_Int32_t2071877448_Int32_t2071877448_RuntimeObject_SByte_t454417549PFvvEPK10MethodInfoPvPS4_
sxc:__ZN10Collider2D19WakeAllBodyContactsEv
MMj:dynCall_vdd
F0c:__ZN2UIL17UnloadAllCanvasesEv
HZb:__Z23ConvertIntegerToTypePtrIsEbPvR14SafeBinaryRead
Cgg:__ZL54_MethodBase_t1935530873_CustomAttributesCacheGeneratorP21CustomAttributesCache
Rzc:__ZN12b2MouseJoint11ShiftOriginERK6b2Vec2
Z5g:__Z96RuntimeInvoker_Void_t1841601450_SByte_t454417549_RuntimeObject_SByte_t454417549_SByte_t454417549PFvvEPK10MethodInfoPvPS4_
wSd:_FixedSizeArrayListWrapper_Remove_m1359458911
vfi:_CameraCallback_Invoke_m2640212610
$ja:__ZN6prcoreL29inner_stretch_rgb565_bilinearEPKNS_9InnerInfoE
qci:_Uri__ctor_m3927533881
O2c:__Z33Canvas_Get_Custom_PropWorldCameraP12Il2CppObject
Cyh:_Text_get_mainTexture_m813502234
pGj:__ZN6il2cpp8metadata19Il2CppSignatureHash4HashERKNS_5utils13dynamic_arrayIPK10Il2CppTypeLj4EEE
tRb:__ZNK14RenderSettings19GetFlatAmbientColorEv
tja:__ZN6prcoreL10inner_flipILj4EEEvPhS1_j
J5a:__ZN18StreamedBinaryReadILb0EE21TransferSTLStyleArrayI10vector_mapIPKN5Unity4TypeE7Hash128NSt3__24lessIS6_EENS8_9allocatorINS8_4pairIS6_S7_EEEEEEEvRT_17TransferMetaFlags
qy:__ZNK27StateMachineBehaviourPlayer15IsSenderEnabledEv
qAh:_Enumerator_VerifyState_m2118679243_gshared
MFd:_InputField_get_shouldHideMobileInput_m3694613599
ejc:__Z40Register_UnityEngine_Transform_SetParentv
eah:__Z56RuntimeInvoker_TimeSpan_t3430258949_TimeSpan_t3430258949PFvvEPK10MethodInfoPvPS4_
L$a:__ZN14Texture2DArray17UploadToGfxDeviceEv
sjf:_ReadOnlyCollection_1_System_Collections_Generic_IListU3CTU3E_Insert_m4216310986_gshared
egf:_ReadOnlyCollection_1_System_Collections_Generic_IListU3CTU3E_set_Item_m1532495847_gshared
zJ:__Z14FMODMemoryFreePvjPKc
sAg:__ZL94Physics2D_t2540166467_CustomAttributesCacheGenerator_Physics2D_Raycast_m298439588____minDepth4P21CustomAttributesCache
nFd:_Image_AddQuad_m1600600902
KUc:_cf2_glyphpath_moveTo
zwc:__ZNK13BoxCollider2D22GetTypeVirtualInternalEv
_2d:_DateTimeOffset__ctor_m1796624924
Brd:_BaseRaycaster_OnDisable_m1716508791
Uu:__ZN7mecanim23TransformValueArrayLoopEiiiRKN4math4trsXES3_RNS_10ValueArrayEf
fmc:__ZN5IMGUI14GUIWindowStateD2Ev
qCj:_GC_is_heap_ptr
mwi:_TouchScreenKeyboard_Open_m2033426733
BB:__ZN7mecanim5human10RetargetToEPKNS0_5HumanEPKNS0_9HumanPoseES6_RKN4math4trsXEPS4_PNS_8skeleton13SkeletonPoseTIS8_EESF_
Mu:__ZN7mecanim9animation8SeekClipERKNS0_12StreamedClipERNS0_18StreamedClipMemoryEf
lm:_emscripten_glIsTexture
cSd:_ArrayListWrapper_CopyTo_m793444109
Sk:_emscripten_glHint
HIc:__ZZN10Collider2D15InitializeClassEvEN30FunctorImpl_98kDidAddComponent4CallEPviR11MessageData
RXc:_ft_var_readpackeddeltas
i2d:_DateTime_AddMilliseconds_m1813199744_AdjustorThunk
qUg:_MethodBuilder_GetParameterCount_m467267889
Tyj:__ZThn4_N6il2cpp2vm13CachedCCWBaseINS0_13ManagedObjectEE6AddRefEv
Cwb:__Z35Transfer_Blittable_FixedBufferFieldI18StreamedBinaryReadILb1EEtEvRK29SerializationCommandArgumentsR31RuntimeSerializationCommandInfo
Pti:_RectTransform_INTERNAL_get_pivot_m4220117653
prf:_RSAManaged__ctor_m1680944437
om:_SDL_UpperBlit
CNa:__Z35GetTextureDecodeValuesWithIntensity16TextureUsageMode17TextureColorSpace10ColorSpacef
gPd:_Byte_GetHashCode_m2885528842_AdjustorThunk
zhj:__ZN15dense_hashtableINSt3__24pairIK10KeyWrapperINS1_IPK9EventInfoP11Il2CppClassEEEjEES9_17ReflectionMapHashIS8_EN14dense_hash_mapIS9_jSD_NS9_14EqualsComparerINS0_8equal_toIS8_EEEENS0_9allocatorISB_EEE9SelectKeyESI_SK_E15set_deleted_keyERKSB_
rHh:_Dictionary_2_OnDeserialization_m2092139626_gshared
Mzc:__ZNK12b2MouseJoint10GetAnchorAEv
jii:_PersistentCall__ctor_m3653852388
rCb:__ZN14SafeBinaryRead20OverrideRootTypeNameEPKc
A2:__ZN14FileCacherRead16UnlockCacheBlockEj
jze:_X509Certificate_GetUnsignedBigInteger_m3491353542
BIc:__ZN13ProduceHelperI16CircleCollider2DLb0EE7ProduceE18MemLabelIdentifier18ObjectCreationMode
Pc:_emscripten_glUniform1f
A$b:__ZN13dynamic_arrayIS_I8Vector2fLj4EELj4EE18resize_initializedEjRKS1_12ResizePolicy
Pzf:_SslStreamBase_get_MightNeedHandshake_m3432170694
$Nc:__Z20ParseImageParametersR11UTF16StringRiRN20TextRenderingPrivate16TextFormatChangeE
Uc:_emscripten_glUniform1i
Wrb:__Z18Transfer_BlittableI24GenerateTypeTreeTransferLb1EN4math12int3_storageEEvRK29SerializationCommandArgumentsR31RuntimeSerializationCommandInfo
CY:__Z33UnregisterDeviceEventCallbackImplPFv23UnityGfxDeviceEventTypeE
Ith:__Z14bankers_roundff
keb:__ZN9ShaderLab16SerializedTagMapaSERKS0_
HR:__ZN11UnityEngine15CloudWebService16SessionContainer20RestoreSessionHeaderERKN4core12basic_stringIcNS2_20StringStorageDefaultIcEEEES8_RNS0_13SessionHeaderE
O2d:_DateTime_ToString_m1117481977
NTg:_GenericTypeParameterBuilder_GetGenericArguments_m277381309
MC:__ZN11UnityEngine9Animation27CreateAvatarBindingConstantER9TransformPKN7mecanim9animation14AvatarConstantERNS3_6memory9AllocatorE
Y4f:_UInt64_System_IConvertible_ToDateTime_m2412118561
Bcc:__ZN9BlobWriteC2ER13dynamic_arrayIhLj16EE24TransferInstructionFlags19BuildTargetPlatform
K0:__ZN14MessageHandler3GetEv
Iha:__ZN10DynamicVBO9DrawChunkERK21DynamicVBOChunkHandle17ShaderChannelMaskS3_P17VertexDeclarationPKNS_10DrawParamsEi
gd:_emscripten_glAttachShader
jif:_ReadOnlyCollection_1__ctor_m1539890895_gshared
V9:__ZN9GfxDevice13SetActiveTierE12GraphicsTier
EVe:_Enumerator_System_Collections_IEnumerator_get_Current_m3079057684_AdjustorThunk
q4a:__ZNSt3__26vectorIN4core12basic_stringIcNS1_20StringStorageDefaultIcEEEENS_9allocatorIS5_EEE6assignIPS5_EENS_9enable_ifIXaasr21__is_forward_iteratorIT_EE5valuesr16is_constructibleIS5_NS_15iterator_traitsISC_E9referenceEEE5valueEvE4typeESC_SC_
$ve:_KeyPairPersistence_get_UserPath_m3433052783
_7f:__ZL58Decimal_t724701077_CustomAttributesCacheGenerator_MinusOneP21CustomAttributesCache
umb:__Z18Transfer_BlittableI14SafeBinaryReadLb0E11QuaternionfEvRK29SerializationCommandArgumentsR31RuntimeSerializationCommandInfo
wwc:__ZN13BoxCollider2D16CheckConsistencyEv
Jzb:__Z18Transfer_BlittableI18StreamedBinaryReadILb0EELb1E12PropertyNameEvRK29SerializationCommandArgumentsR31RuntimeSerializationCommandInfo
cW:_tlsf_walk_heap
Jye:_PKCS12_Decode_m731190390
NWh:_InternalEnumerator_1_get_Current_m1550231132_gshared
m6f:_Version_CheckedSet_m76493673
mb:invoke_vif
nb:invoke_vid
LKj:__ZNSt3__212basic_stringIcNS_11char_traitsIcEENS_9allocatorIcEEE6insertEjPKc
Okg:__ZL67UnverifiableCodeAttribute_t765455733_CustomAttributesCacheGeneratorP21CustomAttributesCache
pb:invoke_vii
QKb:__ZNK12ImageFilters8DoRenderER17ShaderPassContextP13RenderTextureS3_RKNSt3__26vectorI11ImageFilterNS4_9allocatorIS6_EEEE
Oxa:__ZN12TLSAllocatorI14StackAllocatorE16ThreadInitializeEP13BaseAllocator
ARd:_ArrayList_Sort_m2778059513
uaa:__ZN9GfxDevice32UpdateStereoViewProjectionMatrixE21MonoOrStereoscopicEye
AHb:__ZN15dense_hashtableINSt3__24pairIKN4core12basic_stringIcNS2_20StringStorageDefaultIcEEEEP20ArchiveStorageReaderEES6_20StringHash32FunctionIS6_EN14dense_hash_mapIS6_S9_SC_NS0_8equal_toIS6_EE13stl_allocatorISA_L18MemLabelIdentifier55ELi16EEE9SelectKeyESF_SI_E12resize_deltaEjj
eEd:_LayoutGroup_SetChildAlongAxis_m2732017156
V1c:__Z41CanvasRenderer_CUSTOM_DisableRectClippingP12Il2CppObject
gqf:_MD2_Create_m539024737
nch:__Z112RuntimeInvoker_Void_t1841601450_RuntimeObject_Int32_t2071877448_Int32_t2071877448_RuntimeObject_SByte_t454417549PFvvEPK10MethodInfoPvPS4_
bCa:__ZN25SingleBlockMemoryFileDataD0Ev
Yxa:__ZNSt3__26vectorI14ConstantStringNS_9allocatorIS1_EEE6assignINS_11__wrap_iterIPS1_EEEENS_9enable_ifIXaasr21__is_forward_iteratorIT_EE5valuesr16is_constructibleIS1_NS_15iterator_traitsISA_E9referenceEEE5valueEvE4typeESA_SA_
CR:__ZN11UnityEngine15CloudWebService16SessionContainer21ConvertFromFolderTimeERKN4core12basic_stringIcNS2_20StringStorageDefaultIcEEEEPjPt
fob:__ZNSt3__26vectorI8GUIStyle13stl_allocatorIS1_L18MemLabelIdentifier1ELi16EEE7reserveEj
Dlj:__ZN6il2cpp6icalls8mscorlib6System9Threading6Thread27GetSerializedCurrentCultureEP12Il2CppThread
Fge:_Array_InternalArray__IndexOf_TisUInt32_t2149682021_m3231515987_gshared
d2b:__Z31CalculateHierarchyTransformType23TransformAccessReadOnly
B0b:__Z13RegisterClassI11TimeManagerEvv
qJ:__ZN4FMOD8ChannelI11setPositionEjj
R4g:__Z136RuntimeInvoker_IntPtr_t_RuntimeObject_Int32_t2071877448_Int32_t2071877448_Int32_t2071877448_Int32_t2071877448_MonoIOErrorU26_t1029615899PFvvEPK10MethodInfoPvPS4_
xaa:__ZN9GfxDevice17SetStereoViewportE15StereoscopicEyeRK5RectTIiE
K7:__ZN17BaseObjectManager13StaticDestroyEPv
I3d:_DBNull_System_IConvertible_ToChar_m3344298044
rgh:__Z65RuntimeInvoker_Boolean_t3825574718_RuntimeObject_Int64_t909078037PFvvEPK10MethodInfoPvPS4_
u7h:_LinkStack_Push_m2660199875
jI:__ZN4FMOD6Reverb13setPropertiesEPK22FMOD_REVERB_PROPERTIES
CMb:__ZN9DepthPass13PrepareSubsetEjRK10RenderNodeifRK17ShaderReplaceData
Uni:_X509CertificateCollection_Add_m4008705157
a9b:__Z35SetMeshComponentFromArrayFromScriptR4Mesh30InternalScriptingShaderChannel34InternalScriptingVertexChannelTypei17ScriptingArrayPtri
ckf:_ReadOnlyCollection_1_System_Collections_IList_Add_m3806843030_gshared
Xaf:_Collection_1_IsFixedSize_m1816795498_gshared
nq:__ZN4core20StringStorageDefaultIcE6assignEPKcj
Irj:__ZN15dense_hashtableINSt3__24pairIK10KeyWrapperIP12Il2CppObjectEN6il2cpp2gc9CachedCCWEEES5_NS7_5utils11PointerHashIS3_EEN14dense_hash_mapIS5_S9_SD_NS5_14EqualsComparerINS0_8equal_toIS4_EEEENS0_9allocatorISA_EEE9SelectKeyESI_SK_E3endEv
Nud:_MouseButtonEventData_ReleasedThisFrame_m482758300
Fui:_SceneManager_Internal_SceneLoaded_m1729738062
rij:__ZN15dense_hashtableINSt3__24pairIK10KeyWrapperINS1_IP11Il2CppClassjEEES4_EES6_N6il2cpp8metadata14ArrayClassHashEN14dense_hash_mapIS6_S4_SB_NS6_14EqualsComparerINSA_17ArrayClassCompareEEENS0_9allocatorIS8_EEE9SelectKeyESF_SH_E9copy_fromERKSK_j
BSd:_ReadOnlyArrayListWrapper_set_Item_m2199017141
LVb:__ZN6Camera6SetFarEf
Pni:_DeriveBytes_DeriveIV_m3343375195
JOc:_UNITY_FT_Init_Class_ft_bitmap_glyph_class
Egd:_RNGCryptoServiceProvider_GetBytes_m167497991
Jka:__ZN6prcoreL12RemapGenericI17TexFormatABGR888817TexFormatARGB8888EEvPKNS_9InnerInfoE
mDa:__ZN11GameManager17MainThreadCleanupEv
hvi:_SetupCoroutine_InvokeMember_m170868586
A3c:__Z50Register_UnityEngine_UISystemProfilerApi_EndSamplev
NRg:_TypeBuilder_get_Assembly_m492491492
Lb:invoke_vffff
Hwc:__ZN10Collider2D12AddToManagerEv
HWc:_UNITY_tt_slot_init
tIb:__ZZ23InitPlayerLoopCallbacksvEN41PostLateUpdateUpdateResolutionRegistrator7ForwardEv
Cfe:_Array_FindLastIndex_TisRuntimeObject_m986818300_gshared
pBb:__Z25scripting_array_class_get17ScriptingClassPtrj
Rqc:__ZL22Transfer_ManagedObjectI9JSONWriteLb1EEvRK29SerializationCommandArgumentsR31RuntimeSerializationCommandInfo
qF:__ZNK10SampleClip22GetTypeVirtualInternalEv
Cba:__ZN9GfxDevice20DestroyRenderSurfaceER12ObjectHandleI17RenderSurface_TagP17RenderSurfaceBaseE
A8:__ZN18SpriteAtlasManagerC2Ev
Y_b:__ZL24PrepareSpriteRenderNodesILb1EEvR35RenderNodeQueuePrepareThreadContext
mua:__ZN9GfxDevice22UpdateComputeResourcesEjPK9TextureIDPK16TextureDimensionPKijPKjjPK15ComputeBufferIDS7_PK20ComputeBufferCounterjSC_S2_S5_S9_SF_
vGa:__ZN12_GLOBAL__N_15qAsinEff
Rne:_Dictionary_2_Do_ICollectionCopyTo_TisKeyValuePair_2_t3749587448_m2536766696_gshared
Pxa:__ZN12TLSAllocatorI14StackAllocatorE13ThreadCleanupEv
jfh:__Z154RuntimeInvoker_RaycastHit2D_t4063908774_Vector2_t2243707579_Vector2_t2243707579_Single_t2076509932_Int32_t2071877448_Single_t2076509932_Single_t2076509932PFvvEPK10MethodInfoPvPS4_
Gfe:_Array_IndexOf_TisRuntimeObject_m1815604637_gshared
Xxj:__ZThn4_N6il2cpp2vm13ComObjectBase16MarshalInterfaceEP13Il2CppIStreamRK10Il2CppGuidPvjS7_j
Y0a:__ZN4Mesh27SwizzleVertexColorsIfNeededEb
aEb:__Z27FindActiveTransformWithPathPKc
iri:_PropertyName_op_Inequality_m2830582941
nAe:_SecurityParser_OnEndElement_m2909940377
ZFa:__ZNK6Camera7GetNearEv
Rna:__ZN7ApiGLES11UnmapBufferEjN2gl12BufferTargetE
fyj:__ZN6il2cpp5utilsL24Utf32CharToSurrogatePairEjRA2_Ds
nVa:__Z25GetNextAllowedTextureSizeib13TextureFormat
UDb:__ZN20LocalFileSystemWebGL4CopyER13FileEntryDataS1_
j1e:_List_1_CheckIndex_m4231572822_gshared
bU:__ZN19CloudServiceHandler6RetainEv
ild:_StrongName_Equals_m67226644
Qmc:__Z36Event_CUSTOM_Internal_SetNativeEventPv
yGa:__ZN12BaseRenderer20FlattenToRenderQueueER15RenderNodeQueueRK20DeprecatedSourceData
APe:_UnmanagedMemoryStream_get_Length_m587008850
gbb:__Z34scripting_liveness_calculation_endPv
Gkc:__ZNK19RectangleCellLayout13GetCellCenterEv
Hvj:__ZN6il2cpp2os6ThreadC2Ev
Xld:_SecurityFrame_InitFromRuntimeFrame_m45195821
zHf:_X509Chain_IsSignedWith_m292245392
gu:__ZN21AnimationClipPlayable22ProcessAnimationNoClipEPK35AnimationPlayableEvaluationConstantPK32AnimationPlayableEvaluationInputP33AnimationPlayableEvaluationOutput
gce:_Array_InternalArray__ICollection_Remove_TisDateTime_t693205669_m1275668216_gshared
nif:_ReadOnlyCollection_1_System_Collections_Generic_ICollectionU3CTU3E_Remove_m3751131234_gshared
rsc:__Z18Transfer_BlittableI8JSONReadLb0E8Vector3fEvRK29SerializationCommandArgumentsR31RuntimeSerializationCommandInfo
_3h:_ChannelServices__cctor_m3534779830
Ujj:__ZN6il2cpp2vm6Thread6DetachEP12Il2CppThread
uti:_RectOffset_Finalize_m816260249
Twi:_Transform_set_localRotation_m3053695533
HSc:_Render_Single_Pass
Q_d:_Convert_ToInt16_m416789348
XVf:_EncoderExceptionFallback_Equals_m762170768
LIi:_EqualityComparer_1__cctor_m2666196678_gshared
$Jc:__GLOBAL__sub_I_runtime_dynamics_2_cpp
gBh:_Enumerator_get_CurrentValue_m3147984131_AdjustorThunk
SC:__ZN7mecanim8skeleton30SkeletonBuildReverseIndexArrayEPiPKiPKNS0_8SkeletonES6_
Vkc:__Z19GetGUIBlendMaterialv
Dfh:__Z69RuntimeInvoker_Boolean_t3825574718_TextGenerationSettings_t2543476768PFvvEPK10MethodInfoPvPS4_
auj:__ZN6il2cpp2os10ThreadImpl5SleepEjb
$qc:__ZN9JSONWrite8TransferI13GUIStyleStateEEvRT_PKc17TransferMetaFlags
EBf:_ListDictionary_FindEntry_m432748847
qSj:_glBindSampler__wrapper
cDa:__ZNSt3__26vectorIN20ArchiveStorageHeader12StorageBlockE13stl_allocatorIS2_L18MemLabelIdentifier55ELi16EEE8__appendEj
Mf:_emscripten_set_mouseup_callback
zoe:_BaseInvokableCall_ThrowOnInvalidArg_TisColor_t2020392075_m3638385415_gshared
IXb:__ZNK18ScreenManagerWebGL8GetWidthEv
wLi:_AudioExtensionManager_GetListenerSpatializerExtensionEditorType_m165088149
NDd:_GridLayoutGroup_set_startAxis_m1635162426
nF:__ZN10SampleClipD2Ev
F6h:_SynchronizationAttribute_EnterContext_m2984912761
rae:_CultureInfo_construct_internal_locale_from_name_m971766383
zab:__Z13GetGISettingsv
iie:_Array_InternalArray__ICollection_Add_TisUIVertex_t1204258818_m3869382594_gshared
NT:__ZN11UnityEngine15CloudWebService20WebRequestRestClientC2Ev
bWc:_cff_cmap_unicode_init
L7d:_Enum_ToObject_m2460371738
Tte:_PrimalityTests_Test_m1088386156
Xyi:_Vector4_SqrMagnitude_m1060560279
jJj:_readlink
bfj:__ZN15dense_hashtableINSt3__24pairIK10KeyWrapperINS1_IPK9EventInfoP11Il2CppClassEEEjEES9_17ReflectionMapHashIS8_EN14dense_hash_mapIS9_jSD_NS9_14EqualsComparerINS0_8equal_toIS8_EEEENS0_9allocatorISB_EEE9SelectKeyESI_SK_E12resize_deltaEjj
ume:_Array_Resize_TisVector3_t2243707580_m893658391_gshared
KSh:_InternalEnumerator_1_System_Collections_IEnumerator_get_Current_m4259662004_AdjustorThunk
Spe:_Array_InternalArray__get_Item_TisKeyframe_t1449471340_m1003508933_gshared
hEj:__ZN6il2cpp8metadata14Il2CppTypeHash4HashEPK10Il2CppType
vFj:__ZN6il2cpp2os13SemaphoreImplC2Eii
d8g:__Z50RuntimeInvoker_Double_t4078015681_Int64_t909078037PFvvEPK10MethodInfoPvPS4_
Dye:_StrongName_get_PublicKeyToken_m1968460885
B3a:__ZNK6Sprite9GetBoundsE8Vector2fbb
vJa:__ZNK19RenderEventsContext21CleanupCommandBuffersEv
nfa:__ZN11ContextGLES6CreateEi
hJe:_BinaryReader_Dispose_m4249456877
VZd:_Double_ToString_m1085043609
xAb:__Z19TransferField_ArrayI18StreamedBinaryReadILb0EE27Converter_SimpleNativeClassI17AnimationCurveTplIfEEEvRK23StaticTransferFieldInfoR31RuntimeSerializationCommandInfoRT0_
Ksf:_CipherSuite_createEncryptionCipher_m1926075645
Qmi:_Plane__ctor_m730644932
sxa:__ZN14StackAllocator16FrameMaintenanceEb
gDd:_Graphic_Raycast_m3582517890
IIc:__ZZN10Collider2D15InitializeClassEvEN33FunctorImpl_99kDidRemoveComponent4CallEPviR11MessageData
k3:__ZNK10GameObject20QueryComponentByTypeEPKN5Unity4TypeE
_zi:_GUISkin_MakeCurrent_m1547433985
JWe:_Enumerator_MoveNext_m1367380970_AdjustorThunk
eVg:_OpCode_GetHashCode_m2974727122
AWd:_Enumerator_Reset_m466659019
Lsf:_CipherSuite_createDecryptionCipher_m1118350455
z8h:_PatternCompiler_EmitReference_m1381860071
B6d:_Double_System_IConvertible_ToInt16_m4200640326
sfh:__Z84RuntimeInvoker_RuntimeObject_RayU26_t3651946800_Single_t2076509932_Int32_t2071877448PFvvEPK10MethodInfoPvPS4_
yUa:__ZN11TextureData5ResetEv
Kec:__Z53Register_UnityEngine_GameObject_get_activeInHierarchyv
b9:__ZN15dense_hashtableINSt3__24pairIKN4core12basic_stringIcNS2_20StringStorageDefaultIcEEEE13dynamic_arrayI4PPtrI6SpriteELj4EEEES6_20StringHash32FunctionIS6_EN14dense_hash_mapIS6_SC_SF_NS0_8equal_toIS6_EE13stl_allocatorISD_L18MemLabelIdentifier81ELi16EEE9SelectKeyESI_SL_EC2ERKSO_j
w_:__ZL30InitializeCoreScriptingClassesv
Ndf:_Collection_1_CheckWritable_m3938993573_gshared
Ig:_glBlitFramebuffer
$te:_BigInteger_GeneratePseudoPrime_m2606361440
Tpb:__Z35Transfer_Blittable_SingleValueFieldI14SafeBinaryReadhEvRT_R17GeneralMonoObjectRK23StaticTransferFieldInfo
O7b:__ZN12CachedWriter15CompleteWritingEv
eOf:_RemotingServices_GetRealProxy_m620317996
QMb:__ZN13dynamic_arrayI11CulledLightLj4EE6insertEPS0_PKS0_S4_
CTa:__ZNK12CubemapArray22GetTypeVirtualInternalEv
qSi:_Predicate_1_Invoke_m2060780095_gshared
R3i:__ZN6il2cpp2vm13MetadataCache23GetInterfaceOffsetIndexEi
Sn:FUNCTION_TABLE_vif
Tn:FUNCTION_TABLE_vid
Vn:FUNCTION_TABLE_vii
rbb:__Z40scripting_liveness_calculation_from_root18ScriptingObjectPtrPv
jQa:__ZN7Texture23VirtualRedirectTransferER24GenerateTypeTreeTransfer
FMc:_UNITY_FT_Set_Transform
Wqj:__ZN6il2cpp8metadata15GenericMetadata20RegisterGenericClassEP18Il2CppGenericClass
Nbh:__Z101RuntimeInvoker_OpFlags_t378191910_SByte_t454417549_SByte_t454417549_SByte_t454417549_SByte_t454417549PFvvEPK10MethodInfoPvPS4_
XRj:_glDeleteFramebuffers__wrapper
FEd:_Image_get_overrideSprite_m706080347
jof:_BigInteger_ModInverse_m1881894572
$6i:__ZN6il2cpp2vm7Runtime17GetDelegateInvokeEP11Il2CppClass
L4b:__ZZN12MeshRenderer15InitializeClassEvEN29FunctorImpl_134kDidDeleteMesh4CallEPviR11MessageData
I$b:__Z22GenerateBoxTilingShapeP22GenerateTilingAreaInfo
EWa:__ZN28EnlightenRendererInformation8TransferI14SafeBinaryReadEEvRT_
rah:__Z88RuntimeInvoker_RuntimeObject_RuntimeObject_Int32_t2071877448_RuntimeObject_RuntimeObjectPFvvEPK10MethodInfoPvPS4_
Ffg:__ZL69DefaultDependencyAttribute_t3858269114_CustomAttributesCacheGeneratorP21CustomAttributesCache
rCa:__ZNK15Lz4Decompressor16DecompressMemoryEPKvPjPvS2_
aRc:_UNITY_tt_face_build_cmaps
JHc:__ZN11Rigidbody2D8TransferI24GenerateTypeTreeTransferEEvRT_
YRa:__Z35UnityPropertySheet_MakeSortedColorsRKNSt3__23mapIN9ShaderLab16FastPropertyNameE10ColorRGBAfNS_4lessIS2_EENS_9allocatorINS_4pairIKS2_S3_EEEEEER10vector_mapIS2_S3_S5_NS6_INS7_IS2_S3_EEEEE
g4d:_Decimal_System_IConvertible_ToType_m3828527724_AdjustorThunk
nQc:_UNITY_tt_face_load_os2
_pf:_HMAC_get_Key_m2528863640
zef:_Collection_1_IsSynchronized_m1366278230_gshared
jpb:__Z29Transfer_Blittable_ArrayFieldI14SafeBinaryRead8Vector4fEvRT_R9ArrayInfoRK23StaticTransferFieldInfo
Bae:_Array_get_swapper_TisInt32_t2071877448_m2837069166_gshared
uuh:_Selectable_Navigate_m915280351
J4h:_ConfigHandler_CheckPath_m2296459741
fud:_PointerEventData_IsScrolling_m1971908975
kIb:__ZZ23InitPlayerLoopCallbacksvEN51PostLateUpdateUpdateCustomRenderTexturesRegistrator7ForwardEv
s4d:_Decimal_System_IConvertible_ToInt16_m3159038792
Eu:__ZN7mecanim9animation12EvaluateClipEPKNS0_4ClipEPKNS0_9ClipInputEPNS0_10ClipMemoryEPNS0_10ClipOutputE
x7a:__ZNSt3__26vectorIN15ResourceManager10DependencyE13stl_allocatorIS2_L18MemLabelIdentifier52ELi16EEEC2INS_11__wrap_iterIPS2_EEEET_SB_RKS5_PNS_9enable_ifIXaasr21__is_forward_iteratorISB_EE5valuesr16is_constructibleIS2_NS_15iterator_traitsISB_E9referenceEEE5valueEvE4typeE
GYg:_MonoMethodInfo_GetReturnType_m2864247130
BUb:__ZN13RenderManager29SetCurrentCameraAndStackStateEP6CameraP25CameraStackRenderingState
Qwi:_Transform_INTERNAL_get_rotation_m1873681960
lFa:__ZNSt3__26__treeINS_12__value_typeIjN4core12basic_stringIcNS2_20StringStorageDefaultIcEEEEEENS_19__map_value_compareIjS7_NS_4lessIjEELb1EEE13stl_allocatorIS7_L18MemLabelIdentifier7ELi16EEE7destroyEPNS_11__tree_nodeIS7_PvEE
Gjj:__ZN15dense_hashtableINSt3__24pairIK10KeyWrapperINS1_IP11Il2CppClassjEEES4_EES6_N6il2cpp8metadata14ArrayClassHashEN14dense_hash_mapIS6_S4_SB_NS6_14EqualsComparerINSA_17ArrayClassCompareEEENS0_9allocatorIS8_EEE9SelectKeyESF_SH_E12resize_deltaEjj
Xh:_JS_WebRequest_Release
uKe:_DirectoryNotFoundException__ctor_m2242202556
aS:__ZN11UnityEngine15CloudWebService14DataErrorEventD0Ev
$mj:__ZN6il2cpp6icalls8mscorlib6System4Type20internal_from_handleEi
rpd:_String_CreateString_m2448464375
eJf:_X509SubjectKeyIdentifierExtension__ctor_m2959112706
hBh:_Enumerator_Reset_m1147555085_AdjustorThunk
EWg:_FieldInfo_get_IsNotSerialized_m2322769148
Sqj:__ZN6il2cpp8metadata15GenericMetadata7InflateEPK19Il2CppGenericMethodPK20Il2CppGenericContext
$Va:__ZN19ShaderPropertySheet16SetArrayPropertyEN9ShaderLab16FastPropertyNameENS_12PropertyTypeEPKvj
zYg:_MonoGenericCMethod_get_ReflectedType_m2689239043
Aef:_Collection_1_IsFixedSize_m499196375_gshared
Xyd:_ColorTween_set_startColor_m3546206870_AdjustorThunk
G_c:__ZN2UI11CanvasGroup23VirtualRedirectTransferER19StreamedBinaryWriteILb0EE
RVh:_InternalEnumerator_1_get_Current_m4083613828_gshared
c9i:__ZN6il2cpp2os4File11GetStdErrorEv
PQi:_TextGenerator_INTERNAL_CALL_Populate_Internal_cpp_m106350432
nmc:__ZN8GUIState8EndOnGUIEv
EYf:_UnicodeEncoding_GetString_m542738941
OWc:_UNITY_TT_Get_VMetrics
VJe:_Path_InsecureGetFullPath_m2635272425
P1d:_DateTime_System_IConvertible_ToUInt32_m1363211018
Cri:_Quaternion_ToString_m1042358501
nde:_SetPropertyUtility_SetStruct_TisSingle_t2076509932_m3849235084_gshared
gia:__ZN7Texture21GetMasterTextureLimitEv
rWb:__Z12CanAddScriptR10GameObject17ScriptingClassPtrPS1_S2_
aij:__ZN6il2cpp2vm10Reflection12HasAttributeEP12Il2CppObjectP11Il2CppClass
zjd:_X509Certificate_GetExpirationDateString_m2351894475
sZ:__ZN9ShaderLabL25StaticInitializeShaderLabEPv
U:Math_max
N7i:_il2cpp_class_get_methods
YJe:_Path_CanonicalizePath_m383914732
oAh:_Enumerator_System_Collections_IEnumerator_get_Current_m1631145297_gshared
Zrb:__Z18Transfer_BlittableI24GenerateTypeTreeTransferLb0EN4math12int2_storageEEvRK29SerializationCommandArgumentsR31RuntimeSerializationCommandInfo
FRd:_ArrayList_Synchronized_m2395071980
Nvj:__ZN6il2cpp2os6Thread16GetCurrentThreadEv
j6b:__ZN10GameObject13ComponentPair15SetComponentPtrEPN5Unity9ComponentE
uPe:_UnexceptionalStreamWriter_Write_m3206913035
m0b:__Z13RegisterClassI10MeshFilterEvv
tFa:__ZN10TagManager8TransferI19StreamedBinaryWriteILb0EEEEvRT_
Jab:__ZN11PreloadData23VirtualRedirectTransferER18StreamedBinaryReadILb0EE
Sz:__Z17dynamic_pptr_castIP10MonoScript6ObjectET_RK4PPtrIT0_E
Ixj:__ZN6il2cpp6icalls8mscorlib6System10ReflectionL40il2cpp_class_get_generic_type_definitionEP11Il2CppClass
DVf:_DESTransform_ProcessBlock_m2826669227
KEe:_Int16_CompareTo_m3493496879
SZa:__ZN6Sprite17MainThreadCleanupEv
TK:__ZN10AudioMixer14UpdateMuteSoloEv
xEa:__ZN9Transform35SetLocalPositionWithoutNotificationERKN4math7_float3Ey
Trh:_MaskableGraphic_UnityEngine_UI_IClippable_get_gameObject_m954171032
Xi:_JS_Eval_ClearTimeout
Vga:__ZN7ApiGLES16SetPatchVerticesEi
SMe:_MonoIOStat_t1621921065_marshal_pinvoke
NBa:__ZN10MemoryFileC2E18MemLabelIdentifierP14MemoryFileData14FilePermission
bPf:_TrackingServices_NotifyUnmarshaledObject_m1794048369
RYi:__ZN6il2cpp2vm5Class20FromGenericParameterEPK22Il2CppGenericParameter
AU:__ZN19CloudServiceHandler11FlushEventsEv
l7:__ZN15GlobalCallbacksC2Ev
Xke:_Array_InternalArray__set_Item_TisLabelFixup_t4090909514_m565370771_gshared
gBj:_GC_print_static_roots
SHc:__ZN7b2World10CreateBodyEPK9b2BodyDef
eOc:_UNITY_FT_New_Memory_Face
YLc:__ZN20TextRenderingPrivate21TextMeshGeneratorImpl5FlushEv
Zkd:__Z15CastclassSealedP12Il2CppObjectP11Il2CppClass
jVb:__ZN16ReflectionProbes40UpdateRealtimeReflectionProbesTimeslicedEv
M7a:__ZNK30RuntimeInitializeOnLoadManager22GetTypeVirtualInternalEv
x1i:__ZN15dense_hashtableINSt3__24pairIK10KeyWrapperIN6il2cpp5utils13dynamic_arrayIPK10Il2CppTypeLj4EEEEPFvvEEESA_NS3_8metadata19Il2CppSignatureHashEN14dense_hash_mapISA_SD_SG_NSA_14EqualsComparerINSF_22Il2CppSignatureCompareEEENS0_9allocatorISE_EEE9SelectKeyESK_SM_E12resize_deltaEjj
T3b:__ZN16ReflectionProbes15InitializeClassEv
vDj:__ZN6il2cpp5utils5MatchENSt3__212basic_stringIcNS1_11char_traitsIcEENS1_9allocatorIcEEEEjRKS7_j
bPc:_UNITY_FT_Destroy_Class_psnames_module_class
b8h:_MRUList_Evict_m2430323183
Rif:_ReadOnlyCollection_1_System_Collections_Generic_ICollectionU3CTU3E_Remove_m1060547576_gshared
Heh:__Z68RuntimeInvoker_Boolean_t3825574718_Rect_t3681755626_SByte_t454417549PFvvEPK10MethodInfoPvPS4_
upe:_Array_InternalArray__get_Item_TisRuntimeObject_m371871810_gshared
Yz:__ZN8Animator13BatchedFKPassERK13dynamic_arrayIP14PlayableOutputLj4EE
Txf:_RecordProtocol_ProcessChangeCipherSpec_m3233959862
nne:_Array_Sort_TisVector4_t2243707581_m474199742_gshared
$3:__ZN13RuntimeStaticINSt3__23mapIN4core12basic_stringIcNS2_20StringStorageDefaultIcEEEES6_NS0_4lessIS6_EE13stl_allocatorINS0_4pairIKS6_S6_EEL18MemLabelIdentifier13ELi16EEEELb0EE13StaticDestroyEPv
cPe:_TextWriter_Write_m576684782
Vj:_glIsVertexArray
$Ba:__ZN25SingleBlockMemoryFileDataC2E18MemLabelIdentifierPvjb
fa:invoke_fff
Uyh:_Text_get_fontSize_m3105730761
aPj:b14
ixf:_TlsServerHello_Update_m1740270635
QZc:__ZN2UI6Canvas17MainThreadCleanupEv
rka:__ZN6prcoreL12RemapGenericI17TexFormatARGB155517TexFormatRGBA8888EEvPKNS_9InnerInfoE
Avh:_ScrollRect_Rebuild_m3423824761
W3e:_List_1_Find_m3862454845_gshared
DAc:__ZTv0_n12_N10ClipperLib7ClipperD1Ev
FXi:_U3CSpawnBombsU3Ec__Iterator0_MoveNext_m300922207
S7h:_MatchCollection_get_Item_m2609281578
psa:__ZN7ApiGLES13CreateProgramEv
_Ka:__ZN11HaloManager7AddHaloEv
yZf:_UTF8Encoding__ctor_m100325490
via:__ZN4crnd12crn_unpackerD2Ev
xyh:_StencilMaterial_ClearAll_m1372779118
fk:_emscripten_glTexImage2D
GNf:_ObjRefSurrogate_SetObjectData_m1873902916
zWc:_tt_driver_class_pic_init
l_:__ZN18ScriptingArguments9AddStringEPKc
uBj:_setup_header
MLj:runPostSets
zja:__ZL23stbir__resize_arbitraryPvPKviiiS_iiiffffPfiij14stbir_datatype12stbir_filterS4_10stbir_edgeS5_16stbir_colorspace
O$e:_List_1_System_Collections_IList_Insert_m848656350_gshared
rsb:__Z18Transfer_BlittableI24GenerateTypeTreeTransferLb1E8Vector4fEvRK29SerializationCommandArgumentsR31RuntimeSerializationCommandInfo
pGe:_Int16_ToString_m3971652088_AdjustorThunk
qk:_pthread_detach
y4i:__ZN6il2cpp2vm19SocketPollingThread7RunLoopEv
_Mf:_MethodDictionary_AllocInternalProperties_m3261295876
H6b:__ZN15DirectorManager20ScheduleGraphDestroyERK14HPlayableGraph
jBb:__ZNSt3__213__stable_sortIRN10vector_mapI17ScriptingClassPtrPKN5Unity4TypeENS_4lessIS2_EENS_9allocatorINS_4pairIS2_S6_EEEEE13value_compareENS_11__wrap_iterIPSB_EEEEvT0_SJ_T_NS_15iterator_traitsISJ_E15difference_typeEPNSM_10value_typeEi
Yeb:__ZN9ShaderLab25SerializedTextureProperty8TransferI24GenerateTypeTreeTransferEEvRT_
inf:_Comparison_1_Invoke_m2645957248_gshared
IWj:_emscripten_glIsShader__wrapper
Ufj:__ZN6il2cpp2gc19AppendOnlyGCHashMapINSt3__24pairIPK14Il2CppAssemblyP11Il2CppClassEEP24Il2CppReflectionAssembly17ReflectionMapHashIS9_ENS2_8equal_toIS9_EEEC2Ev
ESf:_DelegatePInvokeWrapper_CallbackHandler_t362827733
ptc:__Z18Transfer_BlittableI8JSONReadLb1EyEvRK29SerializationCommandArgumentsR31RuntimeSerializationCommandInfo
Nk:_emscripten_glMatrixMode
qs:__ZN8Animator23VirtualRedirectTransferER18StreamedBinaryReadILb0EE
gLe:_NotSupportedException__ctor_m836173213
qNf:_MethodReturnDictionary__ctor_m756139344
wR:__ZN11UnityEngine15CloudWebService14DataDispatcher16PrepareDataBlockERNS0_16SessionContainerE
Ssa:__ZN18GfxFramebufferGLES5ClearE13GfxClearFlagsRK10ColorRGBAffib
w8g:__Z52RuntimeInvoker_Single_t2076509932_Double_t4078015681PFvvEPK10MethodInfoPvPS4_
Ozb:__ZL26Transfer_SimpleNativeClassI18StreamedBinaryReadILb0EE10RectOffsetLb0EEvRK29SerializationCommandArgumentsR31RuntimeSerializationCommandInfo
_Oc:_UNITY_ft_destroy_default_module_classes
qZe:_List_1_CheckMatch_m1772343151_gshared
lMb:__ZL12DepthPassJobPN21GfxDeviceAsyncCommand10ArgScratchEPKNS_3ArgE
xdb:__ZNSt3__26vectorIN9ShaderLab20SerializedSubProgram16TextureParameterENS_9allocatorIS3_EEE6assignINS_11__wrap_iterIPS3_EEEENS_9enable_ifIXaasr21__is_forward_iteratorIT_EE5valuesr16is_constructibleIS3_NS_15iterator_traitsISC_E9referenceEEE5valueEvE4typeESC_SC_
Moc:__ZN5Unity9rapidjson6WriterI16TempBufferWriterNS0_4UTF8IcEES4_13JSONAllocatorE11WriteDoubleEd
GIe:_IntPtr_Equals_m1214967011_AdjustorThunk
O2e:_List_1_Add_m3591975577_gshared
Zna:__ZN14GfxDeviceStats16CopyAllDrawStatsERKS_
O0b:__Z13RegisterClassI19LowerResBlitTextureEvv
Rm:FUNCTION_TABLE_iiiiiiiiiiii
tAi:_GUIUtility_Internal_GetPixelsPerPoint_m1075452981
jKa:__ZN16GraphicsSettingsD0Ev
PTj:_pthread_mutex_init__wrapper
n:cttz_i8
IOc:_UNITY_FT_GlyphLoader_Add
xhi:_Display_FireDisplaysUpdated_m2197288612
AZd:_DateTimeFormatInfo_get_FullDateTimePattern_m2607507656
Ixf:_HttpsClientStream_RaiseServerCertificateValidation_m3356770426
Bti:_RectTransform_INTERNAL_set_anchorMin_m3893342226
Fne:_Array_swap_TisUIVertex_t1204258818_TisUIVertex_t1204258818_m1163375424_gshared
Kl:_emscripten_glViewport
v$b:__Z21GenerateTilingAreaJobP22GenerateTilingAreaInfoj
Kxj:__ZN6il2cpp6icalls8mscorlib6System15MonoCustomAttrs17IsDefinedInternalEP12Il2CppObjectP20Il2CppReflectionType
WMa:__ZN4Mesh21UnswizzleVertexColorsEb
Ngi:_StateChanged_BeginInvoke_m3311323480
R2d:_DateTime_ToString_m2276663647_AdjustorThunk
wWc:_cff_parse_font_bbox
e6a:__ZN14PlayerSettings23VirtualRedirectTransferER18StreamedBinaryReadILb0EE
Eae:_Array_get_swapper_TisCustomAttributeTypedArgument_t1498197914_m2780757375_gshared
zGj:__ZN6il2cpp2os5Event5ResetEv
mgf:_ReadOnlyCollection_1_System_Collections_IList_Insert_m1130110335_gshared
zHi:_AesManaged__ctor_m2322442838
Eqj:__ZN6il2cpp8metadata15GenericMetadata17InflateParametersEPK13ParameterInfohPK20Il2CppGenericContextb
VHe:_Int64_System_IConvertible_ToUInt32_m850395426_AdjustorThunk
hIa:__ZN6Camera13AwakeFromLoadE17AwakeFromLoadMode
Bed:_HMACSHA512__ctor_m2390736870
jy:__ZNK17AnimationPlayable27GetNextCompatibleDescendantEi
xSg:_TypeBuilder_GetInterfaces_m1818658502
HEb:__Z25SetNeedToPerformRenderingb
UYg:_MonoMethod_GetPseudoCustomAttributes_m466965107
FDa:__ZN10GameObjectD2Ev
AMb:__ZN14qsort_internal30FindAndMovePivotToLastPositionIP15RODataDepthPassi17ROSorterDepthPassEEvT_S4_T0_T1_
XBh:_Enumerator_System_Collections_IDictionaryEnumerator_get_Value_m3005608231_gshared
irh:_MaskUtilities_NotifyStencilStateChanged_m1527407683
qUb:__ZN12CullingGroup10SendEventsEPK17CullingGroupEventj
Bve:_DSAManaged_GenerateKeyPair_m2711647034
yXa:__ZThn32_NK8Renderer8GetLayerEv
Nhe:_Array_InternalArray__ICollection_Add_TisResourceCacheItem_t333236149_m1151081240_gshared
oQf:_SoapServices_GetXmlTypeForInteropType_m3821579913
HUj:_emscripten_glTexParameterfv__wrapper
Bmb:__Z18Transfer_BlittableI14SafeBinaryReadLb1E9BoundsIntEvRK29SerializationCommandArgumentsR31RuntimeSerializationCommandInfo
E8i:_il2cpp_method_get_param_count
mac:__ZN10systeminfo19ISOToSystemLanguageERN4core12basic_stringIcNS0_20StringStorageDefaultIcEEEE
Nej:__ZNK15dense_hashtableINSt3__24pairIK10KeyWrapperINS1_IPK12PropertyInfoP11Il2CppClassEEEjEES9_17ReflectionMapHashIS8_EN14dense_hash_mapIS9_jSD_NS9_14EqualsComparerINS0_8equal_toIS8_EEEENS0_9allocatorISB_EEE9SelectKeyESI_SK_E3endEv
LHc:__ZN11Rigidbody2D8TransferI19StreamedBinaryWriteILb0EEEEvRT_
XSc:_ps_dimension_done
Bwd:_LayoutRebuilder_MarkLayoutForRebuild_m640589351
EZc:__Z46Register_UnityEngine_TextGenerator_Dispose_cppv
hud:_PointerEventData_get_pressEventCamera_m724559964
pkd:_String_IndexOfUnchecked_m3356721554
oWa:__ZN16LightmapSettings8TransferI14SafeBinaryReadEEvRT_
N9:__ZN17BufferManagerGLES13ReleaseBufferEP14DataBufferGLES
mtc:__Z18Transfer_BlittableI8JSONReadLb1EjEvRK29SerializationCommandArgumentsR31RuntimeSerializationCommandInfo
Jni:_PKCS12_Decrypt_m1557069392
kzh:_VertexHelper_AddUIVertexQuad_m280792808
IEf:_WebHeaderCollection_ToString_m1246460752
wTh:_InternalEnumerator_1_System_Collections_IEnumerator_get_Current_m2842514953_AdjustorThunk
ip:stackSave
g8c:__ZN5Unity9rapidjson15GenericDocumentINS0_4UTF8IcEE13JSONAllocatorNS0_12CrtAllocatorEE6StringEPKcjb
oTc:_ps_dimension_end
Agc:__Z41Register_UnityEngine_Mesh_Internal_Createv
a3a:__ZN14SpriteRenderer23VirtualRedirectTransferER24GenerateTypeTreeTransfer
Cqj:__ZNK15dense_hashtableI10KeyWrapperIP18Il2CppGenericClassES3_N6il2cpp8metadata22Il2CppGenericClassHashEN14dense_hash_setIS3_S6_NS3_14EqualsComparerINS5_25Il2CppGenericClassCompareEEENSt3__29allocatorIS3_EEE8IdentityESA_SD_E12test_deletedERK30dense_hashtable_const_iteratorIS3_S3_S6_SF_SA_SD_E
lGc:__ZNSt3__27__sort3IRN18Overlap2DQueryBase29ColliderHitsByDepthComparitorEPP10Collider2DEEjT0_S7_S7_T_
TZi:__ZN6il2cpp2vm5Class14GetNestedTypesEP11Il2CppClassPPv
Red:_MACTripleDES_Initialize_m1318099802
Mqf:_MD5SHA1_VerifySignature_m507888141
vOd:_Byte_System_IConvertible_ToChar_m4188836679
kGe:_NumberFormatter_InitDecHexDigits_m2036076025
ACh:_Enumerator_get_CurrentKey_m3839846791_AdjustorThunk
SVb:__ZN6Camera9SetAspectEf
wa:invoke_viiffiii
zHg:__ZL79TouchInputModule_t2561058385_CustomAttributesCacheGenerator_m_ForceModuleActiveP21CustomAttributesCache
YVj:_emscripten_glBindVertexArray__wrapper
AJh:_Dictionary_2_InitArrays_m435313205_gshared
FEa:__ZN9Transform37InitializeTransformHierarchyRecursiveER18TransformHierarchyRii
c2b:__Z34DefaultPrepareDispatchBoundsUpdateR13RendererScene18MemLabelIdentifier
sCd:_Graphic_get_useLegacyMeshGeneration_m1366444625
Jsa:__ZN26SinglePassStereoSupportExt23SetupStereoMatrixParamsE21MonoOrStereoscopicEye24BuiltinShaderMatrixParamRK10Matrix4x4f
wJg:__ZL65InputField_t1631627530_CustomAttributesCacheGenerator_m_InputTypeP21CustomAttributesCache
Qte:_ModulusRing_Pow_m1137250399
BP:__Z46AudioListener_CUSTOM_GetNumExtensionPropertiesP12Il2CppObject
NGf:_X509Chain_Build_m2341271288
$La:__ZN17MeshRenderingData4InitEP4MeshS1_iP15SharedGfxBufferS3_
aVd:_Hashtable__cctor_m2952659675
OIf:_X509ChainStatus__ctor_m3628359961_AdjustorThunk
Lpb:__ZN15SerializeTraitsI13dynamic_arrayIN4math12int3_storageELj4EEE19ResizeSTLStyleArrayERS3_i
Gkd:_Evidence_get_HostEvidenceList_m2095478124
Yic:__Z57Register_UnityEngine_Transform_INTERNAL_set_localPositionv
Rtf:_Context_Clear_m4000337070
Ida:__ZN13GfxDeviceGLES26SetRandomWriteTargetBufferEi15ComputeBufferID
yLf:_IntervalCollection_Normalize_m538796191
ZHb:__ZZ23InitPlayerLoopCallbacksvEN49EarlyUpdateResetFrameStatsAfterPresentRegistrator7ForwardEv
AXd:_Console_SetEncodings_m342145566
jCd:_FontUpdateTracker_UntrackText_m3827316510
Rxi:_Vector2_get_sqrMagnitude_m593717298_AdjustorThunk
Ipe:_Array_InternalArray__get_Item_TisSingle_t2076509932_m1495809753_gshared
tQi:_Font_get_fontSize_m3125470578
X9b:__ZNK11ICallString6ToUTF8Ev
dbi:_CaptureAssertion_get_Alternate_m2729005740
zzj:_GC_number_stack_black_listed
BMb:__ZNSt3__211__sift_downIR17ROSorterDepthPassP15RODataDepthPassEEvT0_S5_T_NS_15iterator_traitsIS5_E15difference_typeES5_
lPg:_Default_SelectMethod_m3081239996
kRa:__ZN18UnityPropertySheet11UnityTexEnvC2Ev
qA:__ZN8Animator17ApplyOnAnimatorIKEiRNS_11AnimatorJobE
L2:__ZN12FileAccessor4ReadEyyPvPy
sQa:__ZN13dynamic_arrayI16ShaderKeywordSetLj4EE6insertEPS0_PKS0_S4_
$Mf:_MethodDictionary_IsOverridenKey_m3922224650
nWd:_SyncHashtable_Contains_m3042906549
bwc:__ZN11UnityEngine9Analytics18RenderingInfoEvent13SetFrameStatsERK13dynamic_arrayIjLj4EEjjj
E5e:_List_1_System_Collections_IList_set_Item_m4016273526_gshared
dJf:_X509KeyUsageExtension_CopyFrom_m931530012
sVb:__ZN13RenderTexture9SetHeightEi
Rt:__ZN7mecanim9animation17ClearMotionOutputEPNS0_18AnimationNodeStateE
Yqh:_LayoutUtility_U3CGetMinHeightU3Em__4_m1769295917
wAf:_SslStreamBase_Read_m1036897444
Ysh:_RectMask2D_PerformClipping_m1232012832
Qlj:__ZN6il2cpp6icalls8mscorlib6System2IO6MonoIO17GetFileAttributesEP12Il2CppStringPi
oDh:_Transform_1_Invoke_m4020530914_gshared
ERc:_tt_cmap8_char_index
L_:__Z24scripting_class_get_name17ScriptingClassPtr
t4:__ZN13RuntimeStaticI15GUIEventManagerLb0EE13StaticDestroyEPv
Xvj:__ZN6il2cpp2os6Thread15CurrentThreadIdEv
sob:__Z29Transfer_Blittable_ArrayFieldI14SafeBinaryReadjEvRT_R9ArrayInfoRK23StaticTransferFieldInfo
ACc:__ZN16CircleCollider2D13PrepareShapesER13dynamic_arrayIP7b2ShapeLj4EERK10Matrix4x4f
je:_emscripten_set_keydown_callback
LVd:_Enumerator_get_Value_m3684748062
uFa:__ZN19StreamedBinaryWriteILb0EE21TransferSTLStyleArrayINSt3__26vectorI17SortingLayerEntryNS2_9allocatorIS4_EEEEEEvRT_17TransferMetaFlags
M3f:_UInt32_Parse_m3371984903
T2:__ZN12FileAccessorC2Ev
V8h:_PatternLinkStack_GetCurrent_m2994645935
JIa:__ZN6Camera8TransferI19StreamedBinaryWriteILb0EEEEvRT_
Y6i:__ZN6il2cpp2vm7Runtime12GetConfigDirEv
bNf:_MethodDictionary_set_Item_m3475146889
Azh:_Toggle_PlayEffect_m3950629415
Ffe:_Array_IndexOf_TisRuntimeObject_m214763038_gshared
VCb:__Z39WriteQueueForTransferSignatureIntoCacheRK31TransferFunctionScriptingTraitsRK24TransferRequestSignature17ScriptingClassPtrR23CachedSerializationDataRb
H9a:__ZN13RenderManager18UpdateAllRenderersEv
Wli:_Mesh_Clear_m239607636
D5c:__ZN22BaseUnityConnectClient30OnEnteringStatePausedOrStoppedEv
$Ac:__ZN10ClipperLib7Clipper18SwapPositionsInAELEPNS_5TEdgeES2_
wej:__ZN15dense_hashtableINSt3__24pairIK10KeyWrapperINS1_IPK12PropertyInfoP11Il2CppClassEEEjEES9_17ReflectionMapHashIS8_EN14dense_hash_mapIS9_jSD_NS9_14EqualsComparerINS0_8equal_toIS8_EEEENS0_9allocatorISB_EEE9SelectKeyESI_SK_E12resize_deltaEjj
cu:__ZN7mecanim5human12HumanPoseAddERNS0_9HumanPoseERKS1_S4_
scf:_Collection_1_IsFixedSize_m218241296_gshared
jEa:__Z24MergeTransformComponentsR9TransformS0_b
LLi:_DelegatePInvokeWrapper_AudioConfigurationChangeHandler_t3743753033
QMe:_MonoIO_get_PathSeparator_m2635828107
ZRe:_MonoType_get_Name_m865859211
S9d:_CultureInfo__cctor_m2290268677
aod:_String_Trim_m3982520224
BPf:_RemotingConfiguration__cctor_m2129988840
Jaf:_Collection_1_Insert_m44548038_gshared
Mxj:__ZN6il2cpp2vm13ComObjectBase19GetRuntimeClassNameEPP15Il2CppHString__
Tj:_emscripten_glVertexAttribPointer
YLa:__ZNK20IntermediateRenderer12GetSceneMaskEv
I8a:__ZN14PreloadManager26UpdatePreloadingSingleStepENS_21UpdatePreloadingFlagsEi
lid:_SHA512Managed_Initialize_m891287980
_kd:_SecurityException__ctor_m1484114982
Spi:_X509Crl_GetHashName_m183504634
iLd:_Array_GetValue_m1507415734
ehc:__Z57Register_UnityEngine_RectTransform_INTERNAL_set_anchorMinv
uCe:_Object_MemberwiseClone_m2655589444
_ja:__ZN6prcoreL25inner_stretch_i8_bilinearEPKNS_9InnerInfoE
_ab:__ZL30RegisterFilteredObjectCallbackPP12Il2CppObjectiPv
aZg:_MonoMethod_get_IsGenericMethod_m4276550811
NDh:_Transform_1_BeginInvoke_m3826027984_gshared
SR:__ZN11UnityEngine15CloudWebService16SessionContainer24GetSessionHeaderJsonDataERKN4core12basic_stringIcNS2_20StringStorageDefaultIcEEEERNS2_13StringBuilderE
g_d:_Decimal_op_Implicit_m2149927308
g4:__ZN13RuntimeStaticI21AssetReferenceStorageLb0EE13StaticDestroyEPv
z3f:_UInt16_System_IConvertible_ToUInt32_m1864968312
ytj:__ZN6il2cpp6icalls8mscorlib6System9AppDomain22InternalGetProcessGuidEP12Il2CppString
iUc:_cf2_builder_moveTo
Zve:_KeyPairPersistence_get_UseMachineKeyStore_m560802076
wAh:_Enumerator_System_Collections_IDictionaryEnumerator_get_Entry_m345330700_AdjustorThunk
oAa:__ZNK17FileSystemHandler10IsReadOnlyERK13FileEntryData
Osb:__Z18Transfer_BlittableI24GenerateTypeTreeTransferLb1EjEvRK29SerializationCommandArgumentsR31RuntimeSerializationCommandInfo
jqf:_MD2Managed_Padding_m410163267
H1b:__ZNK28RectTransformPropertyBinding9BindValueER6ObjectRKN11UnityEngine9Animation14GenericBindingERNS3_10BoundCurveE
RLa:__ZN11ColorRGBA328TransferI14SafeBinaryReadEEvRT_
Of:_emscripten_glClearDepth
q5b:__ZNK8GUILayer22GetTypeVirtualInternalEv
LYa:__ZN14SafeBinaryRead21TransferSTLStyleArrayINSt3__26vectorIN15QualitySettings14QualitySettingENS1_9allocatorIS4_EEEEEEvRT_17TransferMetaFlags
IKe:_File_OpenText_m4058508963
F5a:__ZNSt3__26vectorINS_4pairIPKN5Unity4TypeE7Hash128EENS_9allocatorIS7_EEE8__appendEj
AQf:_WellKnownClientTypeEntry__ctor_m670594074
Pij:__ZN15dense_hashtableINSt3__24pairIK10KeyWrapperIP11Il2CppClassES4_EES5_N6il2cpp8metadata16SZArrayClassHashEN14dense_hash_mapIS5_S4_SA_NS5_14EqualsComparerINS9_19SZArrayClassCompareEEENS0_9allocatorIS7_EEE9SelectKeyESE_SG_EC2ERKSJ_j
y1d:_DateTime_System_IConvertible_ToSingle_m3927769066_AdjustorThunk
KVc:_cff_font_load
Qxf:_RecordProtocol_SendRecord_m2977889250
Vac:__Z13IsPathCreatedRKN4core12basic_stringIcNS_20StringStorageDefaultIcEEEE
Fja:__ZL22stbir__encode_scanlineP11stbir__infoiPvPfiii
r6g:__Z136RuntimeInvoker_Void_t1841601450_Byte_t3683104436_RuntimeObject_Int64U26_t763825331_ObjectU26_t597476745_SerializationInfoU26_t4051840202PFvvEPK10MethodInfoPvPS4_
NKc:__ZN20QuadTreeNodeRenderer13StaticDestroyEPv
OS:__ZN11UnityEngine15CloudWebService20WebRequestRestClient5AbortEv
RCi:_InvokableCall_1_Invoke_m2228071798_gshared
S1b:__ZN9Transform12CleanupClassEv
Y0g:__Z50RuntimeInvoker_Void_t1841601450_Double_t4078015681PFvvEPK10MethodInfoPvPS4_
kBi:_GUILayoutGroup_CalcWidth_m877887811
Ptf:_ClientContext_set_ClientHelloProtocol_m2246603449
Pvi:_Texture_Internal_GetHeight_m3235768354
dha:__ZNSt3__26vectorIN9GfxDevice14SubPassActionsENS_9allocatorIS2_EEE26__swap_out_circular_bufferERNS_14__split_bufferIS2_RS4_EE
EId:_U3CMouseDragOutsideRectU3Ec__Iterator1_MoveNext_m2845491958
meb:__ZNSt3__26vectorIN9ShaderLab19SerializedSubShaderENS_9allocatorIS2_EEE26__swap_out_circular_bufferERNS_14__split_bufferIS2_RS4_EE
Xz:__ZN11UnityEngine9Animation33SetGenericTransformPropertyValuesERKNS0_30AnimatorGenericBindingConstantERKN7mecanim10ValueArrayEP9Transformy
A2g:__Z116RuntimeInvoker_RuntimeObject_RuntimeObject_Int32_t2071877448_RuntimeObject_RuntimeObject_RuntimeObject_RuntimeObjectPFvvEPK10MethodInfoPvPS4_
RXi:_AnalyticsTracker_TriggerEvent_m1494303835
svd:_StandaloneInputModule_IsModuleSupported_m623598506
Tjj:__ZN6il2cpp2vmL24thread_cleanup_on_cancelEPv
uUf:_SByte_ToString_m4105923225_AdjustorThunk
W9d:_CultureInfo_ConstructCurrentUICulture_m3363349599
y5f:_UInt64_CompareTo_m2422461804_AdjustorThunk
YLg:__ZL75CanvasScaler_t2574720772_CustomAttributesCacheGenerator_m_FallbackScreenDPIP21CustomAttributesCache
wRe:_MonoType_GetEvent_m4160342003
Ish:_RawImage_set_texture_m2400157626
ZJi:_PrimeHelper_ToPrime_m1606935350_gshared
mMa:__Z30ProcessDynamicBatchGeometryJobP25DynamicVBOGeometryJobDataj
Bkh:__Z59RuntimeInvoker_Boolean_t3825574718_RaycastHit2D_t4063908774PFvvEPK10MethodInfoPvPS4_
XMb:__ZNSt3__27__sort4IRNS_6__lessI11CulledLightS2_EEPS2_EEjT0_S6_S6_S6_T_
Y9i:__ZN6il2cpp2vm14TypeNameParser26ParseArrayModifierOptionalEv
kre:_MSCompatUnicodeTable_Level3_m260824928
a0:__Z26scripting_object_get_class18ScriptingObjectPtr
m8a:__ZNSt3__26vectorIN4core12basic_stringIcNS1_20StringStorageDefaultIcEEEE13stl_allocatorIS5_L18MemLabelIdentifier13ELi16EEE7reserveEj
rUi:_RectTransformUtility_GetTransposed_m1233793627
q1b:__ZNK28MonoBehaviourPropertyBinding15GenerateBindingERKN4core12basic_stringIcNS0_20StringStorageDefaultIcEEEEbRN11UnityEngine9Animation14GenericBindingE
cFe:_Int32_FindExponent_m3187554672
jwe:_KeyPairPersistence_Load_m1355205585
mHe:_Int32_ToString_m2960866144_AdjustorThunk
CSi:_Predicate_1_Invoke_m3539717340_gshared
Vmd:_Single_CompareTo_m2081476257_AdjustorThunk
iLi:_AudioExtensionManager_AddSpatializerExtension_m1881494443
Wuj:__ZN6il2cpp6icalls8mscorlib6System11Environment15internalGetHomeEv
mOj:dynCall_iiiiiiffiiiiiiiiiffffiiii
Oua:__ZNK5Unity9Component7GetNameEv
nSf:__ZN21InterfaceFuncInvoker4IP12Il2CppObjectS1_P28SerializationInfo_t22898743028StreamingContext_t1417235061S1_E6InvokeEjP11Il2CppClassS1_S1_S3_S4_S1_
RGi:_ObjectPool_1_Get_m3724675538_gshared
myc:__ZNK11b2RopeJoint16GetReactionForceEf
jB:__ZN7mecanim8skeleton26SkeletonPoseComputeGlobalQEPKNS0_8SkeletonEPKNS0_13SkeletonPoseTIN4math4trsXEEEPS7_ii
C8c:__ZN18UnityConnectClient19RegisterVRCallbacksEv
j0e:_List_1_GetEnumerator_m2672519407_gshared
A_b:__ZN10BootConfig4Data3SetEPKcjS2_j
LA:__ZN9BlobWrite8TransferI22OffsetPtrArrayTransferIiEEEvRT_PKc17TransferMetaFlags
G6g:__Z82RuntimeInvoker_Boolean_t3825574718_SByte_t454417549_RuntimeObject_SByte_t454417549PFvvEPK10MethodInfoPvPS4_
Wqe:_ContractionComparer_Compare_m314873025
EHe:_Int64_System_IConvertible_ToDouble_m638786774
PJ:__ZN4FMOD6System7releaseEv
o2:__Z18PathToAbsolutePathRKN4core12basic_stringIcNS_20StringStorageDefaultIcEEEE
FUe:_Enumerator_MoveNext_m3078170540_AdjustorThunk
h4c:__ZN21UnityAnalyticsManager15ThreadedCleanupEv
QCj:__ZN6il2cpp6icalls8mscorlib6System10Reflection16MonoPropertyInfo16GetTypeModifiersEPvb
rHi:_Action_Invoke_m3801112262
i1g:__Z79RuntimeInvoker_Decimal_t724701077_RuntimeObject_Int32_t2071877448_RuntimeObjectPFvvEPK10MethodInfoPvPS4_
hja:__ZL13BlitImageImplR14ImageReferenceiiRKS_NS_10ColorSpaceENS_8BlitModeEb
J6b:__ZN15DirectorManager17AcquireOutputNodeEv
y0g:__Z64RuntimeInvoker_RuntimeObject_Int16_t4041245914_Int16_t4041245914PFvvEPK10MethodInfoPvPS4_
Ira:__ZN16GeometryJobTasks20ScheduleGeometryJobsER9GfxDevicePFvP15GeometryJobDataEPK22GeometryJobInstructionjb
VH:__ZN12AudioManager29ShutdownReinitializeAndReloadEv
tni:_NetscapeCertTypeExtension_Decode_m2210025005
JQf:_BaseFixupRecord_DoFixup_m1821597450
UYi:__ZN15dense_hashtableINSt3__24pairIK10KeyWrapperIPK22Il2CppGenericParameterEP11Il2CppClassEES6_N6il2cpp5utils11PointerHashIS4_EEN14dense_hash_mapIS6_S9_SE_NS6_14EqualsComparerINS0_8equal_toIS5_EEEENS0_9allocatorISA_EEE9SelectKeyESJ_SL_E6insertERKSA_
MKe:_FileLoadException__ctor_m1356374414
BDi:_InvokableCall_4_Invoke_m1140294390_gshared
awi:_Time_set_timeScale_m2966928564
Aga:__ZN14DataBufferGLES16RecreateWithDataEjPKv
jva:__Z29GetGlobalAllowNameConversionsv
$Wb:__ZN8Material8SetColorEN9ShaderLab16FastPropertyNameERK10ColorRGBAf
pXg:_Module_GetCustomAttributes_m3581287913
EL:__ZN11AudioSource23VirtualRedirectTransferER18StreamedBinaryReadILb0EE
j4:__ZN21AssetReferenceStorageC2Ev
P_:__ZL41AssemblyNameMatchesWithOrWithoutExtensionPKcS0_
Vwc:__ZN23ColliderTilingExtension5ResetEv
Eoa:__ZN14GfxContextGLES43AddRenderSurfaceToDeferredFBOInvalidateListEPK17RenderSurfaceGLES
tlj:__ZN6il2cpp6icalls8mscorlib6System9Threading6Thread15Thread_internalEP12Il2CppThreadP14Il2CppDelegate
kxa:__ZN11NamedObject23VirtualRedirectTransferER14SafeBinaryRead
oLi:_AudioListener_GetNumExtensionProperties_m2652400521
YNc:__ZNSt3__26vectorIN20TextRenderingPrivate8FontImpl13CharacterInfoE13stl_allocatorIS3_L18MemLabelIdentifier1ELi16EEE6insertENS_11__wrap_iterIPKS3_EERS9_
eya:__ZN23PreloadManagerOperation6IsDoneEv
f7i:__ZN6il2cpp2vm7Runtime15InvokeWithThrowEPK10MethodInfoPvPS5_
Qze:_X509Certificate_get_RawData_m3000055075
z7b:__Z33GetHasChangedDeprecatedSystemMaskv
qDc:__ZN10Effector2D10EndContactEP9b2Contact
mxj:__ZN6il2cpp5utils11StringUtils11Utf16ToUtf8ERKNSt3__212basic_stringIDsNS2_11char_traitsIDsEENS2_9allocatorIDsEEEE
HBh:_Enumerator_VerifyState_m1165543189_AdjustorThunk
k2d:_DateTime_AddSeconds_m722082155_AdjustorThunk
cTd:_SynchronizedArrayListWrapper_CopyTo_m956887031
fab:__ZN21LightProbeProxyVolume18HasHardwareSupportEv
PTi:_CanvasRenderer_set_materialCount_m1703953120
yFc:__ZNK20b2SeparationFunction17FindMinSeparationEPiS0_f
Vja:__ZN6prcoreL31inner_stretch_argb8888_bilinearEPKNS_9InnerInfoE
Owb:__Z18Transfer_BlittableI18StreamedBinaryReadILb1EELb1E8BitFieldEvRK29SerializationCommandArgumentsR31RuntimeSerializationCommandInfo
TPc:_UNITY_FT_Outline_Decompose
$vf:_TlsClientCertificate_get_ClientCertificate_m3062440489
wkd:_StrongNamePublicKeyBlob_ToString_m3721281223
LBj:_GC_init_size_map
OSh:_InternalEnumerator_1_get_Current_m198513457_AdjustorThunk
pJa:__Z20scripting_object_new17ScriptingClassPtr
$Ce:_TextInfo__ctor_m2782608694
G6e:_Queue_1_System_Collections_ICollection_CopyTo_m772787461_gshared
iDe:_TextInfo_ToUpper_m299550697
yrc:__ZN9JSONWrite8TransferI13dynamic_arrayI8BitFieldLj4EEEEvRT_PKc17TransferMetaFlags
yCd:_Graphic_OnRectTransformDimensionsChange_m1610753363
d0d:_Convert_ToUInt16_m3265369225
P:Math_exp
bRe:_MonoEnumInfo_get_Cache_m3551569711
Ko:FUNCTION_TABLE_iiifi
mtj:__ZN6il2cpp2os5posix13PosixAutoLockD2Ev
Rbe:_Array_InternalArray__ICollection_Contains_TisVector3_t2243707580_m3625701788_gshared
wIc:__ZN13BoxCollider2D15InitializeClassEv
mHc:__GLOBAL__sub_I_modules_physics2d_public_0_cpp
YTc:_cff_get_advances
qCb:__ZN13MonoBehaviour9SetScriptERK4PPtrI10MonoScriptE18ScriptingObjectPtr
Hbe:_Array_InternalArray__ICollection_Contains_TisPlayableBinding_t2498078091_m4267109606_gshared
vIc:__ZN13ProduceHelperI13BoxCollider2DLb0EE7ProduceE18MemLabelIdentifier18ObjectCreationMode
zPc:_UNITY_FT_Create_Class_sfnt_module_class
T4d:_Decimal_IsZero_m3557909184_AdjustorThunk
JQd:_Char_ToString_m1401375624
Zed:_MD5CryptoServiceProvider__cctor_m3309191799
QCa:__ZNK10FileSystem16LastErrorMessageEv
skc:__ZN13ProduceHelperI18CrashReportManagerLb0EE7ProduceE18MemLabelIdentifier18ObjectCreationMode
Leh:__Z74RuntimeInvoker_Vector2_t2243707579_Vector2_t2243707579_Vector2_t2243707579PFvvEPK10MethodInfoPvPS4_
fWe:_Enumerator_System_Collections_IEnumerator_Reset_m3052395060_gshared
sof:_Kernel_DwordDivMod_m3728402123
HBb:__ZN13MonoBehaviour13AwakeFromLoadE17AwakeFromLoadMode
Vqb:__ZL26Transfer_SimpleNativeClassI17RemapPPtrTransfer8GradientLb1EEvRK29SerializationCommandArgumentsR31RuntimeSerializationCommandInfo
N7b:__ZN12CachedWriter9InitWriteER15CacheWriterBase
D6b:__Z21UnsignedInt64ToStringy
rZf:_UTF7Decoder__ctor_m549434986
wZh:_InternalEnumerator_1_get_Current_m1025321669_AdjustorThunk
hjc:__Z66Register_UnityEngine_Transform_INTERNAL_CALL_InverseTransformPointv
G6:__ZZN15DirectorManager15InitializeClassEvEN41FixedUpdateDirectorFixedUpdateRegistrator7ForwardEv
$pi:_X509Crl_VerifySignature_m1390212587
QJf:_Group__ctor_m4103922028
HVj:_glLinkProgram__wrapper
Rib:__ZN18ScriptingArguments8AddInt64Ex
Dka:__ZN6prcoreL12RemapGenericI17TexFormatARGB888815TexFormatBGR888EEvPKNS_9InnerInfoE
wjb:__ZN12HandlerChain4LockER13FileEntryData12FileLockMode
dfd:_MD5CryptoServiceProvider_ProcessFinalBlock_m1052610785
sTd:_BitArray_Set_m2878881714
F9c:__ZN28UnityConnectScriptingClasses23CallSessionStateChangedEixxbP21ScriptingExceptionPtr
MDe:_Guid_CompareTo_m2203922782_AdjustorThunk
Dwh:_Selectable_get_colors_m3501193396
Qoj:__ZN6il2cpp6icalls8mscorlib6System13Globalization11CultureInfo35construct_internal_locale_from_nameEP17Il2CppCultureInfoP12Il2CppString
btb:__ZL22Transfer_ManagedObjectI24GenerateTypeTreeTransferLb1EEvRK29SerializationCommandArgumentsR31RuntimeSerializationCommandInfo
i6h:_ContextAttribute_Equals_m53324298
$j:_emscripten_set_main_loop_timing
nfi:_Camera_ScreenToViewportPoint_m3458250415
I6f:_WeakReference_AllocateHandle_m1783929473
vga:__ZN14DataBufferGLES12RecordRenderEv
Gme:_Array_Sort_TisRuntimeObject_m3674422195_gshared
GWb:__ZN14ImageReference10FlipImageYEv
rmc:__Z14GetDefaultSkini
hF:__ZN4FMOD3DSP9setBypassEb
c_b:__Z19NormalizeWheelInputf
Zbe:_Array_InternalArray__ICollection_Remove_TisLink_t865133271_m1984184141_gshared
nvc:__Z29Transfer_Blittable_ArrayFieldI8JSONReadhEvRT_R9ArrayInfoRK23StaticTransferFieldInfo
OJd:_LayoutRebuilder_IsDestroyed_m3442208294
iBh:_Enumerator_VerifyState_m1547102902_AdjustorThunk
hGj:__ZN6il2cpp2os20ThreadLocalValueImpl8SetValueEPv
SJa:__ZN22RenderingCommandBuffer20CleanupCommandBufferEv
T6g:__Z165RuntimeInvoker_Void_t1841601450_UInt32U26_t2197289955_Int32_t2071877448_UInt32U26_t2197289955_Int32_t2071877448_Int32_t2071877448_Int32_t2071877448_Int32_t2071877448PFvvEPK10MethodInfoPvPS4_
cqc:__Z18Transfer_BlittableI9JSONWriteLb1EtEvRK29SerializationCommandArgumentsR31RuntimeSerializationCommandInfo
NKe:_FileLoadException__ctor_m918124939
sk:___syscall85
g9:__ZN15dense_hashtableINSt3__24pairIKN4core12basic_stringIcNS2_20StringStorageDefaultIcEEEE13dynamic_arrayI4PPtrI6SpriteELj4EEEES6_20StringHash32FunctionIS6_EN14dense_hash_mapIS6_SC_SF_NS0_8equal_toIS6_EE13stl_allocatorISD_L18MemLabelIdentifier81ELi16EEE9SelectKeyESI_SL_E5clearEv
GKb:__ZNSt3__26__sortIRPFbP10GUIElementS2_EPS2_EEvT0_S7_T_
$of:_SequentialSearchPrimeGeneratorBase_GenerateSearchBase_m2930465198
w5b:__ZN16GraphicsSettings12CleanupClassEv
Yvj:__ZN6il2cpp2os6Thread19DetachCurrentThreadEv
nZi:__ZN6il2cpp2vmL21SetupInterfacesLockedEP11Il2CppClassRKNS_2os12FastAutoLockE
Hlb:__ZN11MonoManager23VirtualRedirectTransferER24GenerateTypeTreeTransfer
Uy:__ZN23AnimationPlayableOutput17SetSourcePlayableEP8Playable
qJf:_Capture__ctor_m885749277
FFd:_SubmitEvent__ctor_m222860306
OR:__ZN11UnityEngine15CloudWebService14DataDispatcher15SetupWebRequestEv
VOe:_TextWriter__cctor_m4047845042
K6c:__ZN11UnityEngine15PlatformWrapper13GetShaderCapsEv
Imi:_Object_ToString_m2938729670
nSb:__ZNSt3__211__sift_downIR26RenderDeferredObjectSorterP16RenderObjectDataEEvT0_S5_T_NS_15iterator_traitsIS5_E15difference_typeES5_
ZFd:_InputField_CaretBlink_m3960486606
ck:_emscripten_glGetProgramiv
Jwe:_SmallXmlParser_ReadCharacters_m1966365555
Wzf:_InternalAsyncResult_get_CompletedWithError_m3993955322
e6b:__ZN21FixedBehaviourManager6UpdateEv
Eac:__ZN9Transform9SetParentEPS_NS_15SetParentOptionE
LDd:_GridLayoutGroup_set_startCorner_m1660251450
EHa:__ZN19ShaderPropertySheet8SetFloatEN9ShaderLab16FastPropertyNameEfNS_8SetFlagsE
xJg:__ZL68InputField_t1631627530_CustomAttributesCacheGenerator_m_AsteriskCharP21CustomAttributesCache
W8a:__ZN19RuntimeSceneManager24BeginIntegrateMainThreadEP10UnityScene
Auj:__ZNSt3__2plIcNS_11char_traitsIcEENS_9allocatorIcEEEENS_12basic_stringIT_T0_T1_EERKS9_S6_
MPe:_LocalDataStoreSlot__cctor_m1192669356
Rdb:__ZN9ShaderLab20SerializedSubProgramaSERKS0_
dMj:_roundf
tpd:_String_CreateString_m2556700934
sFa:__ZN18StreamedBinaryReadILb0EE21TransferSTLStyleArrayINSt3__26vectorI17SortingLayerEntryNS2_9allocatorIS4_EEEEEEvRT_17TransferMetaFlags
ys:__ZN8Animator15SetPrepareStageEv
Yxh:_Slider_get_axis_m162140813
oZi:__ZN6il2cpp2vmL24SetupTypeHierarchyLockedEP11Il2CppClassRKNS_2os12FastAutoLockE
k_b:__ZL11TextHandleriPK23EmscriptenKeyboardEventPv
GPb:__Z20CalculateLightMatrixRK15SharedLightDataP10Matrix4x4f
uwh:_ScrollRect_SetLayoutHorizontal_m3486408020
wNc:_destroy_face
uki:_Material_SetIntImpl_m1039479734
RAh:_Enumerator_VerifyState_m1547102902_gshared
fDj:__ZN6il2cpp6icalls8mscorlib6System8Security12Cryptography24RNGCryptoServiceProvider13RngInitializeEP11Il2CppArray
B9g:__Z99RuntimeInvoker_Void_t1841601450_Int32_t2071877448_Int16_t4041245914_Int16_t4041245914_RuntimeObjectPFvvEPK10MethodInfoPvPS4_
ADf:_IPAddress__cctor_m3624830012
NL:__ZN20SoundChannelInstance7setMuteEb
kFf:_AsnEncodedData_EnhancedKeyUsageExtension_m1452131166
Nxb:__Z19TransferField_ArrayI18StreamedBinaryReadILb1EE27Converter_SimpleNativeClassI17AnimationCurveTplIfEEEvRK23StaticTransferFieldInfoR31RuntimeSerializationCommandInfoRT0_
$ui:_SendMouseEvents__cctor_m1448404407
_Ic:__ZN7b2World18SetContactListenerEP17b2ContactListener
NFc:__ZN14PhysicsQuery2D11LinecastAllERK8Vector2fS2_RKN10Collider2D13ContactFilterEPKS3_bP13dynamic_arrayI12RaycastHit2DLj4EE
jha:__ZN18GfxFramebufferGLES22MakeCurrentFramebufferENS_7BuiltinE
wKf:_Interpreter_Close_m1500459069
wk:_JS_SystemInfo_GetWidth
jDa:__ZN12CachedReader4ReadEPvj
rUc:_cf2_blues_init
SSh:_InternalEnumerator_1_System_Collections_IEnumerator_get_Current_m3600601141_gshared
Bhd:_SHA1Internal_HashFinal_m3188468925
XOb:__Z24CalculateLightShadowFadeRK6CamerafffR8Vector4f
V_:__ZN19RuntimeSceneManagerD2Ev
V3h:_ChannelData_get_CustomProperties_m1470957369
Sne:_Dictionary_2_Do_ICollectionCopyTo_TisRuntimeObject_m545661084_gshared
cT:__ZN11UnityEngine15CloudWebService25WebRequestDownloadHandler17OnCompleteContentEv
Uja:__ZN6prcore17GetIntegerBlitterE13TextureFormatS0_N14ImageReference8BlitModeE
uwc:__ZN13BoxCollider2DD0Ev
Ldj:__ZN6il2cpp2gc19AppendOnlyGCHashMapINSt3__24pairIPK11Il2CppImageP11Il2CppClassEEP22Il2CppReflectionModule17ReflectionMapHashIS9_ENS2_8equal_toIS9_EEE11TryGetValueERKS9_PSB_
eCh:_Enumerator_VerifyState_m3173176371_AdjustorThunk
ICf:_TypeConverterAttribute__cctor_m506796812
Jcc:__ZN9BlobWrite14ReduceCopyImplERK14ReduceCopyDataj
zY:__ZNSt3__26__treeI19RepeatingLogMessageNS_4lessIS1_EE13stl_allocatorIS1_L18MemLabelIdentifier73ELi16EEE12__find_equalIS1_EERPNS_16__tree_node_baseIPvEESD_RKT_
qP:__ZN11AudioSource18IsPlayingScriptingEv
V$h:_Comparer_1_System_Collections_IComparer_Compare_m1790257529_gshared
Tyc:__ZNK12b2WheelJoint10GetAnchorAEv
KQj:_glShaderSource__wrapper
rBa:__ZN25MultiBlocksMemoryFileData17AdjustBlocksCountEj
dlj:__ZNSt3__214__split_bufferIN6il2cpp2vm22EmbeddedResourceRecordERNS_9allocatorIS3_EEED2Ev
Wtf:_TlsClientHello__ctor_m1699671541
CLc:__ZN13TextRendering4Font8TransferI24GenerateTypeTreeTransferEEvRT_
D5h:_Context_NotifyGlobalDynamicSinks_m2916447645
Zdc:__Z27CullingGroup_CUSTOM_DisposeP12Il2CppObject
lad:__ZNSt3__26vectorIP19BaseConnectSettings13stl_allocatorIS2_L18MemLabelIdentifier6ELi16EEE21__push_back_slow_pathIKS2_EEvRT_
QJb:__ZN13ComputeShader15SetTextureParamEjRKN9ShaderLab16FastPropertyNameE9TextureID16TextureDimension
nxh:_Shadow_set_effectDistance_m1951993364
IJh:_Dictionary_2_ContainsKey_m416495915_gshared
Cm:_glStencilMask
cuj:__ZN6il2cpp2os10ThreadImpl16GetCurrentThreadEv
Iuf:_TlsServerHelloDone__ctor_m2125611008
YUd:_Hashtable__ctor_m2337481811
LBh:_Enumerator_System_Collections_IEnumerator_get_Current_m2010873149_gshared
xLg:__ZL74SpriteState_t1353336012_CustomAttributesCacheGenerator_m_HighlightedSpriteP21CustomAttributesCache
iPf:_RealProxy__ctor_m2505535530
MAj:_GC_push_conditional_with_exclusions
w4f:_UInt32_System_IConvertible_ToUInt16_m2798641702_AdjustorThunk
gRf:_BinaryFormatter_get_DefaultSurrogateSelector_m219714691
KB:__ZN12_GLOBAL__N_121ProcessAnimationBeginER35AnimationPlayableEvaluationConstantR32AnimationPlayableEvaluationInputR33AnimationPlayableEvaluationOutput
p3g:__Z136RuntimeInvoker_Void_t1841601450_Int32_t2071877448_RuntimeObject_RuntimeObject_RuntimeObject_RuntimeObject_RuntimeObject_SByte_t454417549PFvvEPK10MethodInfoPvPS4_
xqf:_MD4Managed_Encode_m2097839378
FZg:_MonoProperty_GetOptionalCustomModifiers_m3827844355
gJj:_strrchr
Sre:_SimpleCollator_GetSortKey_m2188419329
pMg:__ZL56LayoutElement_t2808691390_CustomAttributesCacheGeneratorP21CustomAttributesCache
Sgc:__Z33Register_UnityEngine_Random_Rangev
nOa:__ZN14RenderSettings27UpdateIndirectSpecularColorEv
D6a:__ZN14PlayerSettings8TransferI18StreamedBinaryReadILb0EEEEvRT_
$5i:__ZN6il2cpp6icalls8mscorlib6System8MonoType16GetMethodsByNameEP20Il2CppReflectionTypeP12Il2CppStringibS5_
hki:_Logger_Log_m302200299
F2h:_GCHandle__ctor_m2952050298
mrh:_Mask_IsRaycastLocationValid_m62488857
rGb:__ZNSt3__27__sort3IRNS_4lessIN22BuiltinResourceManager8ResourceEEEPS3_EEjT0_S7_S7_T_
j$h:_DefaultComparer_Compare_m3472472212_gshared
jLe:_MonoIO_GetLength_m2812344043
dTc:_ps_hints_t2mask
iij:__ZN14dense_hash_mapI10KeyWrapperINSt3__24pairIP11Il2CppClassjEEES4_N6il2cpp8metadata14ArrayClassHashENS6_14EqualsComparerINS8_17ArrayClassCompareEEENS1_9allocatorINS2_IKS6_S4_EEEEEC2EjRKS9_RKSC_
U1a:__ZN10BlendShape8TransferI19StreamedBinaryWriteILb0EEEEvRT_
EIe:__Z21il2cpp_codegen_sizeofP11Il2CppClass
aoa:__Z19GetTimeSinceStartupv
bmd:_SecurityFrame_get_Assembly_m2816566490
NTi:_CanvasRenderer_set_hasPopInstruction_m3302400555
hYc:_TT_Load_Composite_Glyph
JLd:_Array_Sort_m2994254654
o5e:_List_1__ctor_m593058937_gshared
oNb:__ZN29RenderNodeQueuePrepareContextC2Ev
pO:__ZN10SampleClipC2E18MemLabelIdentifier18ObjectCreationMode
Teb:__ZN9ShaderLab20SerializedSubProgram16TextureParameter8TransferI24GenerateTypeTreeTransferEEvRT_
Baa:__ZN9GfxDevice19SaveStereoConstantsEv
EDj:__ZN6il2cpp2os11MutexHandle4WaitEj
ybc:__ZL34GetComponentsImplementationRecurseILb1ELi1ELi1EEbR10GameObjectbRK17CompareParametersRK39GetComponentsImplementation_ReturnValue
DDj:__ZN6il2cpp2os11MutexHandle4WaitEv
cRd:_ArrayList_set_Capacity_m592558035
Nla:__ZN6prcoreL17RemapGenericFloatI15TexFormatRGHalf18TexFormatARGBFloatEEvPKNS_9InnerInfoE
WEb:__Z18SimulateMouseInputi
iJb:__ZN13RenderManager23AddRemoveCamerasDelayedEv
hrc:__ZN9JSONWrite8TransferI13dynamic_arrayIdLj8EEEEvRT_PKc17TransferMetaFlags
Rfi:_Color_op_Multiply_m2110750533
sce:_Array_InternalArray__ICollection_Remove_TisILTokenInfo_t149559338_m1523907845_gshared
m4c:__ZN11UnityEngine9Analytics15AnalyticsConfigC2Ev
LJi:_Enumerator_CheckState_m1761755727_gshared
pVd:_Hashtable_Rehash_m2877670513
rVb:__ZN13RenderTexture8SetWidthEi
XHd:_InputField_Insert_m1593238693
HOc:_UNITY_FT_GlyphLoader_CheckSubGlyphs
J4i:__ZN6il2cpp2vm21ThreadPoolCompartment20SpawnNewWorkerThreadEv
Ghe:_Array_InternalArray__ICollection_Add_TisCustomAttributeTypedArgument_t1498197914_m3260005285_gshared
APb:__Z25SetupObjectBakedOcclusionbRK15SharedLightDataRK26SharedLightmapSettingsDataRK15LightmapIndicesR17ShaderPassContext
PDe:_Guid_GetHashCode_m1401300871
KY:__ZN9ShaderLab16FastPropertyName4InitEPKc
K0b:__Z13RegisterClassIN2UI13RectTransformEEvv
ore:_MSCompatUnicodeTable_ToWidthCompat_m2299599532
LSe:_NumberFormatter_get_IsFloatingSource_m2830957202
P4b:__ZL31MeshRendererTransformChangedJobP13BoundsJobDatajPK23TransformAccessReadOnlyPKyj
q6c:__ZN11UnityEngine15PlatformWrapper19GetPhysicalMemoryMBEv
ZOa:__ZN13RenderTexture9SetMipMapEb
uvh:_ScrollRect_set_verticalScrollbarSpacing_m2356851539
o6:__Z18GetDirectorManagerv
Gic:__Z38Transform_CUSTOM_INTERNAL_get_rotationP12Il2CppObjectP11Quaternionf
Gaj:__ZNSt3__26vectorIN6il2cpp2vm17TypeNameParseInfoENS_9allocatorIS3_EEE8allocateEj
Adj:__ZNK15dense_hashtableINSt3__24pairIK10KeyWrapperINS1_IPK10MethodInfoP11Il2CppClassEEEjEES9_17ReflectionMapHashIS8_EN14dense_hash_mapIS9_jSD_NS9_14EqualsComparerINS0_8equal_toIS8_EEEENS0_9allocatorISB_EEE9SelectKeyESI_SK_E5beginEv
Sma:__ZN7ApiGLES19UploadBufferSubDataEjN2gl12BufferTargetEllPKv
U8:__ZNSt3__216__rotate_forwardINS_11__wrap_iterIPN4core12basic_stringIcNS2_20StringStorageDefaultIcEEEEEEEET_S9_S9_S9_
And:_String_System_IConvertible_ToInt32_m1927223638
Hpd:_ASCIIEncoding__ctor_m4127831672
ggi:_GameObject_GetComponent_m724360550
ATi:_CanvasGroup_get_alpha_m4171392097
Ynb:__Z19TransferField_ArrayI14SafeBinaryRead27Converter_SimpleNativeClassI8GUIStyleEEvRK23StaticTransferFieldInfoR31RuntimeSerializationCommandInfoRT0_
G9g:__Z63RuntimeInvoker_Void_t1841601450_RuntimeObject_Int16_t4041245914PFvvEPK10MethodInfoPvPS4_
rXf:_UTF8Encoding__ctor_m3336862259
sDj:__ZN6il2cpp5utils10MemoryPoolC2Ej
FHf:_X509Chain_GetAuthorityKeyIdentifier_m2607407678
oDj:__ZN6il2cpp5utils10MemoryPoolC2Ev
LNa:__ZN14RenderSettings5ResetEv
q$b:__ZN6Sprite9BindAtlasERK4PPtrI11SpriteAtlasE
Unc:__ZN5Unity9rapidjson12GenericValueINS0_4UTF8IcEE13JSONAllocatorE10FindMemberIS4_EENS0_21GenericMemberIteratorILb0ES3_S4_EERKNS1_IS3_T_EE
qmj:__ZNSt3__212basic_stringIDsNS_11char_traitsIDsEENS_9allocatorIDsEEE6appendEPKDsj
toc:__ZN5Unity9rapidjson13GenericReaderINS0_4UTF8IcEES3_13JSONAllocatorE11ParseNumberILj1ENS0_25GenericInsituStringStreamIS3_EENS0_15GenericDocumentIS3_S4_S4_EEEEvRT0_RT1_
e3a:__ZN14SpriteRenderer14OnChangeSpriteEv
joe:_Dictionary_2_Do_ICollectionCopyTo_TisKeyValuePair_2_t3716250094_m1740410536_gshared
Otj:__ZN6il2cpp2os10ThreadImplD2Ev
Pxe:_RSAManaged_Dispose_m3018788098
Tzc:__ZN12b2MouseJoint23InitVelocityConstraintsERK12b2SolverData
kpc:__ZN8Gradient8TransferI9JSONWriteEEvRT_
Lxa:__ZNK12TLSAllocatorI14StackAllocatorE22GetAllocatedMemorySizeEv
zeg:__ZL54AssemblyName_t894705941_CustomAttributesCacheGeneratorP21CustomAttributesCache
q0d:_Convert_ToUInt32_m3394039268
Dva:__ZN17RemapPPtrTransfer12PushMetaFlagE17TransferMetaFlags
hjb:__ZN12HandlerChain4NameEv
Jpb:__Z29Transfer_Blittable_ArrayFieldI14SafeBinaryReadN4math12int3_storageEEvRT_R9ArrayInfoRK23StaticTransferFieldInfo
R4a:__ZNSt3__26vectorI9InputAxisNS_9allocatorIS1_EEE10deallocateEv
NEe:_Int16_Equals_m3925135434_AdjustorThunk
C2c:__Z44Register_UnityEngine_CanvasRenderer_get_cullv
ecg:__ZL60IHashCodeProvider_t1980576455_CustomAttributesCacheGeneratorP21CustomAttributesCache
f1b:__ZN13ProduceHelperI13MonoBehaviourLb0EE7ProduceE18MemLabelIdentifier18ObjectCreationMode
vVe:_Enumerator_VerifyState_m1677639504_AdjustorThunk
etf:_CipherSuiteCollection_get_Item_m280627160
$lb:__Z44InitializeTransferFunctionScriptingTraitsForI17RemapPPtrTransferEvR31TransferFunctionScriptingTraits
oMf:_SerializationInfoEnumerator_MoveNext_m1876990879
S0f:_TimeSpan_Duration_m4205681645
nXb:__ZN14UnityWebStream24UpdateAllUnityWebStreamsEv
u1b:__ZNSt3__26vectorI16MessageForwarder13stl_allocatorIS1_L18MemLabelIdentifier7ELi8EEE6resizeEj
Gag:__ZL60ObsoleteAttribute_t3878847927_CustomAttributesCacheGeneratorP21CustomAttributesCache
Dci:_Uri_ParseAsWindowsAbsoluteFilePath_m1108586962
ije:_Array_InternalArray__ICollection_CopyTo_TisRaycastHit2D_t4063908774_m3837098618_gshared
U8a:__ZN18LoadSceneOperation21MustCompleteNextFrameEv
wvi:_DataUtility_GetInnerUV_m593541260
OL:__ZNK12AudioManager16GetAudioListenerEv
psd:_EventTrigger_OnScroll_m626934407
Ksg:__ZL48Camera_t189460977_CustomAttributesCacheGeneratorP21CustomAttributesCache
ZUb:__ZNSt3__26vectorI11CameraStackNS_9allocatorIS1_EEE8__appendEj
SDc:__ZNK11Rigidbody2D20GetAttachedCollidersER13dynamic_arrayIP10Collider2DLj4EE
eHd:_InputField_OnDisable_m1865339380
t4f:_UInt32_System_IConvertible_ToType_m747769316
Xt:__ZN7mecanim9animation12GetHumanPoseERKNS0_18ClipMuscleConstantEPKNS0_10ValueDeltaERNS_5human9HumanPoseE
Y3c:__ZN11UnityEngine9Analytics15UserCustomEvent12CustomParams6InsertEPKcRNS1_11CustomValueE
qpe:_Array_InternalArray__get_Item_TisInt16_t4041245914_m2533263979_gshared
Mv:__ZN22AnimationMixerPlayable17ProcessRootMotionEP35AnimationPlayableEvaluationConstantP32AnimationPlayableEvaluationInputP33AnimationPlayableEvaluationOutput
u2:__Z13GetFileSystemv
N3:__ZNK5Unity4Type21FindAllDerivedClassesER13dynamic_arrayIPKS0_Lj4EENS0_17TypeFilterOptionsE
s4:__ZN13RuntimeStaticI15GUIEventManagerLb0EE16StaticInitializeEPv
b4a:__ZN14SafeBinaryRead8TransferIfEEvRT_PKc17TransferMetaFlags
DBe:_DaylightTime_get_Delta_m2316831491
ZFc:__ZNSt3__27__sort5IR24RayHitsByDepthComparitorP12RaycastHit2DEEjT0_S5_S5_S5_S5_T_
Nbe:_Array_InternalArray__ICollection_Contains_TisUILineInfo_t3621277874_m1175659630_gshared
h0f:_WaitHandle_WaitOne_m370363697
LJf:_FactoryCache_Lookup_m1681894361
N2d:_DateTime_Subtract_m698282245_AdjustorThunk
i3a:__ZThn32_N14SpriteRenderer15AddAsRenderNodeER15RenderNodeQueueRK20DeprecatedSourceData
wge:_Array_InternalArray__IndexOf_TisResourceCacheItem_t333236149_m761772858_gshared
bKb:__ZN19ShaderPropertySheet9SetMatrixEN9ShaderLab16FastPropertyNameERK10Matrix4x4fNS_8SetFlagsE
agd:_RIPEMD160Managed_Initialize_m3365407578
sVa:__Z29GetTextureSizeAllowedMultiple13TextureFormat
zDf:_IPAddress_HostToNetworkOrder_m1092199707
Cde:_SetPropertyUtility_SetStruct_TisSpriteState_t1353336012_m2898060836_gshared
ikd:_SecurityAttribute__ctor_m3425755778
v6b:__ZN21IntermediateRenderers3AddEP20IntermediateRenderer
B7i:_il2cpp_array_element_size
$f:_glCheckFramebufferStatus
Uee:_Array_compare_TisInt32_t2071877448_m840310202_gshared
lCh:_Enumerator_System_Collections_IEnumerator_get_Current_m229223308_AdjustorThunk
npj:__ZN15dense_hashtableINSt3__24pairIK10KeyWrapperINS1_IPKcS4_EEEiEES6_24NamespaceAndNamePairHashN14dense_hash_mapIS6_iS9_NS6_14EqualsComparerI26NamespaceAndNamePairEqualsEENS0_9allocatorIS8_EEE9SelectKeyESD_SF_E12resize_deltaEjj
I_h:_InternalEnumerator_1_System_Collections_IEnumerator_get_Current_m442726479_AdjustorThunk
mU:__ZN19CloudServiceHandler20StartEventDispatcherERKN11UnityEngine15CloudWebService18CloudServiceConfigERNS1_23WebRequestRestHeaderMapE
QYh:_InternalEnumerator_1_System_Collections_IEnumerator_get_Current_m790514740_AdjustorThunk
cre:__Z37il2cpp_codegen_get_executing_assemblyPK10MethodInfo
moi:_PKCS12_get_Keys_m1312614820
Wfe:_Array_InternalArray__IndexOf_TisByte_t3683104436_m3605266236_gshared
vJc:__ZN15dense_hashtableINSt3__24pairIKNS1_IPK10Collider2DS4_EE11Collision2DEES5_NS2_23ColliderPairHashFunctorEN14dense_hash_mapIS5_S7_S9_NS0_8equal_toIS5_EE13stl_allocatorIS8_L18MemLabelIdentifier67ELi16EEE9SelectKeyESC_SF_E13set_empty_keyERKS8_
xth:_RaycastAllCallback_Invoke_m981876639
dXf:_UnicodeEncoding__ctor_m72484327
Uvi:_Texture_INTERNAL_get_texelSize_m3335010007
Rnj:__ZN14dense_hash_mapI10KeyWrapperIP14Il2CppIUnknownEjN6il2cpp5utils11PointerHashIS1_EENS3_14EqualsComparerINSt3__28equal_toIS2_EEEENS9_9allocatorINS9_4pairIKS3_jEEEEE15set_deleted_keyERSF_
a4:__ZN22BuiltinResourceManager16StaticInitializeEPv
YFe:_NumberFormatter_ScaleOrder_m1915154678
LEc:__ZN24b2ChainAndCapsuleContact8EvaluateEP10b2ManifoldRK11b2TransformS4_
bgj:__ZN13Il2CppHashMapIPK14Il2CppAssemblyPK22Il2CppMonoAssemblyNameN6il2cpp5utils11PointerHashIS1_EENSt3__28equal_toIS2_EENSA_9allocatorINSA_4pairIK10KeyWrapperIS2_ES5_EEEEEC2EjRKS9_RKSC_
$uf:_ClientSessionInfo_SetContext_m2649357891
LGe:_Int32_System_IConvertible_ToInt64_m3790029067_AdjustorThunk
Nwc:__ZN13BoxCollider2D13PrepareShapesER13dynamic_arrayIP7b2ShapeLj4EERK10Matrix4x4f
Trd:_RaycasterManager_GetRaycasters_m1154876874
mAf:_SslStreamBase_InternalReadCallback_m2524917586
z1:__ZN8Remapper6RemoveEi
u_e:_List_1_CheckCollection_m2608305187_gshared
Ybc:__ZN9Scripting27CreateArgumentNullExceptionEPKc
dOc:__ZL36CleanupTextRenderingScriptingClassesv
Nif:_ReadOnlyCollection_1__ctor_m3532148437_gshared
pLd:_Array_BinarySearch_m3270245097
ugc:__Z34Mesh_CUSTOM_SetArrayForChannelImplP12Il2CppObject30InternalScriptingShaderChannel34InternalScriptingVertexChannelTypeiP11Il2CppArrayi
zKe:_MonoIO_DeleteFile_m3273821223
_se:_BigInteger_GenerateRandom_m2507308768
o1d:_DateTime_System_IConvertible_ToDouble_m1431748426_AdjustorThunk
zbe:_Array_InternalArray__ICollection_Contains_TisUInt16_t986882611_m510319131_gshared
nke:_Array_InternalArray__Insert_TisRaycastHit2D_t4063908774_m3174907903_gshared
h5d:_Decimal_ToString_m541380585
T7i:_il2cpp_class_is_valuetype
UD:__ZN11UnityEngine9Animation28GenericAnimationBindingCache25RegisterIAnimationBindingEPKN5Unity4TypeEiP17IAnimationBinding
G2c:__Z70RectTransformUtility_CUSTOM_INTERNAL_CALL_RectangleContainsScreenPointP12Il2CppObjectRK13Vector2fIcallS0_
X7d:_Enum_ToObject_m2601523252
GMj:dynCall_viiffiii
G3c:__ZN14UnityAnalytics25UnregisterGlobalCallbacksEv
QTb:__Z40ProcessCameraIndexListIsNodeVisibleInOutRK22SceneCullingParametersPK9SceneNodePK4AABBR9IndexList
Eki:_Mathf_Sqrt_m3274009347
ALa:__ZN16GraphicsSettings8TransferI17RemapPPtrTransferEEvRT_
ENe:_StreamReader__ctor_m2654332332
i0c:__ZN2UI6Canvas13UpdateBatchesEb
$mi:_Playable__cctor_m3745623656
Ry:__ZNK23AnimationPlayableOutput11DerivesFromE17ScriptingClassPtr
Nfi:_Color_op_Implicit_m3487763211
AYe:_List_1_CheckCollection_m3968030679_gshared
ZXf:_StringBuilder_ToString_m617673931
k7c:__ZN11UnityEngine7Connect13ConfigHandler12GetListenersERKN4core12basic_stringIcNS2_20StringStorageDefaultIcEEEE
Tba:__ZN9GfxDevice18AllocRenderSurfaceEb
mth:_GetRayIntersectionAllNonAllocCallback_BeginInvoke_m273046189
k$b:__ZN10TagManager32GetSortingLayerUniqueIDFromValueEi
Eai:_AnchorInfo_get_IsComplete_m1247624133
$Ad:_Dropdown_Show_m324374589
x_:__ZL27CleanupCoreScriptingClassesv
G3g:__Z68RuntimeInvoker_RuntimeObject_RuntimeObject_DSAParameters_t1872138834PFvvEPK10MethodInfoPvPS4_
uih:__Z101RuntimeInvoker_Void_t1841601450_RuntimeObject_Int32_t2071877448_Single_t2076509932_Single_t2076509932PFvvEPK10MethodInfoPvPS4_
mud:_RaycastResult_get_isValid_m2482925612
pgc:__Z26AnimationCurve_CUSTOM_InitP12Il2CppObjectP11Il2CppArray
nUj:_glUniform1uiv__wrapper
axc:__ZNK14b2PolygonShape5CloneEP16b2BlockAllocator
Ofj:__ZN6il2cpp2vm10Reflection7IsEventEP12Il2CppObject
G$:__ZN17PersistentManager26GetStreamNameSpaceInternalEi
hsi:_Rect_set_y_m3273335367
WF:__ZN4FMOD6System11createSoundEPKcjP22FMOD_CREATESOUNDEXINFOPPNS_5SoundE
co:FUNCTION_TABLE_iiifiiii
fbj:__ZN6il2cpp2vm4Type14IsSystemDBNullEPK10Il2CppType
EZ:__ZN9ShaderLab19CommonPropertyNames13StaticCleanupEPv
R0:__Z31scripting_method_get_returntype18ScriptingMethodPtr
Cvh:_ScrollRect_UpdateBounds_m3266596336
HWa:__ZN15SerializeTraitsI12LightmapDataE8TransferI24GenerateTypeTreeTransferEEvRS0_RT_
Ywi:_Transform_INTERNAL_set_localScale_m1610244689
Eyd:_ColorBlock_GetHashCode_m649325222
MQj:_glStencilOpSeparate__wrapper
P8b:__ZN4Mesh5SetUvEiPKfjj
cZa:__ZN7Texture13SetAnisoLimitENS_20AnisotropicFilteringE
S9a:__ZN28LightProbeProxyVolumeManager25UpdateSHCoeffsTextureDataER21LightProbeProxyVolume
nCa:__Z18CreateDecompressor15CompressionType18MemLabelIdentifier
GN:__ZN11AudioModule16SetListenerPauseEb
Uh:_emscripten_glCompressedTexSubImage2D
toa:__ZN13GfxDeviceGLES22MemoryBarrierImmediateEyN2gl17MemoryBarrierTypeE
F8:__ZZN18SpriteAtlasManagerC1EvEN46EarlyUpdateSpriteAtlasManagerUpdateRegistrator7ForwardEv
$la:__ZN6prcoreL26RemapGenericFloatToIntegerI18TexFormatARGBFloat17TexFormatARGB8888EEvPKNS_9InnerInfoE
sbc:__Z46GetShaderModelNumericValueFromRequirementsMask18ShaderRequirements
uWc:_cff_ps_has_glyph_names
s8h:_PatternCompiler_EmitPosition_m3013268572
hJf:_X509SubjectKeyIdentifierExtension__ctor_m1109455121
lDd:_Graphic_CreateColorFromAlpha_m2614574534
Gnc:__Z44Register_UnityEngine_GUIStyle_SetDefaultFontv
Wvb:__Z18Transfer_BlittableI18StreamedBinaryReadILb1EELb1EiEvRK29SerializationCommandArgumentsR31RuntimeSerializationCommandInfo
JA:__ZN9BlobWrite8TransferI22OffsetPtrArrayTransferIKN4math7_float3EEEEvRT_PKc17TransferMetaFlags
ejd:_TripleDES_IsWeakKey_m483013953
wGf:_X509Certificate2_get_PrivateKey_m2662162956
Dej:__ZN15dense_hashtableINSt3__24pairIK10KeyWrapperINS1_IPK12PropertyInfoP11Il2CppClassEEEjEES9_17ReflectionMapHashIS8_EN14dense_hash_mapIS9_jSD_NS9_14EqualsComparerINS0_8equal_toIS8_EEEENS0_9allocatorISB_EEE9SelectKeyESI_SK_E12maybe_shrinkEv
W9g:__Z75RuntimeInvoker_RuntimeObject_RuntimeObject_Single_t2076509932_RuntimeObjectPFvvEPK10MethodInfoPvPS4_
vwb:__Z18Transfer_BlittableI18StreamedBinaryReadILb1EELb1EsEvRK29SerializationCommandArgumentsR31RuntimeSerializationCommandInfo
Thh:__Z54RuntimeInvoker_Void_t1841601450_ColorBlock_t2652774230PFvvEPK10MethodInfoPvPS4_
Fmd:_Single_System_IConvertible_ToSByte_m3757385387
Pwi:_Vector3_get_forward_m1316319684
xLe:_StreamAsyncResult_SetComplete_m2141125667
gZa:__ZL21SetAnisoLimitEnumImplN7Texture20AnisotropicFilteringEb
A5c:__ZN22BaseUnityConnectClient17OnEnterStateReadyEv
QJa:__ZN14GrowableBufferD2Ev
$Ai:_GUIStyle_get_stretchWidth_m813991504
Gfc:__Z29Input_CUSTOM_GetMouseButtonUpi
z6i:__ZN6il2cpp6icalls8mscorlib6System8MonoType16InternalGetEventEP20Il2CppReflectionTypeP12Il2CppStringi
x_f:_Interlocked_CompareExchange_m3339239614
mQc:_UNITY_tt_face_load_maxp
Ufc:__Z46Input_CUSTOM_INTERNAL_set_compositionCursorPosRK13Vector2fIcall
_s:__ZN7mecanim5human12FullBodyMaskEv
Hwi:_Transform_set_position_m2942701431
L3a:__ZN19ShaderPropertySheet11ComputeHashEv
S0i:__ZN30dense_hashtable_const_iteratorI10KeyWrapperIPK19Il2CppGenericMethodES4_N6il2cpp8metadata23Il2CppGenericMethodHashEN14dense_hash_setIS4_S7_NS4_14EqualsComparerINS6_26Il2CppGenericMethodCompareEEENSt3__29allocatorIS4_EEE8IdentityESB_SE_EppEv
gFc:__ZN12b2EPCollider24ComputePolygonSeparationEv
NS:__ZN11UnityEngine15CloudWebService20WebRequestRestClient6IsDoneEv
Qi:_llvm_fabs_f32
Ixd:_CanvasScaler_HandleScaleWithScreenSize_m80056230
qS:__ZN11UnityEngine15CloudWebService16SessionContainer16GetJsonDataBlockEjRKN4core12basic_stringIcNS2_20StringStorageDefaultIcEEEERS6_PjSA_
fUf:_SByte_System_IConvertible_ToUInt64_m2174352876_AdjustorThunk
iZf:_UTF7Encoding_InternalGetBytes_m2772055844
N5g:__Z76RuntimeInvoker_Void_t1841601450_Int64_t909078037_ResourceInfoU26_t3126209420PFvvEPK10MethodInfoPvPS4_
Are:_SimpleCollator__cctor_m2693747668
a5d:_Decimal_CompareTo_m2454501434_AdjustorThunk
W$:__ZN14SafeBinaryReadD2Ev
e3f:_UInt16_System_IConvertible_ToChar_m4055364664
D0b:__Z13RegisterClassI7TextureEvv
Lxb:__ZN8Gradient8TransferI18StreamedBinaryReadILb1EEEEvRT_
L4f:_UInt32_ToString_m554020223_AdjustorThunk
lji:_GameObject_SendMessage_m3423113156
dnj:__ZN6il2cpp6icalls8mscorlib6System4Type15MakeGenericTypeEP20Il2CppReflectionTypeP11Il2CppArray
pj:_SDL_PauseAudio
Y7i:_il2cpp_class_from_type
XLd:_Array_Sort_m2323017822
euh:_Scrollbar_UpdateDrag_m3839695926
DZ:__ZN9ShaderLab19CommonPropertyNames16StaticInitializeEPv
iQe:_MissingMemberException__ctor_m3710131950
LC:__ZN7mecanim9animation18CreateAvatarOutputEPKNS0_14AvatarConstantEbbRNS_6memory9AllocatorE
Mah:__Z91RuntimeInvoker_Void_t1841601450_RuntimeObject_Int32_t2071877448_RuntimeObject_RuntimeObjectPFvvEPK10MethodInfoPvPS4_
eVf:_CspParameters__ctor_m2546931874
GL:__ZN11AudioSource23VirtualRedirectTransferER24GenerateTypeTreeTransfer
B8b:__ZN7Texture11SetWrapModeE15TextureWrapMode
x4c:__ZN14UnityAnalytics15SendCustomEventERN11UnityEngine9Analytics15UserCustomEventE
C$a:__ZN14Texture2DArray23VirtualRedirectTransferER14SafeBinaryRead
SOb:__ZNK6Camera21CalculateCanDoShadowsEv
pDd:_Graphic__cctor_m1643894470
Rvj:__ZN6il2cpp2os6Thread12SetStackSizeEj
SGf:_X509ChainElementEnumerator_get_Current_m2232618221
jhi:_DebugLogHandler_LogFormat_m2866699703
exd:_U3COnFinishSubmitU3Ec__Iterator0_Reset_m2080388334
u8b:__ZNK8Renderer16IsVisibleInSceneEv
wvh:_ScrollRect_set_onValueChanged_m3957749575
HX:__Z13VFormatBufferPciPKcz
Syb:__Z18Transfer_BlittableI18StreamedBinaryReadILb0EELb1EhEvRK29SerializationCommandArgumentsR31RuntimeSerializationCommandInfo
ORi:_U3CCreateWhereIteratorU3Ec__Iterator1D_1_Dispose_m1879652802_gshared
iFd:_Image_GenerateSimpleSprite_m4275440988
V3f:_UInt16_ToString_m3280699191
dma:__ZN6prcoreL27StretchGenericFloatBilinearI15TexFormatRFloatEEvPKNS_9InnerInfoE
Pv:__Z24ProcessAnimationMixBeginP35AnimationPlayableEvaluationConstantP32AnimationPlayableEvaluationInputP33AnimationPlayableEvaluationOutput
Hfe:_Array_IndexOf_TisCustomAttributeNamedArgument_t94157543_m745056346_gshared
gja:__Z14PadImageBorderR14ImageReferenceii
gdj:__ZN15dense_hashtableINSt3__24pairIK10KeyWrapperINS1_IPK10MethodInfoP11Il2CppClassEEEjEES9_17ReflectionMapHashIS8_EN14dense_hash_mapIS9_jSD_NS9_14EqualsComparerINS0_8equal_toIS8_EEEENS0_9allocatorISB_EEE9SelectKeyESI_SK_E4findERSA_
W3i:__ZN6il2cpp2vm13MetadataCache28GetFieldDefaultValueForFieldEPK9FieldInfo
EPh:_ArrayReadOnlyList_1_ReadOnlyError_m2289309720_gshared
rw:__ZN27AnimationLayerMixerPlayableD2Ev
N6i:__ZN6il2cpp2vm8basepathEPKc
$H:__ZN12AudioManager39HandlePendingAudioConfigurationCallbackEv
f3g:__Z119RuntimeInvoker_Int32_t2071877448_RuntimeObject_RuntimeObject_Int32_t2071877448_Int32_t2071877448_BooleanU26_t3168250738PFvvEPK10MethodInfoPvPS4_
lk:_emscripten_glIsFramebuffer
uGa:__ZN12_GLOBAL__N_16qAtan2Eff
A$d:_Convert_ToInt64_m954367741
pk:_JS_Sound_SetLoopPoints
WQd:_ArrayList__ctor_m1467563650
SM:__ZN12AudioManager17ShouldSourcePauseEb
KDj:__ZN6il2cpp2vm26MetadataAllocGenericMethodEv
Jra:__ZN19ConstantBuffersGLES12RecordRenderEv
arc:__ZN9JSONWrite8TransferI10RectOffsetEEvRT_PKc17TransferMetaFlags
Nia:__ZN4crnd12symbol_codec11decode_bitsEj
tFc:__ZN15b2CircleContact8EvaluateEP10b2ManifoldRK11b2TransformS4_
Tme:_Array_Sort_TisRaycastResult_t21186376_TisRaycastResult_t21186376_m38820193_gshared
zoi:_PKCS12_EncryptedContentInfo_m938119256
JKe:_StreamReader__ctor_m3454466728
dI:__ZN4FMOD6System12createReverbEPPNS_6ReverbE
yti:_RectTransform_get_anchorMin_m3466802567
iw:__ZN7mecanim19ValueArrayBlendNodeILb1EEEvRKNS_10ValueArrayERKNS_14ValueArrayMaskERS1_RS4_RNS_16ValueArrayWeightEf
ebb:__Z16MarkDependenciesR27GarbageCollectorThreadStatej
KIf:_X509ChainElementEnumerator_Reset_m3832280427
oSe:_MulticastDelegate_RemoveImpl_m2024746777
Sxd:_CanvasUpdateRegistry_ParentCount_m2367607495
iSe:_MulticastDelegate_Equals_m3064081489
JAe:_Activator_CreateInstance_m1465989661
B9:__ZNK9Transform11GetPositionEv
dci:_PositionAssertion_GetWidth_m2294218483
CMa:__ZN23SharedMeshRenderingData18UnloadVertexStreamEi
u6b:__ZN31CanvasBatchIntermediateRenderer11AddSubBatchERK16DrawBuffersRangePK19ShaderPropertySheet
c2g:__Z99RuntimeInvoker_Void_t1841601450_RuntimeObject_Int32_t2071877448_Int32_t2071877448_Int32_t2071877448PFvvEPK10MethodInfoPvPS4_
b5b:__ZN19RenderEventsContextC2Ei
EQ:__Z6simd4fRKf
cje:_Array_InternalArray__ICollection_CopyTo_TisColor32_t874517518_m379086718_gshared
Wxh:_Slider_ClampValue_m2851810895
Tk:_emscripten_glEnable
Grj:__ZN6il2cpp2gc16GarbageCollector29RegisterFinalizerForNewObjectEP12Il2CppObject
XEa:__ZN10TagManager23VirtualRedirectTransferER14SafeBinaryRead
IPc:_UNITY_FT_Init_Class_ft_grays_raster
q6:__ZN14PlayableOutput26ClearInvalidSourcePlayableEv
FRb:__Z15InitLightMeshesv
fmg:__ZL97WaitHandle_t677569169_CustomAttributesCacheGenerator_WaitHandle_t677569169____Handle_PropertyInfoP21CustomAttributesCache
ITe:_KeyValuePair_2_ToString_m1391611625_AdjustorThunk
Fn:FUNCTION_TABLE_iifiii
xr:__ZN7mecanim9animation14HasHumanCurvesERKNS0_18ClipMuscleConstantE
E_d:_Double_Parse_m1617409931
Ebh:__Z70RuntimeInvoker_Boolean_t3825574718_Int32_t2071877448_Int16_t4041245914PFvvEPK10MethodInfoPvPS4_
ZYa:__ZN15QualitySettings8TransferI19StreamedBinaryWriteILb0EEEEvRT_
yUc:_cf2_arrstack_init
Qfg:__ZL65ClassInterfaceAttribute_t910653559_CustomAttributesCacheGeneratorP21CustomAttributesCache
ubj:__ZN15dense_hashtableINSt3__24pairIK10KeyWrapperINS1_IPK14Il2CppAssemblyP11Il2CppClassEEEjEES9_17ReflectionMapHashIS8_EN14dense_hash_mapIS9_jSD_NS9_14EqualsComparerINS0_8equal_toIS8_EEEENS0_9allocatorISB_EEE9SelectKeyESI_SK_E15insert_noresizeERKSB_
yW:__Z15CleanLogHandler7LogTypePKcz
vfb:__ZN9ShaderLab19SerializedSubShader8TransferI19StreamedBinaryWriteILb0EEEEvRT_
PYf:_UTF32Encoding_GetBytes_m2290150495
bCb:__ZN6Camera17RemoveImageFilterERK11ImageFilter
Hna:__ZNSt3__218__insertion_sort_3IR25ValueParameterArraySorterPN20GpuProgramParameters14ValueParameterEEEvT0_S6_T_
KAc:__ZN10ClipperLib7Clipper27ProcessEdgesAtTopOfScanbeamEx
Lqh:_LayoutUtility_GetLayoutProperty_m4052007472
Bqa:__ZNSt3__214__split_bufferI20ComputeShaderVariantRNS_9allocatorIS1_EEED2Ev
mzb:__Z18Transfer_BlittableI18StreamedBinaryReadILb0EELb1E9BoundsIntEvRK29SerializationCommandArgumentsR31RuntimeSerializationCommandInfo
xvf:_Context_set_WriteSequenceNumber_m3356252710
Qyj:__ZN6il2cpp2vm13ManagedObject7GetIidsEPjPP10Il2CppGuid
P0c:__ZN2UI26InitializeDeviceForOverlayEi
NDe:_Guid_Equals_m2389236871
xY:__Z27LogRepeatingStringWithFlagsRKN4core12basic_stringIcNS_20StringStorageDefaultIcEEEE15LogMessageFlagsi
xWe:_Enumerator_MoveNext_m3483405135_gshared
At:__ZN17AnimationPlayable28ComputeNeedsBindingRebuildedEv
Gs:__ZN17AnimationPlayable23RequestAllocateBindingsEv
Khe:_Array_InternalArray__ICollection_Add_TisMonoResource_t3127387157_m2070096275_gshared
CXe:_List_1_CheckIndex_m3609163576_gshared
sGf:_X509ExtensionCollection__ctor_m1324282194
u8c:__ZN18UnityConnectClient33OnPlayerSessionStateChangedStaticEPS_jyy
Kbg:__ZL74CaseInsensitiveHashCodeProvider_t2307530285_CustomAttributesCacheGeneratorP21CustomAttributesCache
Lfa:__ZN7ApiGLES4LoadE16GfxDeviceLevelGL
VWa:__ZN18StreamedBinaryReadILb0EE21TransferSTLStyleArrayI13dynamic_arrayI31EnlightenSystemAtlasInformationLj8EEEEvRT_17TransferMetaFlags
Gia:__ZN4crnd12crn_unpacker22decode_color_endpointsEv
Nqj:__ZN15dense_hashtableI10KeyWrapperIP18Il2CppGenericClassES3_N6il2cpp8metadata22Il2CppGenericClassHashEN14dense_hash_setIS3_S6_NS3_14EqualsComparerINS5_25Il2CppGenericClassCompareEEENSt3__29allocatorIS3_EEE8IdentityESA_SD_E15insert_noresizeERKS3_
Thf:_ReadOnlyCollection_1_System_Collections_IList_Clear_m3006875897_gshared
i4b:__ZZL31RegisterOtherRendererPropertiesR22GenericPropertyBindingEN30Wrapper_RendererReceiveShadows13GetFloatValueEPv
PWe:_Enumerator_System_Collections_IEnumerator_get_Current_m3866069145_gshared
nFb:__ZN8Material11SetPassFastEPN9ShaderLab4PassER17ShaderPassContextP6Shaderib
s8c:__ZN11UnityEngine7Connect20BasePersistentValues10SaveValuesER9JSONWrite
jLi:_AudioListener_AddExtension_m2954727157
Tsd:_ExecuteEvents_get_pointerDownHandler_m1172742772
YFc:__ZNSt3__27__sort4IR24RayHitsByDepthComparitorP12RaycastHit2DEEjT0_S5_S5_S5_T_
E9b:__Z14ScaleCurveTimeR17AnimationCurveTplIfEf
y4:__ZN22VirtualJoystickManagerC2Ev
OLb:__Z12SetupLODFadeR9GfxDeviceR17ShaderPassContextf
hTa:__ZNK14PlayableOutput7GetTypeEv
FEc:__ZN26b2PolygonAndCapsuleContact6CreateEP9b2FixtureiS1_iP16b2BlockAllocator
l3g:__Z203RuntimeInvoker_Boolean_t3825574718_RuntimeObject_Int32U26_t455636984_Int32_t2071877448_Int32_t2071877448_RuntimeObject_SByte_t454417549_Int32_t2071877448_ContractionU26_t2019974048_ContextU26_t3131521781PFvvEPK10MethodInfoPvPS4_
Foi:_X501_ToString_m3328169518
sRb:__ZL24CollectForwardObjectsJobP27CollectForwardObjectsHeader
vAh:_Enumerator_System_Collections_IDictionaryEnumerator_get_Entry_m345330700_gshared
RUb:__ZNK25CameraStackRenderingState24ResolveTempToEyeTexturesEv
pTb:__Z13IsNodeVisibleRK9SceneNodeRK4AABBRK22SceneCullingParameters
I2c:__Z57RectTransformUtility_CUSTOM_INTERNAL_CALL_PixelAdjustRectP12Il2CppObjectS0_R5RectTIfE
nUb:__Z24ScheduleCullingAllGroupsR8JobFenceRK22SceneCullingParametersiRK13CullingOutputRK13dynamic_arrayIP12CullingGroupLj4EERKS_
OQf:_DelayedFixupRecord_FixupImpl_m4249966635
jWj:_emscripten_glStencilMask__wrapper
I0i:__ZN15dense_hashtableI10KeyWrapperIPK19Il2CppGenericMethodES4_N6il2cpp8metadata23Il2CppGenericMethodHashEN14dense_hash_setIS4_S7_NS4_14EqualsComparerINS6_26Il2CppGenericMethodCompareEEENSt3__29allocatorIS4_EEE8IdentityESB_SE_EC2ERKSH_j
kte:_BigInteger_ToString_m3837784224
_4d:_Decimal_decimalCompare_m26009298
iKc:__ZN16NovodexAllocator8allocateEjPKcS1_i
TQb:__Z17PrepareShadowMapsRK11CullResultsRK11ActiveLightRK10MinMaxAABB
k_f:_NativeEventCalls_CreateEvent_internal_m1605829321
Yxg:__ZL73RuntimePlatform_t1869584967_CustomAttributesCacheGenerator_MetroPlayerX64P21CustomAttributesCache
oVh:_InternalEnumerator_1_System_Collections_IEnumerator_get_Current_m3239681450_AdjustorThunk
pRb:__ZN9ShaderLab10GrabPassesD2Ev
N$a:__ZN14Texture2DArray13UploadTextureEv
XRc:_tt_cmap14_done
X8a:__ZN18AwakeFromLoadQueue25RegisterObjectInstanceIDsEv
nOd:_Buffer_BlockCopy_m1586717258
Sig:__ZL93X509Certificate_t283079845_CustomAttributesCacheGenerator_X509Certificate_GetName_m2354987368P21CustomAttributesCache
ww:__ZNK27AnimationLayerMixerPlayable11DerivesFromE17ScriptingClassPtr
mMc:__ZN20TextRenderingPrivate19NativeTextGenerator15InsertCharacterEiPj
D9d:_CompareInfo_GetSortKey_m3691382873
ryc:__ZN11b2RopeJoint24SolveVelocityConstraintsERK12b2SolverData
W3d:_DBNull_ToString_m3228904745
EEf:_WebHeaderCollection_AddWithoutValidate_m1479880592
VWi:_Physics2D_Raycast_m608778191
mrf:_RC4_get_IV_m506011366
Npi:_X509Crl__ctor_m2469408229
IAh:_Enumerator_get_CurrentValue_m3562053380_AdjustorThunk
nJf:_X509SubjectKeyIdentifierExtension_CopyFrom_m136762226
XUe:_Enumerator_System_Collections_IEnumerator_Reset_m610822832_AdjustorThunk
gOc:__ZN20TextRenderingPrivate15DynamicFontData21GetFontMetricsForFaceERK13dynamic_arrayIN4core17string_with_labelILi35EEELj4EEiRKS1_I4PPtrIN13TextRendering4FontEELj4EEPfSF_
gNc:_UNITY_FT_Open_Face
aSj:_glGenRenderbuffers__wrapper
fue:_BigInteger_op_Division_m1581119694
aSf:_CallbackHandler_Invoke_m1498072969
cdd:_DSACryptoServiceProvider__ctor_m701823690
IPg:_CustomAttributeData_GetCustomAttributes_m2421330738
TQi:_TextGenerator_GetVerticesInternal_m514005870
Bpj:__ZN30dense_hashtable_const_iteratorINSt3__24pairIK10KeyWrapperINS1_IPKcS4_EEEiEES6_24NamespaceAndNamePairHashN14dense_hash_mapIS6_iS9_NS6_14EqualsComparerI26NamespaceAndNamePairEqualsEENS0_9allocatorIS8_EEE9SelectKeyESD_SF_EppEv
O1f:_Type_get_IsEnum_m313908919
Wdc:__Z44Register_UnityEngine_Component_get_transformv
naf:_Collection_1_System_Collections_ICollection_CopyTo_m1335644572_gshared
NB:__ZN12_GLOBAL__N_120ProcessPlayableGraphERN8Animator11AnimatorJobER35AnimationPlayableEvaluationConstantR32AnimationPlayableEvaluationInputR33AnimationPlayableEvaluationOutputPFvS4_R17AnimationPlayableEPFvS4_S6_S8_EPFvS8_S4_S6_S8_fESE_MS9_FvPS3_PS5_PS7_E
e1e:_List_1_CheckMatch_m2830747427_gshared
zHb:__ZN17ArchiveFileSystem12MountArchiveEPKcS1_
fqc:__Z18Transfer_BlittableI9JSONWriteLb1E8Vector4fEvRK29SerializationCommandArgumentsR31RuntimeSerializationCommandInfo
Bn:FUNCTION_TABLE_viififiii
OFa:__Z30GetScriptableCullingParametersR6CameraR27ScriptableCullingParameters
qBh:_Enumerator_System_Collections_IEnumerator_Reset_m70453843_gshared
BXa:__ZThn32_NK8Renderer14GetSubsetIndexEi
boe:_Dictionary_2_Do_CopyTo_TisKeyValuePair_2_t1174980068_TisRuntimeObject_m3279061992_gshared
V2b:__ZN13ProduceHelperI15ResourceManagerLb0EE7ProduceE18MemLabelIdentifier18ObjectCreationMode
Mca:__ZN9GfxDevice15ImmediateVertexEfff
k0b:__Z13RegisterClassI8MaterialEvv
iWa:__ZNK16LightmapSettings22GetTypeVirtualInternalEv
BAi:_WindowFunction_BeginInvoke_m87819360
K8d:_FieldAccessException__ctor_m3893881490
Guc:__ZN8JSONRead21TransferSTLStyleArrayI13dynamic_arrayItLj2EEEEvRT_17TransferMetaFlags
haa:__ZN13GfxDeviceGLES15SetStencilStateEPK18DeviceStencilStatei
odh:__Z107RuntimeInvoker_Void_t1841601450_Single_t2076509932_Single_t2076509932_Single_t2076509932_Single_t2076509932PFvvEPK10MethodInfoPvPS4_
jIj:_cycle
Jd:_emscripten_glUniform1iv
rzh:_Text_get_preferredHeight_m452532789
jEc:__ZN15b2DistanceProxy3SetEPK7b2Shapei
ynd:_String_System_IConvertible_ToDouble_m3860911722
Dkb:__ZN16MemoryFileSystemD2Ev
QZh:_InternalEnumerator_1_get_Current_m3732458101_AdjustorThunk
Gpf:_ARC4Managed__ctor_m2922048522
xMc:__Z17dynamic_pptr_castIP9Texture2D7TextureET_RK4PPtrIT0_E
Gif:_ReadOnlyCollection_1_System_Collections_IList_set_Item_m1272038804_gshared
IQh:_InternalEnumerator_1_System_Collections_IEnumerator_get_Current_m1931522460_AdjustorThunk
ekd:_SecurityPermission_IsEmpty_m1869313067
_Hf:_X509CertificateCollection__ctor_m3709509050
Fdc:__Z37Register_UnityEngine_Camera_get_depthv
sxe:_EncryptedPrivateKeyInfo_get_Salt_m2734354394
Ckf:_ReadOnlyCollection_1_System_Collections_Generic_IListU3CTU3E_set_Item_m1918537449_gshared
C9e:_Collection_1_System_Collections_ICollection_CopyTo_m3896480607_gshared
ztd:_PointerEventData_set_position_m794507622
Dii:_UnityEvent_GetDelegate_m1261032859
IZb:__Z23ConvertIntegerToTypePtrItEbPvR14SafeBinaryRead
pC:__ZN7mecanim5human29HumanGetGoalOrientationOffsetENS0_4GoalE
_d:_emscripten_glStencilFunc
ZYg:_MonoMethod_MakeGenericMethod_impl_m2063853616
Uld:__Z46il2cpp_codegen_get_marshal_directive_exceptionPKc
Ggb:__ZN9ShaderLab20SerializedSubProgram14AddMatrixParamEPKcii15ShaderParamTypei
ee:_glGetActiveUniformBlockName
Pf:_emscripten_glUniform1fv
VDe:_Guid_AppendByte_m2890893073
zPd:_Char_System_IConvertible_ToType_m3106771703_AdjustorThunk
qLf:_Interval_Intersects_m3480157390_AdjustorThunk
kgc:__Z39Quaternion_CUSTOM_INTERNAL_CALL_InverseRK11QuaternionfRS_
M2h:_GCHandle_Alloc_m1063472408
ZI:__ZN4FMOD7Channel20set3DConeOrientationEP11FMOD_VECTOR
sn:FUNCTION_TABLE_iiifii
TUf:_CryptoConfig_CreateFromName_m391442950
lUi:_RectTransformUtility_INTERNAL_CALL_PixelAdjustRect_m3338747528
Rsj:__ZN6il2cpp2vm12GenericClass11SetupEventsEP11Il2CppClass
SXc:_tt_delta_interpolate
QRc:_tt_cmap12_get_info
soj:__ZN6il2cpp2vm15ReboxIReferenceEP14Il2CppIUnknownP11Il2CppClass
hOe:_StreamWriter_LowLevelWrite_m4205372900
GUi:__ZN6il2cpp6icalls8mscorlib6System7Decimal14decimalCompareEP19il2cpp_decimal_reprS5_
Uyj:__ZThn4_N6il2cpp2vm13CachedCCWBaseINS0_13ManagedObjectEE7ReleaseEv
cUd:_CollectionBase_System_Collections_IList_get_Item_m2370387510
Lme:_Array_Sort_TisCustomAttributeNamedArgument_t94157543_m3436077809_gshared
mTj:_glCopyTexImage2D__wrapper
NId:_LayoutElement__ctor_m789941073
XIc:__ZN16PhysicsManager2D11CreateWorldERK8Vector2f
_W:__GLOBAL__sub_I_runtime_graphics_billboard_0_cpp
uFb:__Z18ClearByDrawingQuad13GfxClearFlagsRK10ColorRGBAffjR17ShaderPassContext
x5h:_DynamicPropertyCollection_FindProperty_m1233265924
Cla:__ZN6prcoreL17RemapGenericFloatI14TexFormatRHalf15TexFormatRFloatEEvPKNS_9InnerInfoE
DLb:__Z16ShouldUseShadowsb
j6:__ZN15DirectorManager21RebuildStageCallbacksEv
HFb:__ZN19RuntimeSceneManager9LoadSceneERKN4core12basic_stringIcNS0_20StringStorageDefaultIcEEEES6_S6_RK9UnityGUIDiNS_11LoadingModeE
Mma:__ZN7ApiGLES10DrawArraysE16GfxPrimitiveTypejjj
xG:__ZN10SampleClip13LoadBaseSoundEv
kti:_RectOffset_get_left_m1496351507
NP:__Z57AudioSource_CUSTOM_INTERNAL_CALL_ClearExtensionPropertiesP12Il2CppObjectRK12PropertyName
Urj:__ZN15dense_hashtableINSt3__24pairIK10KeyWrapperIP12Il2CppObjectEN6il2cpp2gc9CachedCCWEEES5_NS7_5utils11PointerHashIS3_EEN14dense_hash_mapIS5_S9_SD_NS5_14EqualsComparerINS0_8equal_toIS4_EEEENS0_9allocatorISA_EEE9SelectKeyESI_SK_E15insert_noresizeERKSA_
xdf:_Collection_1_Contains_m643401393_gshared
ESa:__ZN22DeviceMVPMatricesStateC2ER9GfxDevice
qnd:_String__ctor_m372528291
bn:FUNCTION_TABLE_iifii
f_a:__ZNSt3__26vectorI13dynamic_arrayI8Vector2fLj4EENS_9allocatorIS3_EEE6assignINS_11__wrap_iterIPS3_EEEENS_9enable_ifIXaasr21__is_forward_iteratorIT_EE5valuesr16is_constructibleIS3_NS_15iterator_traitsISC_E9referenceEEE5valueEvE4typeESC_SC_
bH:__GLOBAL__sub_I_runtime_video_0_cpp
EWf:_Encoding_SetFallbackInternal_m1682842442
Fii:_UnityEvent_FindMethod_Impl_m947332673
Oya:__ZNSt3__26__treeIiNS_4lessIiEE13stl_allocatorIiL18MemLabelIdentifier1ELi16EEE7destroyEPNS_11__tree_nodeIiPvEE
nc:invoke_viiifi
fRe:_LongComparer_Compare_m3981323622
gyh:_Slider_FindSelectableOnUp_m15474611
Pya:__ZNK11AssetBundle14GetPreloadDataEiR13dynamic_arrayIiLj4EE
Aye:_EncryptedData_get_EncryptedContent_m2732115576
ayi:_Vector3__ctor_m2761639014
of:_JS_Sound_SetPosition
I9h:_Assertion_set_FalseExpression_m1781616372
jJf:_X509SubjectKeyIdentifierExtension_FromHexChars_m2515150420
NOa:__ZN19RenderBufferManager13GetTempBufferEii17DepthBufferFormat19RenderTextureFormatj22RenderTextureReadWrite14VRTextureUsagei23RenderTextureMemoryless
w3i:__ZL13GetSharedInstPK17Il2CppGenericInst
wag:__ZL51IReflect_t3412036974_CustomAttributesCacheGeneratorP21CustomAttributesCache
zvd:_StandaloneInputModule_SendSubmitEventToSelectedObject_m3421155293
Bri:_Quaternion_Equals_m798965363_AdjustorThunk
OSb:__Z17PrepareSceneNodesP11CullResults
mTi:_Canvas_get_sortingLayerID_m137448982
j7h:_CallContextRemotingData_Clone_m2226242476
t$:__Z63ThreadAndSerializationSafeCheckSetMonoBehaviourBeingTransferredP13MonoBehaviour
vRb:__Z24SetupActiveLightsContextR21ActiveLightingContextRK12ActiveLightsRK11CullResultsP14ShadowMapCacheRK10MinMaxAABB
Mhc:__Z38Sprite_CUSTOM_INTERNAL_get_textureRectP12Il2CppObjectP5RectTIfE
T3d:_DBNull_System_IConvertible_ToUInt32_m2681284284
Pgj:__ZNK15dense_hashtableINSt3__24pairIK10KeyWrapperIPK22Il2CppGenericParameterEPK24MonoGenericParameterInfoEES6_N6il2cpp5utils11PointerHashIS4_EEN14dense_hash_mapIS6_SA_SF_NS6_14EqualsComparerINS0_8equal_toIS5_EEEENS0_9allocatorISB_EEE9SelectKeyESK_SM_E3endEv
pbc:__ZN9TextAsset7SetTextERKN4core12basic_stringIcNS0_20StringStorageDefaultIcEEEE
EIa:__ZN6Camera8TransferI24GenerateTypeTreeTransferEEvRT_
VNh:_EqualityComparer_1__cctor_m416314417_gshared
Ja:invoke_iiiiiiif
Fa:invoke_iiiiiiii
CHf:_X509ChainElementCollection_Contains_m3599995067
OUb:__ZN8Renderer17PendingAddToSceneEv
dXj:b123
cXj:b122
fXj:b125
eXj:b124
hXj:b127
gXj:b126
jXj:b129
chc:__Z52Register_UnityEngine_RectTransform_INTERNAL_get_rectv
k_:__Z21PostprocessStacktracePKcRN4core12basic_stringIcNS1_20StringStorageDefaultIcEEEE
J6a:__ZN18StreamedBinaryReadILb0EE21TransferSTLStyleArrayI13dynamic_arrayI16SplashScreenLogoLj4EEEEvRT_17TransferMetaFlags
Ace:_Array_InternalArray__ICollection_Remove_TisX509ChainStatus_t4278378721_m4127982424_gshared
Pdc:__Z47Register_UnityEngine_Camera_get_allCamerasCountv
add:___clang_call_terminate
L5c:__ZN22BaseUnityConnectClient20StartEventDispatcherEv
T8b:__ZNSt3__26vectorIj13stl_allocatorIjL18MemLabelIdentifier1ELi16EEE6assignIPKtEENS_9enable_ifIXaasr21__is_forward_iteratorIT_EE5valuesr16is_constructibleIjNS_15iterator_traitsIS9_E9referenceEEE5valueEvE4typeES9_S9_
dB:__ZN7mecanim9animation16EvaluateAvatarIKEPKNS0_14AvatarConstantEPKNS0_11AvatarInputEPNS0_12AvatarOutputEPNS0_12AvatarMemoryEPNS0_15AvatarWorkspaceEb
kna:__ZL25ProgramUniformMatrix4x3fvPK7ApiGLESjiihPKv
MIb:__ZN12InputManager13InputEndFrameEv
tzc:__ZN15b2RevoluteJointC2EPK18b2RevoluteJointDef
$jj:__ZN6il2cpp2vm6Thread5SetupEP12Il2CppThread
Rlf:_ReadOnlyCollection_1_System_Collections_IList_Remove_m2200089035_gshared
x9e:_Collection_1_CheckWritable_m2756357359_gshared
oJj:___munmap
gGd:_InputField_get_characterLimit_m2386380888
dIg:__ZL68ColorBlock_t2652774230_CustomAttributesCacheGenerator_m_PressedColorP21CustomAttributesCache
m$d:_Convert_ToInt64_m1722087499
fg:_localtime_r
ig:_strftime
Cpa:__ZN7Texture33SetStoredColorSpaceNoDirtyNoApplyE17TextureColorSpace
U2:__ZN12FileAccessorD2Ev
QMa:__ZN14VertexDataInfoC2Ev
evj:__ZN6il2cpp2gc16GarbageCollector14CollectALittleEv
ZTh:_InternalEnumerator_1_get_Current_m2415979394_gshared
ixb:__ZL17Transfer_GUIStyleI18StreamedBinaryReadILb1EELb1EEvRK29SerializationCommandArgumentsR31RuntimeSerializationCommandInfo
gvh:_ScrollRect_SetDirtyCaching_m1491302821
p6i:__ZN6il2cpp6icalls8mscorlib6SystemL9IsPrivateEPK12PropertyInfo
KPg:_CustomAttributeData_GetCustomAttributes_m3258419955
ali:_Matrix4x4_GetColumn_m83396621
AZ:__ZN9shadertag10InitializeEv
QLb:__ZN13BatchRenderer20RenderSingleWithPassER17ShaderPassContextPK18SharedMaterialDataP6ShaderPN9ShaderLab4PassEiPKNS7_10GrabPassesEjib15BatchBreakCause
WYa:__ZN15QualitySettings14QualitySetting8TransferI24GenerateTypeTreeTransferEEvRT_
Rie:_Array_InternalArray__ICollection_CopyTo_TisParameterModifier_t1820634920_m4127516211_gshared
JVf:_DecoderReplacementFallback__ctor_m2344783488
xTe:_OutOfMemoryException__ctor_m239206850
mvi:_Sprite_get_rect_m3985037234
BCd:_GraphicRegistry_UnregisterGraphicForCanvas_m820096873
mZc:__Z28Font_Get_Custom_PropMaterialP12Il2CppObject
JFg:__ZL65EventTrigger_t1967201810_CustomAttributesCacheGenerator_delegatesP21CustomAttributesCache
Maf:_Collection_1_Remove_m4136193368_gshared
lsd:_EventTrigger_OnPointerUp_m2791622548
pxh:_Shadow_set_useGraphicAlpha_m141905402
V7b:__ZN22BlockMemoryCacheWriter14LockCacheBlockEjPPhS1_
Svj:__ZN6il2cpp2os6Thread10RunWrapperEPv
Rtc:__Z22TransferField_NonArrayI8JSONRead27Converter_SimpleNativeClassI8GUIStyleEEvRK23StaticTransferFieldInfoR31RuntimeSerializationCommandInfoRT0_
Og:_llvm_eh_typeid_for
b0b:__Z13RegisterClassI10GameObjectEvv
P1i:__ZNK15dense_hashtableINSt3__24pairIK10KeyWrapperIN6il2cpp5utils13dynamic_arrayIPK10Il2CppTypeLj4EEEEPFvvEEESA_NS3_8metadata19Il2CppSignatureHashEN14dense_hash_mapISA_SD_SG_NSA_14EqualsComparerINSF_22Il2CppSignatureCompareEEENS0_9allocatorISE_EEE9SelectKeyESK_SM_E5beginEv
_bg:__ZL53HashValues_t2390200547_CustomAttributesCacheGeneratorP21CustomAttributesCache
mGf:_X509BasicConstraintsExtension_get_PathLengthConstraint_m3004531343
Qy:__ZNK23AnimationPlayableOutput7GetTypeEv
bCi:_GUIUtility_BeginGUI_m2381890998
oQe:_MissingMemberException__ctor_m4277447068
sYe:_List_1_Find_m1881447651_gshared
xzb:__Z18Transfer_BlittableI18StreamedBinaryReadILb0EELb1E8Vector4fEvRK29SerializationCommandArgumentsR31RuntimeSerializationCommandInfo
ouj:__ZN6il2cpp2vm6Method8GetParamEPK10MethodInfoj
YHe:_Int64_CompareTo_m1953686218
LVj:_glBindVertexArray__wrapper
Rcd:_DSA_Create_m3450041777
SQa:__ZN8Material8TransferI14SafeBinaryReadEEvRT_
RTa:__ZN12CubemapArray17UploadToGfxDeviceEv
Ivh:_ScrollRect_AdjustBounds_m1033723448
EXb:__ZN18ScreenManagerWebGL13SetShowCursorEb
f4:__ZN13RuntimeStaticI21AssetReferenceStorageLb0EE16StaticInitializeEPv
X4:__ZN15dense_hashtableINSt3__24pairIKiiEEi21InstanceIDHashFunctorN14dense_hash_mapIiiS4_NS0_8equal_toIiEE13stl_allocatorIS3_L18MemLabelIdentifier67ELi16EEE9SelectKeyES7_SA_E14squash_deletedEv
_Gf:_X509Chain_CheckRevocationOnChain_m2441901351
Nyj:__ZN6il2cpp2vm13ManagedObject14QueryInterfaceERK10Il2CppGuidPPv
r2f:_Type_GetMethod_m3650909507
VG:__ZN11AudioSource4StopEb
RHj:_frexp
cpb:__ZN14SafeBinaryRead21TransferSTLStyleArrayI13dynamic_arrayI10Matrix4x4fLj4EEEEvRT_17TransferMetaFlags
yef:_Collection_1_CheckWritable_m732350052_gshared
tJa:__ZN15LODGroupManager26CollectAllLODGroupManagersERK16CoreCameraValuesR13dynamic_arrayIPS_Lj4EEb
AOd:_Byte_System_IConvertible_ToDecimal_m1036493607
cFb:__Z25GetSplashScreenBackgroundRK5RectTIfE
eSh:_InternalEnumerator_1_System_Collections_IEnumerator_get_Current_m1679297177_gshared
A$h:_DefaultComparer_Compare_m1247109616_gshared
d1h:_ResourceManager__ctor_m498829021
qsa:__ZN18GlslGpuProgramGLESD2Ev
cXb:__ZN13RenderTexture14SetVolumeDepthEi
Okh:__Z88RuntimeInvoker_Int32_t2071877448_UIVertex_t1204258818_UIVertex_t1204258818_RuntimeObjectPFvvEPK10MethodInfoPvPS4_
bSf:_SerializationCallbacks__ctor_m722356782
vuc:__ZN10Matrix4x4f8TransferI8JSONReadEEvRT_
kLc:__ZN14SafeBinaryRead21TransferSTLStyleArrayI13dynamic_arrayIN4core17string_with_labelILi35EEELj4EEEEvRT_17TransferMetaFlags
oDc:__ZThn4_N16PhysicsManager2D9PostSolveEP9b2ContactPK16b2ContactImpulse
h$:__ZN17PersistentManager18ReadObjectThreadedEi
Cea:__ZN25TransformFeedbackSkinning31CleanupTransformFeedbackShadersEv
iJa:__Z22scripting_object_unbox18ScriptingObjectPtr
oMc:__ZNK20TextRenderingPrivate8FontImpl19GetCharacterAdvanceEjijfPj
UEj:__ZN6il2cpp6icalls8mscorlib4Mono8Security12Cryptography18KeyPairPersistence16_IsUserProtectedEP12Il2CppString
MCf:_DefaultUriParser__ctor_m4218024811
hRg:_DerivedType_GetField_m3960169619
t4d:_Decimal_System_IConvertible_ToInt16_m3159038792_AdjustorThunk
K_a:__ZN10VertexData8TransferI18StreamedBinaryReadILb0EEEEvRT_
dze:_PKCS12_GetExistingParameters_m2413397265
URi:_Nullable_1_get_Value_m1743067844_gshared
H8a:__ZN14PreloadManager16UpdatePreloadingEv
jwj:__ZN14dense_hash_mapI10KeyWrapperIPK19Il2CppGenericMethodEP10MethodInfoN6il2cpp8metadata23Il2CppGenericMethodHashENS4_14EqualsComparerINS8_26Il2CppGenericMethodCompareEEENSt3__29allocatorINSD_4pairIKS4_S6_EEEEEC2EjRKS9_RKSC_
$fi:_Color32_op_Implicit_m3337994915
lV:__ZNK21UnityDefaultAllocatorI17LowLevelAllocatorE8ContainsEPKv
Yh:_emscripten_get_main_loop_timing
pKe:_DirectoryInfo__ctor_m3750996792
Qwd:_BaseMeshEffect_ModifyMesh_m2134816219
VYa:__ZN24GenerateTypeTreeTransfer21TransferSTLStyleArrayINSt3__26vectorIN15QualitySettings14QualitySettingENS1_9allocatorIS4_EEEEEEvRT_17TransferMetaFlags
N4a:__ZNSt3__26vectorI9InputAxisNS_9allocatorIS1_EEE6resizeEj
XLb:__ZN13BatchRendererC2ER15RenderLoopStatsRK15RenderNodeQueuebbb
lkd:_SecurityElement_IsValidAttributeValue_m483287146
Whb:__ZNK2UI13RectTransform22GetTypeVirtualInternalEv
np:getTempRet0
qFd:_Image_AddQuad_m1603575622
hrf:_PrivateKeyInfo_RemoveLeadingZero_m3396807048
ylj:__ZN6il2cpp6icalls8mscorlib6System9ThreadingL21lookup_cached_cultureEP12Il2CppThreadi
oSb:__ZN18DeferredRenderLoopD2Ev
fva:__ZNK16TypeTreeIterator4NameEv
DKi:_PCMReaderCallback_Invoke_m877950113
s2:__ZN15FileSystemEntry3SetEPKc
H8i:_il2cpp_method_has_attribute
Led:_MACTripleDES__ctor_m884945242
vui:_RenderTexture_get_height_m428170183
oBi:_GUILayoutGroup_SetHorizontal_m4089360220
II:__ZN20SoundChannelInstance15ParameterBuffer5ApplyEPN4FMOD7ChannelE
lMc:__ZN20TextRenderingPrivate19NativeTextGenerator9InsertTabEv
a1a:__ZN14SafeBinaryRead21TransferSTLStyleArrayI13dynamic_arrayI16BlendShapeVertexLj4EEEEvRT_17TransferMetaFlags
k6c:__ZN11UnityEngine15PlatformWrapper24GetRuntimePlatformStringEv
Hi:_glIsEnabled
Unb:__Z25scripting_class_get_image17ScriptingClassPtr
wqi:_PlayableAsset_Internal_CreatePlayable_m2166162235
p8a:__ZNSt3__26vectorIN4core12basic_stringIcNS1_20StringStorageDefaultIcEEEE13stl_allocatorIS5_L18MemLabelIdentifier13ELi16EEEC2INS_11__wrap_iterIPS5_EEEET_SE_RKS8_PNS_9enable_ifIXaasr21__is_forward_iteratorISE_EE5valuesr16is_constructibleIS5_NS_15iterator_traitsISE_E9referenceEEE5valueEvE4typeE
Li:_emscripten_glDrawElementsInstanced
Gx:__ZN26AnimatorControllerPlayable27SetupStateMachineBehavioursEv
Jpf:_ARC4Managed_Dispose_m4102232694
bqf:_HMAC_Initialize_m3052649104
XKa:__ZN18JobBatchDispatcherD2Ev
Rhb:__ZN9Transform17MainThreadCleanupEv
qBj:_GC_clear_hdr_marks
JQj:_glScissor__wrapper
HWj:_emscripten_glCreateShader__wrapper
cUc:_cff_fd_select_get
Efg:__ZL73CompilationRelaxationsAttribute_t238494011_CustomAttributesCacheGeneratorP21CustomAttributesCache
Z9c:__ZN11UnityEngine15PlatformWrapper23GetApplicationBuildGUIDEv
ere:_MSCompatUnicodeTable_GetTailoringInfo_m2792223347
aCf:_NameObjectCollectionBase_get_Keys_m446053925
Wi:_emscripten_glGetShaderiv
IJ:__ZN4FMOD6System10getVersionEPj
zge:_Array_InternalArray__IndexOf_TisSByte_t454417549_m1427585061_gshared
XZc:__ZN2UI6Canvas23VirtualRedirectTransferER24GenerateTypeTreeTransfer
gYd:_Decimal_u64_m3991988111
vSi:_Predicate_1_BeginInvoke_m2959352225_gshared
Wni:_X509Certificate_Parse_m1764345628
z6h:_SynchronizationAttribute_GetClientContextSink_m1264319894
Zrc:__ZN9JSONWrite8TransferIN4math12int2_storageEEEvRT_PKc17TransferMetaFlags
YKc:__ZN13TextRendering4Font13AwakeFromLoadE17AwakeFromLoadMode
Kki:_Mathf_Pow_m1117712374
_eh:__Z70RuntimeInvoker_Void_t1841601450_Guid_t_RuntimeObject_Int32_t2071877448PFvvEPK10MethodInfoPvPS4_
rba:__ZN9GfxDevice21ReleaseSharedMeshDataEP14SharedMeshData
C5a:__ZNSt3__27__sort5IRNS_6__lessINS_4pairIPKN5Unity4TypeE7Hash128EES8_EEPS8_EEjT0_SC_SC_SC_SC_T_
Fbf:_Collection_1_ConvertItem_m3168406667_gshared
xAj:_GC_unreachable_finalize_mark_proc
gzi:_WaitForSecondsRealtime_get_keepWaiting_m4138104467
rih:__Z70RuntimeInvoker_Single_t2076509932_Int32_t2071877448_Single_t2076509932PFvvEPK10MethodInfoPvPS4_
Wgc:__Z43RectTransform_CUSTOM_INTERNAL_get_anchorMaxP12Il2CppObjectP13Vector2fIcall
X0g:__Z50RuntimeInvoker_Void_t1841601450_Single_t2076509932PFvvEPK10MethodInfoPvPS4_
s3d:_DateTimeOffset_get_DateTime_m229084964_AdjustorThunk
aWa:__ZN8Material28UpdateHashesOnPropertyChangeEN9ShaderLab16FastPropertyNameE
Ehc:__Z53Register_UnityEngine_SortingLayer_GetLayerValueFromIDv
LJe:_DirectoryInfo_get_Parent_m1198766078
ITd:_CaseInsensitiveComparer_Compare_m1192858479
Mmb:__Z18Transfer_BlittableI14SafeBinaryReadLb1E8Vector4fEvRK29SerializationCommandArgumentsR31RuntimeSerializationCommandInfo
LJd:_LayoutRebuilder_Clear_m2390054824
Dda:__ZN13GfxDeviceGLES20SetComputeBufferDataE15ComputeBufferIDPKvjj
uPg:_Default_SelectMethod_m622251293
KL:__ZN11AudioSource12AddToManagerEv
Csd:_ExecuteEvents_Execute_m1429058057
lz:__ZN11UnityEngine9Animation32CreateAnimatorGenericBindingsOptERKNS0_20AnimationSetBindingsER9TransformPKN7mecanim9animation14AvatarConstantEPKNS0_21AvatarBindingConstantEbRNS6_6memory9AllocatorER8Animator
_oj:__ZN6il2cpp2vm5Image13ClassFromNameEPK11Il2CppImagePKcS6_
LMj:dynCall_vdddddd
Heb:__ZN24GenerateTypeTreeTransfer21TransferSTLStyleArrayINSt3__26vectorIN9ShaderLab14SerializedPassENS1_9allocatorIS4_EEEEEEvRT_17TransferMetaFlags
_Z:__ZL32MarkLevelGameManagerDependenciesR27GarbageCollectorThreadState
Kda:__ZNK13GfxDeviceGLES26HasActiveRandomWriteTargetEv
ARj:_glGetActiveUniformsiv__wrapper
Bhc:__Z43Register_UnityEngine_Material_EnableKeywordv
p0:__ZN13MonoBehaviour19SetupScriptingCacheE17ScriptingClassPtrP10MonoScript
sr:__Z20AnimationEventToMonoRK14AnimationEventR18MonoAnimationEvent
F$:__ZN17PersistentManager29ReadAndActivateObjectThreadedEiRK26SerializedObjectIdentifierP14SerializedFilebb
SCh:_ShimEnumerator_get_Current_m3610131784_gshared
$yg:__ZL74UnityEventBase_t828812576_CustomAttributesCacheGenerator_m_PersistentCallsP21CustomAttributesCache
M6:__ZZN15DirectorManager15InitializeClassEvEN52PreLateUpdateDirectorUpdateAnimationBeginRegistrator7ForwardEv
wnj:__ZN6il2cpp2vm13LivenessState18ShouldProcessValueEP12Il2CppObjectP11Il2CppClass
Yph:__Z49RuntimeInvoker_UIVertex_t1204258818_RuntimeObjectPFvvEPK10MethodInfoPvPS4_
$ki:_Matrix4x4_GetHashCode_m375571566
GCi:_InvokableCall_1__ctor_m1584932671_gshared
ceb:__ZNSt3__26vectorIN9ShaderLab14SerializedPassENS_9allocatorIS2_EEE8__appendEj
tdb:__ZNSt3__26vectorIN9ShaderLab20SerializedSubProgram13BufferBindingENS_9allocatorIS3_EEEC2INS_11__wrap_iterIPS3_EEEET_SB_RKS5_PNS_9enable_ifIXaasr21__is_forward_iteratorISB_EE5valuesr16is_constructibleIS3_NS_15iterator_traitsISB_E9referenceEEE5valueEvE4typeE
eDc:__ZNK16PhysicsManager2D21GetAutoSyncTransformsEv
_yc:__ZN12b2WheelJoint24SolveVelocityConstraintsERK12b2SolverData
Aih:__Z133RuntimeInvoker_RuntimeObject_Vector2_t2243707579_Vector2_t2243707579_Single_t2076509932_Int32_t2071877448_RuntimeObject_RuntimeObjectPFvvEPK10MethodInfoPvPS4_
JVa:__ZN9Texture2D23VirtualRedirectTransferER18StreamedBinaryReadILb0EE
SBc:__ZN10Collider2D8TransferI24GenerateTypeTreeTransferEEvRT_
M6d:_Double_System_IConvertible_ToUInt16_m286326038_AdjustorThunk
jQf:_TypeInfo__ctor_m1475908211
JAg:__ZL73g_UnityEngine_TextRenderingModule_Assembly_CustomAttributesCacheGeneratorP21CustomAttributesCache
Y0:__ZN16ScriptingManager27NativeTypeForScriptingClassE17ScriptingClassPtr
$Gf:_X509Chain_WrapUp_m1072032285
ppi:_X509CertificateEnumerator_System_Collections_IEnumerator_MoveNext_m1448966539
iRc:_get_sfnt_table
jaf:_Collection_1_IsSynchronized_m3261594010_gshared
Btd:_PointerEventData_set_pressPosition_m2094137883
pVf:_DES_get_Key_m2584608215
JTb:__ZL22ScheduleSceneNodesJobsP25ScheduleSceneNodesJobDataj
Kk:_emscripten_set_canvas_size
vof:_BigInteger_op_Subtraction_m972393015
Gvj:__GLOBAL__sub_I_Thread_cpp_38153
Ldb:__ZNSt3__26vectorIN9ShaderLab20SerializedSubProgramENS_9allocatorIS2_EEE8__appendEj
VV:__ZN20DynamicHeapAllocatorI17LowLevelAllocatorE8AllocateEji
U3c:__ZN11UnityEngine9Analytics15UserCustomEvent12ToJsonStringER9JSONWrite
wMb:__ZN20DynamicPropertySheet15SetVectorQueuedERKN9ShaderLab16FastPropertyNameERK8Vector4fN19ShaderPropertySheet8SetFlagsE
Yod:_String_Format_m1263743648
zjf:_ReadOnlyCollection_1_System_Collections_IEnumerable_GetEnumerator_m4248982967_gshared
nA:__ZN7mecanim9animation22EvaluateAvatarRetargetEPKNS0_14AvatarConstantEPKNS0_11AvatarInputEPNS0_12AvatarOutputEPNS0_12AvatarMemoryEPNS0_15AvatarWorkspaceEb
NNa:__ZN14RenderSettings23VirtualRedirectTransferER19StreamedBinaryWriteILb0EE
wqc:__ZL26Transfer_SimpleNativeClassI9JSONWrite10RectOffsetLb0EEvRK29SerializationCommandArgumentsR31RuntimeSerializationCommandInfo
O0a:__ZN14SafeBinaryRead21TransferSTLStyleArrayI13dynamic_arrayI12BoneWeights4Lj16EEEEvRT_17TransferMetaFlags
RAj:_GC_push_conditional
f4c:__ZN21UnityAnalyticsManager23VirtualRedirectTransferER24GenerateTypeTreeTransfer
Lha:__ZN17GenericDynamicVBO10AllocateVBEjR21DynamicVBOChunkHandle
JZe:_List_1_get_Item_m1547593893_gshared
aKe:_Path_GetPathRoot_m1269357080
zqj:__ZN30dense_hashtable_const_iteratorI10KeyWrapperIP18Il2CppGenericClassES3_N6il2cpp8metadata22Il2CppGenericClassHashEN14dense_hash_setIS3_S6_NS3_14EqualsComparerINS5_25Il2CppGenericClassCompareEEENSt3__29allocatorIS3_EEE8IdentityESA_SD_EppEv
Qrd:_EventSystem_SetSelectedGameObject_m2211816110
il:_glMapBufferRange
BVa:__ZN9Texture2D8TransferI18StreamedBinaryReadILb0EEEEvRT_
Ffc:__Z31Input_CUSTOM_GetMouseButtonDowni
Pgc:__Z75Register_UnityEngine_Playables_PlayableHandle_INTERNAL_CALL_IsValidInternalv
P6b:__ZN13PlayableGraph4PlayEv
oEa:__ZNK9Transform16GetLocalPositionEv
jya:__ZN13LoadOperation19IntegrateTimeSlicedEi
rPh:_ArrayReadOnlyList_1_get_Item_m176001975_gshared
Kze:_X501__cctor_m3795360380
Vda:__ZN13GfxDeviceGLES22DispatchComputeProgramE12ObjectHandleI18ComputeProgram_TagPvE15ComputeBufferIDj
f$d:_Convert_ToInt32_m2297793940
eab:__Z17TransformAABBSlowRK4AABBRK10Matrix4x4fRS_
Lhj:__ZN13Il2CppHashMapINSt3__24pairIPK9FieldInfoP11Il2CppClassEEj17ReflectionMapHashIS7_ENS0_8equal_toIS7_EENS0_9allocatorINS1_IK10KeyWrapperIS7_EjEEEEEC2EjRKS9_RKSB_
ucb:__ZN9ShaderLab21SerializedShaderState8TransferI14SafeBinaryReadEEvRT_
XJj:_ftruncate
ohd:_RSAPKCS1SignatureFormatter_SetKey_m2365816458
ZUc:_cf2_stack_pushInt
eri:_PropertyName__ctor_m4147171238_AdjustorThunk
$Zf:_CompressedStack__ctor_m276924800
dtd:_ExecuteEvents_get_cancelHandler_m1964324668
FRa:__ZN15SerializeTraitsINSt3__24pairIN4core12basic_stringIcNS2_20StringStorageDefaultIcEEEES6_EEE8TransferI24GenerateTypeTreeTransferEEvRS7_RT_
TTj:b89
STj:b88
Cki:_Mathf_Sin_m712860563
nyi:_Vector3_Dot_m827632793
kTj:b81
jTj:b80
Spa:__ZN7ApiGLES19CreateSparseTextureEjj14GraphicsFormatiiiiRiS1_S1_
I1:__ZN18ResourceImageGroup7CleanupEv
ATj:b85
zTj:b84
ITj:b87
HTj:b86
Hmh:__Z68RuntimeInvoker_Void_t1841601450_Int32_t2071877448_Double_t4078015681PFvvEPK10MethodInfoPvPS4_
U4b:__ZN13ProduceHelperI4MeshLb0EE7ProduceE18MemLabelIdentifier18ObjectCreationMode
frf:_PrivateKeyInfo_Decode_m1053025782
Nye:_PKCS12_Decrypt_m2457743414
XSa:__ZN8Playable19SetOutputConnectionEPS_i
V_i:__ZN15dense_hashtableINSt3__24pairIK10KeyWrapperIPK11Il2CppClassEPKcEES6_N6il2cpp5utils11PointerHashIS3_EEN14dense_hash_mapIS6_S9_SE_NS6_14EqualsComparerINS0_8equal_toIS5_EEEENS0_9allocatorISA_EEE9SelectKeyESJ_SL_EC2ERKSO_j
Xl:_glDeleteShader
C8d:_Exception_GetType_m3898489832
Kla:__ZN6prcoreL17RemapGenericFloatI15TexFormatRGHalf16TexFormatRGFloatEEvPKNS_9InnerInfoE
iWi:_CustomEventData_InternalCreate_m2399239074
o7e:_Stack_1_Peek_m1548778538_gshared
mBi:_GUILayoutUtility_get_spaceStyle_m4248899869
mxh:_Shadow_set_effectColor_m3110056844
vbc:__Z27scripting_add_internal_callPKcPKv
gke:_Array_InternalArray__Insert_TisUriScheme_t1876590943_m2728325409_gshared
vhj:__ZN13Il2CppHashMapINSt3__24pairIPK9EventInfoP11Il2CppClassEEj17ReflectionMapHashIS7_ENS0_8equal_toIS7_EENS0_9allocatorINS1_IK10KeyWrapperIS7_EjEEEEEC2EjRKS9_RKSB_
Cpi:_X509Store_CheckStore_m1027496478
Js:__ZN26AnimatorControllerPlayable18SetLayerAutoWeightEv
n3c:__Z44Register_UnityEngine_Canvas_get_pixelPerfectv
xKj:__ZNSt3__212basic_stringIcNS_11char_traitsIcEENS_9allocatorIcEEEC2ERKS5_jjRKS4_
Hod:_String_Contains_m4017059963
g$h:_DefaultComparer_Compare_m1606207039_gshared
A0c:__ZN2UI14CanvasRenderer12SyncMaterialENS0_8SyncFlagE
MEj:__ZN6il2cpp2vm9Parameter30GetDefaultParameterValueObjectEPK10MethodInfoPK13ParameterInfoPb
Wke:_Array_InternalArray__set_Item_TisLabelData_t3712112744_m2253365137_gshared
oOe:_StringReader__ctor_m643998729
DDf:_IPv6Address_TryParse_m2220524278
_Qc:_UNITY_tt_face_done_kern
o5h:_Context_get_DefaultContext_m2211922324
q1a:__ZN12BoneWeights48TransferI24GenerateTypeTreeTransferEEvRT_
wrf:_RSAManaged_GetPaddedValue_m2972141669
Xvh:_ScrollRect_OnDrag_m1424848249
xEb:__Z19scripting_gc_enablev
THb:__ZZ23InitPlayerLoopCallbacksvEN41InitializationPlayerUpdateTimeRegistrator7ForwardEv
zai:_AnchorInfo__ctor_m617409099
o2c:__Z55Register_UnityEngine_CanvasRenderer_DisableRectClippingv
uLf:_Interval_CompareTo_m2909556284_AdjustorThunk
P0a:__ZN14SafeBinaryRead21TransferSTLStyleArrayI13dynamic_arrayI11ColorRGBA32Lj4EEEEvRT_17TransferMetaFlags
lKf:_Interpreter_GetLastDefined_m2450713313
S9h:_Parser_ParseAssertionType_m3316669790
pgb:__ZN9ShaderLab7Program27CreateFromSerializedProgramERKNS_17SerializedProgramE10ShaderTypeiP16PropertyNamesSetPK6Shader
Pwh:_Selectable_get_isPointerDown_m774209881
Lhb:__ZNSt3__27__sort4IRNS_6__lessIN4core12basic_stringIcNS2_20StringStorageDefaultIcEEEES6_EEPS6_EEjT0_SA_SA_SA_T_
qNj:dynCall_viiiifii
Zfj:__ZN6il2cpp2gc19AppendOnlyGCHashMapINSt3__24pairIPK11Il2CppImageP11Il2CppClassEEP22Il2CppReflectionModule17ReflectionMapHashIS9_ENS2_8equal_toIS9_EEEC2Ev
e$:__Z20GetPersistentManagerv
cYc:_UNITY_TT_Set_Var_Design
LX:__ZN21SystemInfoStringCache16StaticInitializeEPv
Tsf:_TlsStream__ctor_m4117943603
Mcj:__ZN15dense_hashtableINSt3__24pairIK10KeyWrapperIPK10Il2CppTypeEjEES6_N6il2cpp8metadata14Il2CppTypeHashEN14dense_hash_mapIS6_jSB_NS6_14EqualsComparerINSA_26Il2CppTypeEqualityComparerEEENS0_9allocatorIS8_EEE9SelectKeyESF_SH_E12maybe_shrinkEv
Eyh:_Text_FontTextureChanged_m4236993972
ovj:__ZN6il2cpp2gc16GarbageCollector23MakeDescriptorForObjectEPji
c_g:_ParameterModifier_t1820634920_marshal_pinvoke
LBb:__ZNK13MonoBehaviour7GetNameEv
kbb:__ZN19ScriptingInvocation28AdjustArgumentsToMatchMethodEv
Lqj:__ZN15dense_hashtableI10KeyWrapperIP18Il2CppGenericClassES3_N6il2cpp8metadata22Il2CppGenericClassHashEN14dense_hash_setIS3_S6_NS3_14EqualsComparerINS5_25Il2CppGenericClassCompareEEENSt3__29allocatorIS3_EEE8IdentityESA_SD_E6insertERKS3_
wG:__Z15_CheckFMODError11FMOD_RESULTPKciS1_
aMa:__Z20RenderMultipleMeshesRK15RenderNodeQueueRK18RenderMultipleData17ShaderChannelMask
Uaj:__ZN6il2cpp2vm4Type19GetGenericParameterEPK10Il2CppType
Q1c:__Z51Register_UnityEngine_CanvasGroup_get_blocksRaycastsv
BZh:_InternalEnumerator_1_get_Current_m2826780083_gshared
oce:_Array_InternalArray__ICollection_Remove_TisCustomAttributeNamedArgument_t94157543_m2838387005_gshared
yd:_glBeginQuery
oOg:_Assembly_GetCustomAttributes_m95309865
cJc:__ZN10Effector2D25CheckEffectorColliderMaskEP10Collider2DS1_
pJb:__ZN6Camera12RenderStereoENS_10RenderFlagE8CullFlagPNS_24PerformEyeRenderFunctionE
_jb:__ZN20LocalFileSystemPosix10ToAbsoluteEPKc
IDd:_GridLayoutGroup__ctor_m1099847132
eX:__GLOBAL__sub_I_runtime_input_0_cpp
V7d:_Enum_ToObject_m275924358
Em:f0
ORd:_ArrayListWrapper_set_Capacity_m2792463350
MIj:_getcwd
dYf:_StringBuilder_Append_m1128243247
BEc:__ZN16b2CapsuleContact6CreateEP9b2FixtureiS1_iP16b2BlockAllocator
txa:__ZN25ThreadsafeLinearAllocatorD2Ev
Ble:_Array_InternalArray__set_Item_TisVector4_t2243707581_m3878172417_gshared
z9a:__Z21SendMessageToEveryoneRK17MessageIdentifier11MessageData
P4:__ZN21BillboardBatchManager16StaticInitializeEPv
cZ:__ZN12_GLOBAL__N_138ArchiveRedirectFileSystemStaticDestroyEPv
t8d:_EventHandler_Invoke_m1137722757
OTa:__ZN12CubemapArray34UpdateFileTextureUploadInstructionEP26FileAssetUploadInstructionj
LRe:_MonoType_IsSubclassOf_m2211166238
_af:_Collection_1_System_Collections_ICollection_CopyTo_m2859266050_gshared
Rpa:__Z23CreateSparseTextureGLES9TextureIDii14GraphicsFormati
ABj:_GC_continue_reclaim
YIe:_InvalidCastException__ctor_m2730571470
GIf:_X509ChainElementCollection_System_Collections_IEnumerable_GetEnumerator_m2559704689
WFf:_PublicKey_get_Key_m126090744
eNc:__ZNSt3__23mapIN20TextRenderingPrivate7FontRefEP11FT_FaceRec_NS_4lessIS2_EENS_9allocatorINS_4pairIKS2_S4_EEEEEixERS9_
Gza:__ZN17ArchiveFileSystem10AddStorageEP20ArchiveStorageReader
Cmi:_Object_INTERNAL_CALL_Internal_InstantiateSingle_m846595043
Q$d:_Convert_ToSingle_m690748777
_xc:__ZNK12b2MotorJoint16GetReactionForceEf
VMh:_EqualityComparer_1_System_Collections_IEqualityComparer_GetHashCode_m1203798961_gshared
gZi:__ZN6il2cpp2vm5Class15GetEnumBaseTypeEP11Il2CppClass
RUa:__ZNK9Texture2D16GetNpotTexelSizeEv
brh:_Mask_get_rectTransform_m3304369086
$eh:__Z78RuntimeInvoker_Void_t1841601450_ScriptableRenderContext_t4271526_RuntimeObjectPFvvEPK10MethodInfoPvPS4_
Qha:__ZN9GfxDevice22GetDefaultVertexBufferE26GfxDefaultVertexBufferTypej
Wif:_ReadOnlyCollection_1_System_Collections_ICollection_CopyTo_m1129689124_gshared
cJj:___fseeko_unlocked
uTj:_glGetActiveUniform__wrapper
WIj:_sscanf
c1a:__ZN14SafeBinaryRead21TransferSTLStyleArrayINSt3__26vectorI17BlendShapeChannelNS1_9allocatorIS3_EEEEEEvRT_17TransferMetaFlags
xFb:__Z17BeginSplashScreenv
tfb:__ZN9ShaderLab16SerializedShader8TransferI19StreamedBinaryWriteILb0EEEEvRT_
N3f:_UInt32_Parse_m2400360707
IC:__ZN7mecanim9animation18CreateAvatarMemoryEPKNS0_14AvatarConstantERNS_6memory9AllocatorE
tXd:_Stack_Pop_m3788808882
LAh:_Enumerator_VerifyCurrent_m4246196125_AdjustorThunk
U2d:_DateTime_op_Equality_m1867073872
xB:__ZN7mecanim8skeleton16SkeletonPoseCopyIN4math4trsXENS2_7affineXEEEvPKNS0_13SkeletonPoseTIT_EEPNS5_IT0_EE
vha:__ZN18GfxFramebufferGLES18GetFramebufferNameERK20GfxRenderTargetSetup
Nmc:__Z30Event_Get_Custom_PropCharacterP12Il2CppObject
f6:__ZN13PlayableGraph27SchedulePlayableDestructionERK9HPlayable
DQj:_glGetFramebufferAttachmentParameteriv__wrapper
rad:__Z13RegisterClassI20UnityConnectSettingsEvv
Rnb:__Z22scripting_array_length17ScriptingArrayPtr
hkd:_SecurityElement_GetAttribute_m4288291176
HFi:_IndexedSet_1_get_Count_m2839545138_gshared
aUa:__ZN14SafeBinaryRead20TransferTypelessDataEjPvi
Hfg:__ZL66StringFreezingAttribute_t2691375565_CustomAttributesCacheGeneratorP21CustomAttributesCache
f3a:__ZN14SpriteRenderer18UpdateCachedSpriteEb
$M:__ZN13dynamic_arrayI12SoundChannelLj4EE9push_backERKS0_
qpa:__Z19GetActiveColorSpacev
mNh:_EqualityComparer_1__cctor_m1672307556_gshared
HOf:_SoapTypeAttribute_get_IsInteropXmlElement_m2941294827
rQc:_UNITY_tt_face_load_kern
tWe:_Enumerator_System_Collections_IEnumerator_get_Current_m3542273247_gshared
dQd:_Char_System_IConvertible_ToUInt32_m1557991717_AdjustorThunk
iXf:_Encoding_get_UTF8Unmarked_m628720656
QFe:_NumberFormatter_RoundBits_m1545255255
wY:__Z6StrCmpPKcS0_
Zgb:__Z21CheckGpuProgramUsable20ShaderGpuProgramType
dPg:_Binder__cctor_m3736115807
xuj:__ZN6il2cpp2os9Directory20GetFileSystemEntriesERKNSt3__212basic_stringIcNS2_11char_traitsIcEENS2_9allocatorIcEEEESA_iiPi
Kkh:__Z84RuntimeInvoker_Int32_t2071877448_Color32_t874517518_Color32_t874517518_RuntimeObjectPFvvEPK10MethodInfoPvPS4_
yKh:_Dictionary_2_OnDeserialization_m2160537783_gshared
dMc:__ZN20TextRenderingPrivate19NativeTextGenerator5SetupEv
WQb:__ZNK15SharedLightData24GetFinalShadowResolutionEv
G6a:__ZN12AspectRatios8TransferI18StreamedBinaryReadILb0EEEEvRT_
n6b:__ZN10GameObject14CopyPropertiesERS_
Bnc:__Z44Register_UnityEngine_GUIStyle_get_fixedWidthv
Ogd:_RSACryptoServiceProvider_Common_m2581564813
coi:_X509CertificateEnumerator_MoveNext_m4060814498
bui:_Vector2_Scale_m2260641886
oMe:_MemoryStream_CheckIfClosedThrowDisposed_m2253054610
PPh:_ArrayReadOnlyList_1_GetEnumerator_m634288642_gshared
IZa:__ZNK13ScreenManager12IsFullScreenEv
xJj:_rand
eRj:_emscripten_glFramebufferRenderbuffer__wrapper
weh:__Z72RuntimeInvoker_Boolean_t3825574718_Ray_t2469606224_SingleU26_t4173844468PFvvEPK10MethodInfoPvPS4_
Yuj:__ZN6il2cpp5utils9PathUtils7CombineIcEENSt3__212basic_stringIT_NS3_11char_traitsIS5_EENS3_9allocatorIS5_EEEERKNS0_10StringViewIS5_EERKSA_
Nob:__ZN14SafeBinaryRead21TransferSTLStyleArrayINSt3__26vectorI17AnimationCurveTplIfE13stl_allocatorIS4_L18MemLabelIdentifier1ELi16EEEEEEvRT_17TransferMetaFlags
xRf:_ObjectManager_RegisterObject_m872610295
sTb:__Z22PrepareOptimizedPlanesPK5PlaneiPKN4math7_float4E
dti:_RectOffset_t3387826427_marshal_pinvoke
wCd:_Graphic_SetVerticesDirty_m1607014370
JU:__ZN11UnityEngine15CloudWebService17WebFileDownloaderINS0_20WebRequestRestClientENS0_23WebRequestRestHeaderMapEE10InitializeERKN4core12basic_stringIcNS5_20StringStorageDefaultIcEEEE
N4:__ZN17UniqueIDGenerator15CreatePureIndexEv
as:__ZN11UnityEngine9Animation28GenericAnimationBindingCache15DidReloadDomainEv
XAe:_AppDomain_InternalGetProcessGuid_m1278588156
LHd:_InputField_MoveRight_m386206014
v7a:__ZNSt3__26vectorIN15ResourceManager10DependencyE13stl_allocatorIS2_L18MemLabelIdentifier52ELi16EEE6assignINS_11__wrap_iterIPS2_EEEENS_9enable_ifIXaasr21__is_forward_iteratorIT_EE5valuesr16is_constructibleIS2_NS_15iterator_traitsISC_E9referenceEEE5valueEvE4typeESC_SC_
W1g:__Z116RuntimeInvoker_Boolean_t3825574718_RuntimeObject_Int32_t2071877448_RuntimeObject_Int32_t2071877448_Int32_t2071877448PFvvEPK10MethodInfoPvPS4_
sJe:_BinaryReader_ReadBoolean_m2892291883
wYi:__ZN15dense_hashtableINSt3__24pairIK10KeyWrapperIPK22Il2CppGenericParameterEP11Il2CppClassEES6_N6il2cpp5utils11PointerHashIS4_EEN14dense_hash_mapIS6_S9_SE_NS6_14EqualsComparerINS0_8equal_toIS5_EEEENS0_9allocatorISA_EEE9SelectKeyESJ_SL_E14squash_deletedEv
Pzc:__ZNK12b2MouseJoint17GetReactionTorqueEf
Xkc:__Z14GUIClipTextureP9Texture2DPhiiii
rVi:_AnimatorControllerPlayable__ctor_m4080566273
Rwf:_TlsServerCertificate_validateCertificates_m1988583701
cGa:__ZNK9Transform18TransformDirectionERK8Vector3f
hWj:_emscripten_glClearStencil__wrapper
J2i:__ZN15dense_hashtableINSt3__24pairIK10KeyWrapperIPK11Il2CppClassEPKcEES6_N6il2cpp5utils11PointerHashIS3_EEN14dense_hash_mapIS6_S9_SE_NS6_14EqualsComparerINS0_8equal_toIS5_EEEENS0_9allocatorISA_EEE9SelectKeyESJ_SL_E12resize_deltaEjj
iLj:__ZNK10__cxxabiv120__si_class_type_info27has_unambiguous_public_baseEPNS_19__dynamic_cast_infoEPvi
ROj:_glTexSubImage3D__wrapper
IJf:_FactoryCache_Add_m2602974721
Pha:__Z30AddDefaultStreamsToMeshBuffersR9GfxDeviceR11MeshBuffersj17ShaderChannelMaskS3_
GY:__ZL16GetInterfaceImpl18UnityInterfaceGUID
zCe:_RegionInfo_construct_internal_region_from_name_m3316088619
zZi:__ZN6il2cpp2vmL17SetupFieldOffsetsENS0_15FieldLayoutKindEP11Il2CppClassjRKNSt3__26vectorIjNS4_9allocatorIjEEEE
gYe:_List_1_System_Collections_IList_get_Item_m936612973_gshared
Jxj:__ZN6il2cpp6icalls8mscorlib6System15MonoCustomAttrs27GetCustomAttributesInternalEP12Il2CppObjectP20Il2CppReflectionTypeb
jYc:_UNITY_TT_Set_MM_Blend
hX:__GLOBAL__sub_I_runtime_math_random_0_cpp
HRf:_ObjectReader_ReadAssembly_m869834280
svi:_Sprite_INTERNAL_get_textureRect_m127050026
IFb:__ZN14PreloadManager35WaitForAllAsyncOperationsToCompleteEv
kff:_Collection_1_IsSynchronized_m971497175_gshared
Psd:_ExecuteEvents_Execute_m1617536317
Byh:_Text_get_cachedTextGeneratorForLayout_m1357670532
bI:__ZL31InitializeAudioScriptingClassesv
FKb:__Z14SortGUIByDepthP10GUIElementS0_
sGe:_NumberFormatter_NumberToString_m126384393
ISj:_emscripten_glVertexAttrib4fv__wrapper
kMf:_LogicalCallContext__ctor_m3173272863
fC:__ZN12_GLOBAL__N_120ProcessRootMotionMixER33AnimationPlayableEvaluationOutputR35AnimationPlayableEvaluationConstantR32AnimationPlayableEvaluationInputS1_f
XVi:_CustomEventData_AddChar_m2955651223
wQe:_MonoCustomAttrs__cctor_m2608447972
_Ee:_Int32_FindSign_m3803672540
r4g:__Z92RuntimeInvoker_Void_t1841601450_DateTime_t693205669_DateTime_t693205669_TimeSpan_t3430258949PFvvEPK10MethodInfoPvPS4_
Byj:__GLOBAL__sub_I_Assembly_cpp_38397
Akb:__ZNK20LocalFileSystemPosix21GetAvailableDiskSpaceEPKcRy
PX:__ZNSt3__26__treeIiNS_4lessIiEENS_9allocatorIiEEE7destroyEPNS_11__tree_nodeIiPvEE
pGf:_X509Certificate2__ctor_m1095336775
Eaa:__ZNK9GfxDevice14GetWorldMatrixEv
tZg:_MonoProperty_GetGetMethod_m1100580870
Qib:__Z19scripting_array_new17ScriptingClassPtrjj
PM:__ZN11SoundHandle13CreateChannelEb
rWa:__ZN14SafeBinaryRead21TransferSTLStyleArrayI13dynamic_arrayI12LightmapDataLj4EEEEvRT_17TransferMetaFlags
oBe:_ArgumentException__ctor_m3312963299
Sdb:__ZNSt3__26vectorIN9ShaderLab20SerializedSubProgram16TextureParameterENS_9allocatorIS3_EEE6assignIPS3_EENS_9enable_ifIXaasr21__is_forward_iteratorIT_EE5valuesr16is_constructibleIS3_NS_15iterator_traitsISA_E9referenceEEE5valueEvE4typeESA_SA_
n1i:__ZN13Il2CppHashMapIN6il2cpp5utils13dynamic_arrayIPK10Il2CppTypeLj4EEEPFvvENS0_8metadata19Il2CppSignatureHashENS9_22Il2CppSignatureCompareENSt3__29allocatorINSC_4pairIK10KeyWrapperIS6_ES8_EEEEEC2EjRKSA_RKSB_
NRi:_U3CCreateWhereIteratorU3Ec__Iterator1D_1_MoveNext_m3533253043_gshared
Fgj:__ZN15dense_hashtableINSt3__24pairIK10KeyWrapperIPK22Il2CppGenericParameterEPK24MonoGenericParameterInfoEES6_N6il2cpp5utils11PointerHashIS4_EEN14dense_hash_mapIS6_SA_SF_NS6_14EqualsComparerINS0_8equal_toIS5_EEEENS0_9allocatorISB_EEE9SelectKeyESK_SM_E15set_deleted_keyERKSB_
P_b:__ZN6prcoreL11inner_clearILj2EEEvPhjjj
lJf:_X509SubjectKeyIdentifierExtension__ctor_m3887138480
MUe:_Enumerator_System_Collections_IEnumerator_get_Current_m2853089017_AdjustorThunk
$yc:__ZN12b2WheelJoint24SolvePositionConstraintsERK12b2SolverData
Mg:_emscripten_exit_fullscreen
JFd:_InputField_get_mesh_m3276583786
P2h:_GCHandle_Free_m1639542352_AdjustorThunk
hQc:_sfnt_done_face
Htj:__ZN6il2cpp6icalls8mscorlib6System6String19InternalAllocateStrEi
Xuc:__Z29Transfer_Blittable_ArrayFieldI8JSONRead11QuaternionfEvRT_R9ArrayInfoRK23StaticTransferFieldInfo
Ldc:__Z45Register_UnityEngine_Camera_get_targetDisplayv
A4b:__ZNK24RendererAnimationBinding15GenerateBindingERKN4core12basic_stringIcNS0_20StringStorageDefaultIcEEEEbRN11UnityEngine9Animation14GenericBindingE
FKa:__Z15GetFlareManagerv
Y7h:_Enumerator_System_Collections_IEnumerator_get_Current_m1429268283
fhf:_ReadOnlyCollection_1_System_Collections_Generic_ICollectionU3CTU3E_Clear_m388357963_gshared
wHj:___toread
QDb:__ZNSt3__26vectorI10vector_mapIiiNS_4lessIiEE13stl_allocatorINS_4pairIiiEEL18MemLabelIdentifier38ELi16EEES4_IS9_LS7_38ELi16EEE26__swap_out_circular_bufferERNS_14__split_bufferIS9_RSA_EE
LLj:___cxa_is_pointer_type
PVi:_UnityAnalyticsHandler_InternalCreate_m427483392
Zod:_String_Concat_m56707527
hC:__ZN7mecanim9animation16EvaluateAvatarDXEPKNS0_14AvatarConstantEPKNS0_11AvatarInputEPNS0_12AvatarMemoryEPNS0_15AvatarWorkspaceEPNS0_12AvatarOutputE
Goa:__ZN4gles20DestroyRenderSurfaceEP7ApiGLESP17RenderSurfaceGLES
LUe:_Enumerator_System_Collections_IEnumerator_get_Current_m2853089017_gshared
Sic:__Z34Transform_CUSTOM_SetAsFirstSiblingP12Il2CppObject
Vva:__ZN17PersistentManager40GlobalToLocalSerializedFileIndexInternalERK26SerializedObjectIdentifier
KR:__ZN11UnityEngine15CloudWebService17SessionEventQueue14ParseEventDataERKN4core12basic_stringIcNS2_20StringStorageDefaultIcEEEE
zqd:_BaseEventData_get_selectedObject_m3551206992
cse:_SimpleCollator_CompareOrdinal_m2176988387
d9d:_CCGregorianCalendar_GetYear_m1289900195
qGe:_Int16_ToString_m2592645088
Nfa:__ZN13TranslateGLES4InitERK12GraphicsCaps16GfxDeviceLevelGL
aTf:_SerializationInfoEnumerator_Reset_m2206466680
_jc:__ZN18CrashReportManager12CloseServiceEv
cRj:_emscripten_glGetShaderPrecisionFormat__wrapper
V4c:__Z32CustomEventData_CUSTOM_AddUInt32P12Il2CppObjectP12Il2CppStringj
IJi:_GenericEqualityComparer_1_Equals_m1934771410_gshared
NEj:__ZN6il2cpp5utils9Exception26FormatInvalidCastExceptionEPK11Il2CppClassS4_
s2b:__ZN13ProduceHelperI10TagManagerLb0EE7ProduceE18MemLabelIdentifier18ObjectCreationMode
qFj:__ZN6il2cpp2os6Memory12AlignedAllocEjj
fzj:__ZN6il2cpp8metadataL7CompareEPK10Il2CppTypeS3_
EQg:_TypeBuilder_get_is_created_m736553860
orf:_RSAManaged__ctor_m1370411656
izb:__Z18Transfer_BlittableI18StreamedBinaryReadILb0EELb1E10ColorRGBAfEvRK29SerializationCommandArgumentsR31RuntimeSerializationCommandInfo
hri:_PropertyName_op_Equality_m112228798
Bbc:__ZL27GetComponentsImplementationILb0ELi0EEbR10GameObjectbRK17CompareParametersRK39GetComponentsImplementation_ReturnValue
wCb:__ZN9Scripting36IsSystemCollectionsGenericDictionaryE17ScriptingClassPtr
vth:_Raycast3DCallback_EndInvoke_m3234280377
kzd:_ColorTweenCallback__ctor_m3619686788
m2:__ZL16ReadTypeTreeImplILb0EEbR8TypeTreeRK16TypeTreeIteratorRPKhS6_i
hy:__ZN27AnimationLayerMixerPlayable16SetLayerMaskCopyEjRKN7mecanim6bitsetILj70EEEPKNS0_8skeleton12SkeletonMaskE
cOa:__ZNK22BuiltinResourceManager21GetResourceInstanceIDEPKN5Unity4TypeERKN4core12basic_stringIcNS4_20StringStorageDefaultIcEEEE
xfc:__Z42Register_UnityEngine_RectOffset_set_bottomv
YRd:_ArrayListWrapper_IndexOf_m3574835167
KMb:__ZN28LightProbeProxyVolumeContext8CopyFromERKS_
GEa:__ZN23TransformChangeDispatch32QueueTransformChangeIfHasChangedER18TransformHierarchy
Hoa:__ZN7ApiGLES18DeleteRenderbufferERj
lna:__ZL23ProgramUniformMatrix4fvPK7ApiGLESjiihPKv
Toa:__ZN7ApiGLES13CreateTextureEjj14GraphicsFormatiiiii
Adb:__ZN9ShaderLab20SerializedSubProgram15MatrixParameter8TransferI14SafeBinaryReadEEvRT_
Dbc:__ZL27GetComponentsImplementationILb0ELi1EEbR10GameObjectbRK17CompareParametersRK39GetComponentsImplementation_ReturnValue
qXc:_Round_Down_To_Grid
TZf:_UTF8Decoder__ctor_m1460357288
Tea:__ZN13RenderTexture7ReleaseEv
usc:__Z18Transfer_BlittableI8JSONReadLb1EN4math12int3_storageEEvRK29SerializationCommandArgumentsR31RuntimeSerializationCommandInfo
l2a:__ZN10MeshFilter23VirtualRedirectTransferER14SafeBinaryRead
mYd:_Convert_ToByte_m1201588964
v2a:__ZN12MeshRenderer17MainThreadCleanupEv
csa:__ZN22CreateGpuProgramOutput12CreateParamsEv
lJ:__ZN10ObjectPoolIN4FMOD7ChannelENS0_8ChannelIEE7GetFreeEi
Gdg:__ZL55EventBuilder_t2927243889_CustomAttributesCacheGeneratorP21CustomAttributesCache
Dfa:__ZNK14GfxContextGLES13GetDefaultFBOEv
zce:_Array_InternalArray__ICollection_Remove_TisSByte_t454417549_m2474211570_gshared
Eti:_RectTransform_set_anchorMax_m1168582032
l8b:__Z13GetImagePixelI10ColorRGBAfET_PKhii13TextureFormat15TextureWrapModeS5_ii
$7i:_il2cpp_class_is_enum
fkj:__ZN6il2cpp2vm6Thread49CheckCurrentThreadForInterruptAndThrowIfNecessaryEv
OHa:__ZNSt3__23mapIN9ShaderLab16FastPropertyNameEN18UnityPropertySheet11UnityTexEnvENS_4lessIS2_EENS_9allocatorINS_4pairIKS2_S4_EEEEEixERS9_
Xna:__ZNK13TranslateGLES25GetTextureTargetDimensionEj
KGd:_InputField_SetToCustom_m250029371
Ake:_Array_InternalArray__set_Item_TisByte_t3683104436_m1694926640_gshared
L8h:_PatternCompiler_EmitInfo_m597931026
Fof:_ModulusRing_Multiply_m3113924743
hic:__Z47Texture2D_CUSTOM_INTERNAL_CALL_GetPixelBilinearP12Il2CppObjectffR10ColorRGBAf
f_:__ZN9Scripting12LogExceptionE21ScriptingExceptionPtriPKcb
Mi:_emscripten_glVertexAttrib4f
Lgf:_ReadOnlyCollection_1_System_Collections_IEnumerable_GetEnumerator_m531171980_gshared
J1a:__ZN10Matrix4x4f8TransferI19StreamedBinaryWriteILb0EEEEvRT_
iti:_RectOffset__ctor_m976836251
bne:_Array_Sort_TisUILineInfo_t3621277874_m3105833015_gshared
eSe:_MonoType_GetGenericArguments_m2708198481
mYe:_List_1_AddEnumerable_m2489692396_gshared
ix:__ZN7mecanim12statemachine24CreateStateMachineMemoryEPKNS0_20StateMachineConstantERNS_6memory9AllocatorE
PEh:_Enumerator_get_Current_m419581838_AdjustorThunk
fda:__ZN9GfxDevice18SetGlobalDepthBiasEff
o5i:__ZN6il2cpp6icalls8mscorlib6System8MonoType12get_AssemblyEP20Il2CppReflectionType
Mri:_Vector3_get_normalized_m1057036856
_i:_emscripten_glGetPointerv
XB:__ZN8Animator22ApplyBuiltinRootMotionEv
oFb:__Z26ApplyMaterialPassWithCacheRK18SharedMaterialDataR17ShaderPassContextP6ShaderPN9ShaderLab4PassEibPKNS6_10GrabPassesEPNS6_11SubProgramsEPK22DeviceRenderStateBlock
oWi:_CustomEventData_InternalDestroy_m3784703600
bce:_Array_InternalArray__ICollection_Remove_TisKeyValuePair_2_t3716250094_m2566517826_gshared
doj:__ZN30dense_hashtable_const_iteratorINSt3__24pairIK10KeyWrapperIP14Il2CppIUnknownEjEES5_N6il2cpp5utils11PointerHashIS3_EEN14dense_hash_mapIS5_jSB_NS5_14EqualsComparerINS0_8equal_toIS4_EEEENS0_9allocatorIS7_EEE9SelectKeyESG_SI_EppEv
vYa:__ZN8Renderer23VirtualRedirectTransferER14SafeBinaryRead
IRg:_DerivedType_get_UnderlyingSystemType_m3904230233
BMa:__Z27ConvertSubMeshesToTrianglesR13dynamic_arrayI7SubMeshLj4EERS_ItLj2EE
uZi:__ZN6il2cpp2vmL15GetBitmapNoInitEP11Il2CppClassPjRjj
PHf:_X509Certificate2Collection__ctor_m819526826
JH:__ZN12AudioManager5ResetEv
Aqh:__Z75RuntimeInvoker_RuntimeObject_Single_t2076509932_RuntimeObject_RuntimeObjectPFvvEPK10MethodInfoPvPS4_
Spf:_KeyBuilder_Key_m3814433741
pBe:_ArgumentException__ctor_m158205422
rfe:_Array_compare_TisVector3_t2243707580_m3709184876_gshared
mEd:_HorizontalLayoutGroup_SetLayoutHorizontal_m3237355818
HB:__ZN7mecanim5human14RetargetToTDoFEPKNS0_5HumanEPNS0_9HumanPoseEPNS_8skeleton13SkeletonPoseTIN4math4trsXEEESB_
Vuj:__ZN6il2cpp6icalls8mscorlib6System11Environment20GetWindowsFolderPathEi
NLg:__ZL60AspectRatioFitter_t3114550109_CustomAttributesCacheGeneratorP21CustomAttributesCache
Yv:__ZN7mecanim5human18HumanPoseBlendNodeERNS0_9HumanPoseEPS1_f
uOc:_UNITY_FT_RoundFix
Hgb:__ZN9ShaderLab20SerializedSubProgram15AddTextureParamEPKcii16TextureDimension
Kci:_Uri_get_Parser_m2250631932
x2a:__ZNK12MeshRenderer22GetTypeVirtualInternalEv
pCd:_Graphic_set_color_m646149893
TQa:__ZN14SafeBinaryRead19TransferSTLStyleMapINSt3__23mapIN4core12basic_stringIcNS3_20StringStorageDefaultIcEEEES7_NS1_4lessIS7_EE13stl_allocatorINS1_4pairIKS7_S7_EEL18MemLabelIdentifier1ELi16EEEEEEvRT_17TransferMetaFlags
c0c:__ZN2UI6Canvas27UpdateEventIndexesRecursiveERi
Fu:__ZN7mecanim9animation18EvaluateRootMotionERKNS0_18ClipMuscleConstantERKNS0_15ClipMuscleInputEPKfS8_RNS0_12MotionOutputEb
QR:__ZN11UnityEngine15CloudWebService16SessionContainer21PrepareDataErrorEventERN4core12basic_stringIcNS2_20StringStorageDefaultIcEEEE
WOc:_UNITY_FT_Outline_New
acd:__ZN16UploadHandlerRaw13TransmitBytesEPvjj
pvb:__Z19TransferField_ArrayI19StreamedBinaryWriteILb0EE27Converter_SimpleNativeClassI8GUIStyleEEvRK23StaticTransferFieldInfoR31RuntimeSerializationCommandInfoRT0_
Huh:_Scrollbar_SetDirection_m3264558284
qTj:_emscripten_glCopyTexSubImage2D__wrapper
VBj:_maybe_finalize
Gqi:_PlayableHandle_IsValidInternal_m3315870994
_Pf:_RemotingServices_RegisterInternalChannels_m1827304423
isc:__Z35Transfer_Blittable_FixedBufferFieldI8JSONReadiEvRK29SerializationCommandArgumentsR31RuntimeSerializationCommandInfo
r4i:__ZNSt3__213__vector_baseIN6il2cpp2os19SocketHandleWrapperENS_9allocatorIS3_EEED2Ev
nbh:__Z77RuntimeInvoker_RuntimeObject_Int32_t2071877448_RuntimeObject_SByte_t454417549PFvvEPK10MethodInfoPvPS4_
hc:invoke_viiffi
xCe:_RegionInfo_GetByTerritory_m3452395101
TXb:__ZN13sorted_vectorINSt3__24pairIN4core12basic_stringIcNS2_20StringStorageDefaultIcEEEEPK17MessageIdentifierEEN10vector_mapIS6_S9_NS0_4lessIS6_EENS0_9allocatorISA_EEE13value_compareESF_E10insert_oneERKSA_
d$f:_Thread_GetCachedCurrentUICulture_m5590127
RAi:_GUILayoutEntry_get_margin_m3913640621
seb:__Z14resize_trimmedINSt3__26vectorIN9ShaderLab18SerializedPropertyENS0_9allocatorIS3_EEEEEvRT_j
U4e:_List_1_CheckMatch_m4018158235_gshared
Fse:_Context_t2636657155_marshal_pinvoke_back
r2i:__ZN6il2cpp2vm13MetadataCache38GetMethodInfoFromMethodDefinitionIndexEi
yOd:_Byte_System_IConvertible_ToDateTime_m1583041031
fNi:__ZL24UnresolvedVirtualCall_68P12Il2CppObjectS0_iS0_S0_S0_S0_S0_S0_PK10MethodInfo
B_a:__ZN10VertexData8TransferI24GenerateTypeTreeTransferEEvRT_
hwj:__ZN13Il2CppHashMapIPK19Il2CppGenericMethodP10MethodInfoN6il2cpp8metadata23Il2CppGenericMethodHashENS6_26Il2CppGenericMethodCompareENSt3__29allocatorINS9_4pairIK10KeyWrapperIS2_ES4_EEEEEC2EjRKS7_RKS8_
SNh:_EqualityComparer_1_System_Collections_IEqualityComparer_Equals_m1089835085_gshared
PSb:__ZL10CullLightsRK22SceneCullingParametersR11CullResults
vBd:_Dropdown__cctor_m264401557
zLd:_Array_IndexOf_m2819632474
Yri:_Ray_GetPoint_m2427899009_AdjustorThunk
G0h:_Comparer_1__cctor_m3996541505_gshared
dx:__ZN7mecanim12statemachine20GetBlendTreeConstantERKNS0_13StateConstantEi
H_b:__Z40GetTemporaryCachePathApplicationSpecificv
mba:__ZN9GfxDevice16EndAsyncJobFrameEv
kQc:_UNITY_tt_face_load_hhea
MXd:_Convert_ToBase64String_m1936815455
Uk:___syscall3
Xk:___syscall6
Zk:___syscall4
j5d:_Decimal_ToString_m759431975
vlb:__ZNSt3__26__treeINS_12__value_typeIN4core12basic_stringIcNS2_20StringStorageDefaultIcEEEEPN16MemoryFileSystem4NodeEEENS_19__map_value_compareIS6_SA_NS_4lessIS6_EELb1EEE13stl_allocatorISA_L18MemLabelIdentifier55ELi16EEE7destroyEPNS_11__tree_nodeISA_PvEE
axd:_ColorBlock_get_fadeDuration_m987725262
KUf:_CryptographicException__ctor_m2415891459
OFc:__ZNSt3__26__sortIR24RayHitsByDepthComparitorP12RaycastHit2DEEvT0_S5_T_
Bvc:__ZN27PerformanceReportingManager23VirtualRedirectTransferER14SafeBinaryRead
zba:__ZN9GfxDevice27UpdateComputeSkinPoseBufferE15ComputeBufferIDP12SkinMeshInfo
nl:_emscripten_glShaderBinary
skb:__ZNK20LocalFileSystemPosix6ExistsERK13FileEntryData
eAi:_GUI_CallWindowDelegate_m2603162942
TBf:_DictionaryNodeEnumerator_get_DictionaryNode_m3521889822
du:__ZN7mecanim5human19MaskHasLeftFootGoalERKNS_6bitsetILj70EEE
Wkh:__Z101RuntimeInvoker_Int32_t2071877448_RuntimeObject_Color32_t874517518_Int32_t2071877448_Int32_t2071877448PFvvEPK10MethodInfoPvPS4_
y3c:__Z58Register_UnityEngine_Canvas_GetETC1SupportedCanvasMaterialv
Oxb:__ZN17AnimationCurveTplIfE8TransferI18StreamedBinaryReadILb1EEEEvRT_
l3d:_DateTimeOffset_GetHashCode_m3312197462_AdjustorThunk
F7c:__ZN18UnityConnectClientD2Ev
r7i:_il2cpp_set_data_dir
Fci:_Uri_get_IsUnc_m2111738174
fWg:_TypeBuilder_IsValueTypeImpl_m1499671481
J6c:__ZN11UnityEngine15PlatformWrapper30GetGraphicsDriverLibraryStringEv
_qf:_EncryptedPrivateKeyInfo_Decode_m1706190306
jzb:__Z18Transfer_BlittableI18StreamedBinaryReadILb0EELb0E4AABBEvRK29SerializationCommandArgumentsR31RuntimeSerializationCommandInfo
uLi:_AudioListener_ClearExtensionProperties_m2267088681
PD:__ZN16MecanimAnimation24DeleteAnimatedPropertiesERP26IAnimatedPropertyEvaluator
f0d:_Convert_ToUInt16_m1665900934
wCe:_RegionInfo__ctor_m2058831971
YIb:__Z14DrawGUITextureRK5RectTIfEP7Texture11ColorRGBA32P8Materiali
Iyh:_Text_get_supportRichText_m3291105891
KA:__ZN9BlobWrite8TransferI22OffsetPtrArrayTransferIKN4math7_float4EEEEvRT_PKc17TransferMetaFlags
XBi:_GUIUtility_set_systemCopyBuffer_m3458871692
JCc:__ZNK11b2EdgeShape7RayCastEP15b2RayCastOutputRK14b2RayCastInputRK11b2Transformi
V7h:_MatchCollection_GetEnumerator_m3516985966
Trc:__ZN9JSONWrite8TransferI4AABBEEvRT_PKc17TransferMetaFlags
gXf:_UTF7Encoding__ctor_m2365939916
oBa:__ZN25MultiBlocksMemoryFileData9SetLengthEy
zVi:_Animator_SetTrigger_m2003713590
Lgi:_DelegatePInvokeWrapper_StateChanged_t2480912210
srh:_MatEntry__ctor_m3650167335
vwc:__ZN10Collider2D13AwakeFromLoadE17AwakeFromLoadMode
HUa:__ZNK9Texture2D20GetRuntimeMemorySizeEv
Y2f:_TypeInitializationException__ctor_m2993591639
boc:__ZN5Unity9rapidjson13GenericReaderINS0_4UTF8IcEES3_13JSONAllocatorE9ParseTrueILj0ENS0_19GenericStringStreamIS3_EENS0_15GenericDocumentIS3_S4_S4_EEEEvRT0_RT1_
vm:_emscripten_glUniform2iv
wEe:_Int16_System_IConvertible_ToInt64_m733340257
RMc:_UNITY_FT_Outline_Transform
bic:__Z60Register_UnityEngine_Sprites_DataUtility_Internal_GetMinSizev
NZi:__ZN6il2cpp2vm5Class10GetMethodsEP11Il2CppClassPPv
EOb:__Z30AddDefaultStreamsToMeshBuffersR9GfxDeviceR11MeshBuffersRK16DrawBuffersRange17ShaderChannelMaskS6_
koa:__ZN7ApiGLES17DeleteFramebufferERN2gl6HandleILNS0_10ObjectTypeE9EEES3_
fra:__ZN15UniformTFMethod13MapBoneBufferEj
luf:_RecordProtocol_SendAlert_m2816808523
V_c:__ZN2UI14CanvasRendererD2Ev
NMf:_MethodCall_get_LogicalCallContext_m3769562079
Ikj:__ZN6il2cpp6icalls8mscorlib6System5Array8SetValueEP11Il2CppArrayP12Il2CppObjectS5_
BOe:_SynchronizedReader_Read_m1399666181
YXg:_MonoEvent_get_Name_m2796714646
iEb:__Z9SetupArgviPPKc
lVi:_AnimationOffsetPlayable__ctor_m1644499845
Ztd:_PointerEventData_set_worldNormal_m2025727441
cxi:_Transform_INTERNAL_get_worldToLocalMatrix_m2822011810
svf:_Context_get_SentConnectionEnd_m3114190867
HTa:__ZN12CubemapArray23VirtualRedirectTransferER24GenerateTypeTreeTransfer
S2:__ZN12FileAccessor4OpenER15FileSystemEntry14FilePermission16FileAutoBehavior
RKi:_AudioSource_get_spatializeInternal_m4243931620
MXa:__ZN23TransformChangeDispatch32QueueTransformChangeIfHasChangedERK15TransformAccess
Ctd:_PointerEventData_set_clickTime_m3931922487
X1:__ZN15dense_hashtableINSt3__24pairIKiP4RTTIEEiN11TypeManager27HashFunctorPersistentTypeIDEN14dense_hash_mapIiS4_S7_NS0_8equal_toIiEE13stl_allocatorIS5_L18MemLabelIdentifier7ELi16EEE9SelectKeyESA_SD_E12maybe_shrinkEv
IFe:_NumberFormatter_AppendNonNegativeNumber_m629862866
mSa:__ZNSt3__26vectorINS_4pairIN9ShaderLab16FastPropertyNameEN18UnityPropertySheet11UnityTexEnvEEENS_9allocatorIS6_EEE21__push_back_slow_pathIKS6_EEvRT_
J1h:_ResourceInfo__ctor_m2401359321_AdjustorThunk
Ruj:__ZN6il2cpp2os26LibraryNamePrefixAndSuffixC2EPKcS3_
Zke:_Array_InternalArray__set_Item_TisMonoResource_t3127387157_m732733855_gshared
REi:_UnityEvent_1_Invoke_m1599856953_gshared
UUd:_Hashtable__ctor_m392789568
dZf:_UTF7Encoding__cctor_m4192443836
B:tempValue
thi:_Display_get_systemHeight_m3140485477
AEe:_Int16_System_IConvertible_ToSingle_m3277935657
J_:__Z29scripting_class_from_fullnamePKcS0_S0_
ryi:_Vector3_get_sqrMagnitude_m1445517847_AdjustorThunk
tth:_Raycast3DCallback_Invoke_m2271859924
Ex:__ZN26AnimatorControllerPlayable18DeallocateBindingsEv
eN:__ZN11AudioSource19CreateOpenALRolloffEfff
ZQc:_UNITY_FT_Stream_ReadAt
fBh:_Enumerator_get_CurrentKey_m2387752419_AdjustorThunk
C1i:__ZN15dense_hashtableINSt3__24pairIK10KeyWrapperIN6il2cpp5utils13dynamic_arrayIPK10Il2CppTypeLj4EEEEPFvvEEESA_NS3_8metadata19Il2CppSignatureHashEN14dense_hash_mapISA_SD_SG_NSA_14EqualsComparerINSF_22Il2CppSignatureCompareEEENS0_9allocatorISE_EEE9SelectKeyESK_SM_E9set_valueEPSE_RKSE_
qii:_UnityEventBase_FindMethod_m2780816114
a3f:_UInt16_System_IConvertible_ToBoolean_m887616848
SN:__ZN11AudioModule22CreateAudioClipFromWWWEP10IWWWStreamPKcbbi
UXf:_StringBuilder_set_Length_m3039225444
idf:_Collection_1_System_Collections_IList_Contains_m3870109702_gshared
Fbe:_Array_InternalArray__ICollection_Contains_TisRaycastResult_t21186376_m3188614988_gshared
Q0d:_CultureAwareComparer_GetHashCode_m3681260951
c1c:__Z13RegisterClassIN2UI11CanvasGroupEEvv
R_b:__ZN6prcoreL11inner_clearILj4EEEvPhjjj
Cth:_Selectable__ctor_m1440593935
KBj:_GC_initialize_offsets
e6:__ZNK8Playable6HandleEv
U0:__ZN14MessageHandler28MessageIDToMessageIdentifierEi
hDf:_HttpRequestCreator_Create_m3607509610
X_a:__ZNK11SpriteAtlas20GetRuntimeRenderDataEPK6Sprite
lDj:__ZN6il2cpp2vm10WaitHandle19NewManualResetEventEb
_if:_ReadOnlyCollection_1_System_Collections_IList_Contains_m3707723158_gshared
ZMc:__ZN20TextRenderingPrivate15DynamicFontData36GetFaceForCharacterIfAvailableInFontERKNS_7FontRefERK13dynamic_arrayI4PPtrIN13TextRendering4FontEELj4EEj
CLi:_AudioExtensionManager_GetReadyToPlay_m3272224102
Av:__ZN7mecanim14ValueArrayCopyILb0EEEvPKNS_10ValueArrayEPS1_
eF:__Z51Register_UnityEngine_Animator_get_hasBoundPlayablesv
cSi:_Nullable_1_ToString_m1238126148_AdjustorThunk
Kd:emscriptenWebGLGetUniform
Bo:FUNCTION_TABLE_iiiiiiiiiii
uUb:__ZL10CleanUpJobP20CullingGroupsJobData
iQd:_Char_CompareTo_m3044885427_AdjustorThunk
FKe:_FileStream_GetSecureFileName_m508045384
gXh:_InternalEnumerator_1_System_Collections_IEnumerator_get_Current_m2035754659_AdjustorThunk
PIb:__ZN13RenderManager15BatchModeUpdateEv
d_a:__ZN14SafeBinaryRead21TransferSTLStyleArrayI13dynamic_arrayI8Vector2fLj4EEEEvRT_17TransferMetaFlags
Uva:__ZN17PersistentManager51InstanceIDToLocalSerializedObjectIdentifierInternalEiR31LocalSerializedObjectIdentifier
nBc:__ZN10ClipperLib7Clipper15SetWindingCountERNS_5TEdgeE
UVc:_UNITY_FT_Create_Class_cff_services
nd:_glVertexAttribIPointer
Zdd:_HMAC_set_HashName_m457235014
y8b:__ZNK6Sprite10GetPaddingE20SpriteRenderDataMode
QYi:__ZN6il2cpp2vm5Class11GetPtrClassEPK10Il2CppType
Oae:_Array_InternalArray__ICollection_Contains_TisTableRange_t2011406615_m605506746_gshared
nHh:_Dictionary_2_Add_m1296007576_gshared
P$d:_Decimal_op_Explicit_m729046406
UUf:_CryptoConfig_CreateFromName_m2169102076
PCd:_Graphic_OnEnable_m2900261811
XUf:_CryptographicUnexpectedOperationException__ctor_m3552441227
zMb:__ZN14qsort_internal5QSortIP15RODataDepthPassi17ROSorterDepthPassEEvT_S4_T0_T1_
URd:_ArrayListWrapper_Clear_m321161741
PHd:_InputField_LineDownCharacterPosition_m2690468785
YQc:_UNITY_ft_glyphslot_alloc_bitmap
fne:_Array_Sort_TisVector2_t2243707579_TisVector2_t2243707579_m2582252549_gshared
a5f:_UInt64_System_IConvertible_ToDouble_m2828923873
T0e:_List_1_System_Collections_IList_set_Item_m1129584681_gshared
tSc:_ft_raster1_render
Mjc:__Z47Register_UnityEngine_Mesh_RecalculateBoundsImplv
KYe:_List_1_set_Capacity_m491101164_gshared
sKj:__ZNKSt3__221__basic_string_commonILb1EE20__throw_length_errorEv
rYf:_StringBuilder_Insert_m1733097906
$zf:_SslStreamBase_get_HashStrength_m480059173
Foc:__ZN5Unity9rapidjson6WriterI16TempBufferWriterNS0_4UTF8IcEES4_13JSONAllocatorE11WriteStringEPKcj
xFh:_ValueCollection_System_Collections_Generic_ICollectionU3CTValueU3E_Clear_m3271993638_gshared
xXd:_Enumerator_MoveNext_m1419609883
VI:__ZN4FMOD7Channel19setReverbPropertiesEPK29FMOD_REVERB_CHANNELPROPERTIES
s0:__ZN13MonoBehaviour22GetScriptFullClassNameEv
Jri:_RangeInt_get_end_m480861812
qDf:_ServicePointManager_FindServicePoint_m3137356168
fCb:__ZN13MonoBehaviour9CallAwakeEv
wOa:__ZN20SphericalHarmonicsL211AddWeightedERKS_f
pud:_PointerInputModule_GetPointerData_m1695674453
Q6g:__Z90RuntimeInvoker_Void_t1841601450_RuntimeObject_RuntimeObject_RuntimeObject_SByte_t454417549PFvvEPK10MethodInfoPvPS4_
urb:__Z19TransferField_ArrayI17RemapPPtrTransfer27Converter_SimpleNativeClassI8GUIStyleEEvRK23StaticTransferFieldInfoR31RuntimeSerializationCommandInfoRT0_
L0d:_Convert_ToUInt64_m345450801
fSi:_Predicate_1_BeginInvoke_m2559992383_gshared
lpc:__ZN9JSONWrite8TransferI10ColorRGBAfEEvRT_PKc17TransferMetaFlags
Z2e:_List_1_Find_m1270109362_gshared
O0:__Z25scripting_method_get_name18ScriptingMethodPtr
Npb:__Z19TransferField_ArrayI14SafeBinaryRead16Converter_StringEvRK23StaticTransferFieldInfoR31RuntimeSerializationCommandInfoRT0_
NJj:_rename
MBj:_GC_exit_check
vSe:_NotSupportedException__ctor_m3232764727
JCf:_TypeConverterAttribute_Equals_m2330345916
Pbh:__Z90RuntimeInvoker_Boolean_t3825574718_Int32_t2071877448_Int32U26_t455636984_Int32_t2071877448PFvvEPK10MethodInfoPvPS4_
GVh:_InternalEnumerator_1_System_Collections_IEnumerator_get_Current_m1038263751_gshared
fKe:_MonoIO_CreateDirectory_m379525469
gYb:__ZNSt3__26vectorINS_4pairIN4core12basic_stringIcNS2_20StringStorageDefaultIcEEEES6_EE13stl_allocatorIS7_L18MemLabelIdentifier38ELi16EEE6insertENS_11__wrap_iterIPKS7_EERSD_
BA:__ZN9BlobWrite8TransferI22OffsetPtrArrayTransferI9OffsetPtrIN7mecanim12statemachine18StateMachineMemoryEEEEEvRT_PKc17TransferMetaFlags
gPc:_UNITY_ft_smooth_renderer_class_pic_free
D3e:_List_1_System_Collections_IList_Remove_m3763718607_gshared
kf:_emscripten_glStencilOpSeparate
Und:_String_Concat_m2000667605
$wj:__ZN6il2cpp2vm6String8NewUtf16EPKDsi
Vtj:__ZN6il2cpp2os10ThreadImpl12QueueUserAPCEPFvPvES2_
v7c:__ZN22BaseUnityConnectClient10QueueEventERN11UnityEngine15CloudWebService17CloudServiceEventEPKcjb
Phh:__Z71RuntimeInvoker_Bounds_t3033363703_RuntimeObject_Matrix4x4U26_t266301477PFvvEPK10MethodInfoPvPS4_
Jqe:_ExecuteEvents_GetEventHandler_TisRuntimeObject_m3333041576_gshared
wOc:_UNITY_FT_Hypot
OMd:_BitConverter_ToInt64_m1329623425
e2b:__ZN8RendererC2E12RendererType18MemLabelIdentifier18ObjectCreationMode
V7i:_il2cpp_class_is_abstract
Df:_emscripten_glGetError
igj:__ZN15dense_hashtableINSt3__24pairIK10KeyWrapperIPK14Il2CppAssemblyEPK22Il2CppMonoAssemblyNameEES6_N6il2cpp5utils11PointerHashIS4_EEN14dense_hash_mapIS6_SA_SF_NS6_14EqualsComparerINS0_8equal_toIS5_EEEENS0_9allocatorISB_EEE9SelectKeyESK_SM_E14squash_deletedEv
GJ:__Z14FMOD_FILE_SeekPvjS_
QMf:_MethodCall_get_Properties_m1893707917
ICh:_ShimEnumerator_get_Entry_m2387156530_gshared
a2i:__ZN14dense_hash_mapI10KeyWrapperIN6il2cpp5utils13dynamic_arrayIPK10Il2CppTypeLj4EEEEPFvvENS1_8metadata19Il2CppSignatureHashENS8_14EqualsComparerINSB_22Il2CppSignatureCompareEEENSt3__29allocatorINSG_4pairIKS8_SA_EEEEEC2EjRKSC_RKSF_
$4c:__Z56Register_UnityEngine_Analytics_CustomEventData_AddStringv
xVb:__ZNK13RenderTexture32CalculateNeedsInvertedProjectionEv
p_b:__ZN10systeminfo18GetOperatingSystemEv
Lf:emscriptenWebGLGet
f3:__Z19CanReplaceComponentRN5Unity9ComponentEPKNS_4TypeEPN4core12basic_stringIcNS5_20StringStorageDefaultIcEEEE
E3b:__ZN12CubemapArray11InitTextureEiii13TextureFormatb
Yei:_Bounds_SetMinMax_m2094075031
zGf:_X509Certificate2_get_SignatureAlgorithm_m3069898012
OHe:_Int64_System_IConvertible_ToSingle_m1678482180
iB:__ZN7mecanim5human13HumanFixTwistEPKNS0_5HumanEPNS_8skeleton13SkeletonPoseTIN4math4trsXEEES9_iiRKf
oPb:__ZL24AssignProjectorQueuesJobP30AssignProjectorQueuesJobHeader
v0f:_TimeSpan_get_Hours_m3804628138
grj:__ZN14dense_hash_mapI10KeyWrapperIP12Il2CppObjectEN6il2cpp2gc9CachedCCWENS4_5utils11PointerHashIS1_EENS3_14EqualsComparerINSt3__28equal_toIS2_EEEENSB_9allocatorINSB_4pairIKS3_S6_EEEEEC2EjRKS9_RKSE_
I1i:__ZN15dense_hashtableINSt3__24pairIK10KeyWrapperIN6il2cpp5utils13dynamic_arrayIPK10Il2CppTypeLj4EEEEPFvvEEESA_NS3_8metadata19Il2CppSignatureHashEN14dense_hash_mapISA_SD_SG_NSA_14EqualsComparerINSF_22Il2CppSignatureCompareEEENS0_9allocatorISE_EEE9SelectKeyESK_SM_E4swapERSP_
Egb:__ZN9ShaderLab20SerializedSubProgram14SetConstBufferEPKci
sBe:_ArgumentNullException__ctor_m911049464
anf:_Comparison_1_Invoke_m345024424_gshared
oUc:_cf2_getStdVW
gkf:_ReadOnlyCollection_1_System_Collections_IList_Insert_m3936197025_gshared
wW:__Z40DebugStringToFilePostprocessedStacktraceRK21DebugStringToFileData
Ztc:__Z29Transfer_Blittable_ArrayFieldI8JSONReadjEvRT_R9ArrayInfoRK23StaticTransferFieldInfo
IWh:_InternalEnumerator_1_get_Current_m314017974_AdjustorThunk
rg:__setLetterbox
LLe:_MemoryStream__ctor_m1043059966
MNf:__ZN21InterfaceFuncInvoker3IP12Il2CppObjectP6Type_t28StreamingContext_t1417235061PS1_E6InvokeEjP11Il2CppClassS1_S3_S4_S5_
h1a:__ZNSt3__26vectorI17BlendShapeChannelNS_9allocatorIS1_EEE6assignINS_11__wrap_iterIPS1_EEEENS_9enable_ifIXaasr21__is_forward_iteratorIT_EE5valuesr16is_constructibleIS1_NS_15iterator_traitsISA_E9referenceEEE5valueEvE4typeESA_SA_
YId:_LayoutElement_set_preferredWidth_m3072758716
FGb:__Z12SetGfxDeviceP9GfxDevice
iFf:_AsnEncodedData_ToString_m724151831
Whi:_Object_CompareBaseObjects_m1461253683
i_b:__ZN11TimeManager11GetRealtimeEv
jBj:_GC_print_block_list
_J:__ZN29AudioEffectInternalDefinitionC2EP26UnityAudioEffectDefinitionb
LXg:_MonoMethodInfo_GetDeclaringType_m4186531677
JOf:_SoapTypeAttribute_SetReflectionObject_m1566293812
OJi:_Enumerator_System_Collections_IEnumerator_Reset_m2573763156_AdjustorThunk
cQf:_RemotingServices_CreateClientProxy_m1631035355
G5f:_UInt64_ToString_m2892887310
End:_String_System_IConvertible_ToType_m512800076
owj:__ZN15dense_hashtableINSt3__24pairIK10KeyWrapperIPK19Il2CppGenericMethodEP10MethodInfoEES6_N6il2cpp8metadata23Il2CppGenericMethodHashEN14dense_hash_mapIS6_S9_SD_NS6_14EqualsComparerINSC_26Il2CppGenericMethodCompareEEENS0_9allocatorISA_EEE9SelectKeyESH_SJ_EC2ERKSM_j
akc:__ZNSt3__26__treeINS_12__value_typeI7Hash12816CrashReportEventEENS_19__map_value_compareIS2_S4_NS_4lessIS2_EELb1EEE13stl_allocatorIS4_L18MemLabelIdentifier6ELi16EEE7destroyEPNS_11__tree_nodeIS4_PvEE
uBa:__Z37ReadDirectoryInfo_UnityWebAndUnityRawR12FileAccessorRKN20ArchiveStorageHeader6HeaderERNS1_13DirectoryInfoE
yZ:__ZNSt3__26__treeINS_12__value_typeIPKciEENS_19__map_value_compareIS3_S4_15compare_tstringIS3_ELb1EEENS_9allocatorIS4_EEE7destroyEPNS_11__tree_nodeIS4_PvEE
DKh:_Dictionary_2_ToTValue_m1381983709_gshared
nSe:_MulticastDelegate_KPM_m1592985119
$7c:__ZN13dynamic_arrayIN4core12basic_stringIcNS0_20StringStorageDefaultIcEEEELj4EE6assignEPKS4_S7_
Vff:_Collection_1_ConvertItem_m3941916604_gshared
Pza:__ZN15dense_hashtableINSt3__24pairIKN4core12basic_stringIcNS2_20StringStorageDefaultIcEEEEP20ArchiveStorageReaderEES6_20StringHash32FunctionIS6_EN14dense_hash_mapIS6_S9_SC_NS0_8equal_toIS6_EE13stl_allocatorISA_L18MemLabelIdentifier55ELi16EEE9SelectKeyESF_SI_E5clearEv
O$c:__ZN2UI6Canvas26MarkAllNestedCanvasesDirtyEv
roj:__ZN6il2cpp2vm12ReboxIfBoxedEP14Il2CppIUnknownP11Il2CppClass
IDb:__ZN25PathNamePersistentManagerD2Ev
g$:__ZN17PersistentManager48IntegrateObjectAndUnlockIntegrationMutexInternalEi
z9:__ZZ29InitializeSortingGroupManagerPvEN44PostLateUpdateSortingGroupsUpdateRegistrator7ForwardEv
vp:__ZN6Object12SetHideFlagsENS_9HideFlagsE
ZDc:__ZN9b2Fixture11SynchronizeEP12b2BroadPhaseRK11b2TransformS4_
fRj:_emscripten_glGetFramebufferAttachmentParameteriv__wrapper
nJb:__ZN13RendererScene15InitializeUmbraEv
pNa:__Z28CalculateGlobalMatrixInverse23TransformAccessReadOnly
Mag:__ZL60SecurityAttribute_t2016950496_CustomAttributesCacheGeneratorP21CustomAttributesCache
kud:_PointerEventData_ToString_m1218584363
lZf:_UTF7Encoding_GetCharCount_m2589913583
u9i:_AnalyticsSessionInfo_CallSessionStateChanged_m2293069762
BMe:_MemoryStream_CalculateNewCapacity_m3533542025
eGj:__ZN6il2cpp6icalls8mscorlib6System6Object7GetTypeEP12Il2CppObject
Ici:_Uri_Reduce_m2577728307
V0f:_TimeSpan_Equals_m4102942751_AdjustorThunk
wFh:_ValueCollection_System_Collections_Generic_ICollectionU3CTValueU3E_Add_m1903672223_gshared
bbd:__ZN12HeaderHelper14SetUnvalidatedERKN4core12basic_stringIcNS0_20StringStorageDefaultIcEEEES6_b
$F:__ZN4FMOD6SoundI7releaseEv
V2a:__ZN14SpriteRenderer13AwakeFromLoadE17AwakeFromLoadMode
YBa:__ZN10MemoryFile9SetLengthEy
S3f:_UInt16_ToString_m2038947049_AdjustorThunk
ztb:__ZN5RectTIiE8TransferI24GenerateTypeTreeTransferEEvRT_
xWa:__ZN14SafeBinaryRead21TransferSTLStyleArrayI13dynamic_arrayI7Hash128Lj8EEEEvRT_17TransferMetaFlags
HCb:__Z28scripting_class_is_interface17ScriptingClassPtr
Hh:_glTexStorage2D
vQa:__ZNK9ShaderLab10SubProgram14EnsureCompiledEv
G_g:__Z79RuntimeInvoker_Boolean_t3825574718_RuntimeObject_RuntimeObject_SByte_t454417549PFvvEPK10MethodInfoPvPS4_
ASf:_ObjectManager_RecordFixup_m3572285566
uWd:_SortedList_InitTable_m460350503
E0:__Z18BuildScriptClassId17ScriptingClassPtr
gTh:_InternalEnumerator_1_get_Current_m4279678504_AdjustorThunk
QAa:__ZL31DeleteLastPathNameComponentImplRKN4core12basic_stringIcNS_20StringStorageDefaultIcEEEEPKc
_$b:__Z13RegisterClassI18DelayedCallManagerEvv
J7c:__ZN18UnityConnectClient15GetCloudServiceEv
Irb:__Z18Transfer_BlittableI24GenerateTypeTreeTransferLb0EiEvRK29SerializationCommandArgumentsR31RuntimeSerializationCommandInfo
l4i:__ZN6il2cpp2os19SocketHandleWrapperD2Ev
nEc:__ZN15b2CircleContact6CreateEP9b2FixtureiS1_iP16b2BlockAllocator
BCb:__ZL28SerializationCommandGroupForRK31TransferFunctionScriptingTraits17ScriptingClassPtr17ScriptingFieldPtrRK20CoreScriptingClasses
ZEa:__ZN10TagManager32RegisterDefaultTagsAndLayerMasksEv
P2i:__ZN15dense_hashtableINSt3__24pairIK10KeyWrapperIPKcEP11Il2CppClassEES5_N6il2cpp5utils11StringUtils12StringHasherIS4_EEN14dense_hash_mapIS5_S8_SE_NS5_14EqualsComparerINSB_13VmStringUtils21CaseSensitiveComparerEEENS0_9allocatorIS9_EEE9SelectKeyESJ_SL_E15insert_noresizeERKS9_
S_f:_SynchronizationLockException__ctor_m549086841
h5c:__Z56Register_UnityEngine_Analytics_CustomEventData_AddUInt32v
qRd:_ArrayList_InsertRange_m1478230997
Mfa:__ZN4gles8InitCapsEP7ApiGLESP12GraphicsCapsR16GfxDeviceLevelGL
Sja:__ZN6prcore14BlitImageFloatERK14ImageReferenceRS0_NS0_8BlitModeE
dLa:__Z24CalculateVertexLightDataRK15SharedLightDataR14GfxVertexLight
Wfi:_Color_get_black_m455352838
pi:_glEnable
Wab:__ZN15dense_hashtableINSt3__24pairIKiiEEi21InstanceIDHashFunctorN14dense_hash_mapIiiS4_NS0_8equal_toIiEE13stl_allocatorIS3_L18MemLabelIdentifier1ELi16EEE9SelectKeyES7_SA_E12maybe_shrinkEv
rQa:__ZNK9ShaderLab7Program28BeginReadUnsupportedVariantsEv
YKb:__ZNK25CameraStackRenderingState21GetImageEffectTextureEb
tTf:_RuntimeMethodHandle__ctor_m2437574937_AdjustorThunk
h8a:__ZNSt3__26vectorIN30RuntimeInitializeOnLoadManager9ClassInfoE13stl_allocatorIS2_L18MemLabelIdentifier13ELi16EEE7reserveEj
ypc:__Z35Transfer_Blittable_FixedBufferFieldI9JSONWriteiEvRK29SerializationCommandArgumentsR31RuntimeSerializationCommandInfo
r3f:_UInt16_System_IConvertible_ToInt64_m2835280558_AdjustorThunk
yFg:__ZL53g_UnityEngine_Assembly_CustomAttributesCacheGeneratorP21CustomAttributesCache
LSi:_Predicate_1_BeginInvoke_m3926587117_gshared
hE:__ZZN8Animator15InitializeClassEvEN31FunctorImpl_427kDidModifyAvatar4CallEPviR11MessageData
zif:_ReadOnlyCollection_1_System_Collections_IList_Remove_m2779327941_gshared
wx:__ZN26AnimatorControllerPlayable17ProcessRootMotionEP35AnimationPlayableEvaluationConstantP32AnimationPlayableEvaluationInputP33AnimationPlayableEvaluationOutput
Y_g:__Z94RuntimeInvoker_Boolean_t3825574718_Int32_t2071877448_SByte_t454417549_ExceptionU26_t1467204777PFvvEPK10MethodInfoPvPS4_
_zd:_DefaultControls_CreateToggle_m1568873127
oKh:_Dictionary_2_InitArrays_m2270022740_gshared
j6c:__ZN11UnityEngine7Connect15DeviceInfoEvent16CollectExtraInfoEv
CYf:_UnicodeEncoding_GetChars_m3765282346
BIe:_IntPtr__ctor_m4104029105
UXh:_InternalEnumerator_1_System_Collections_IEnumerator_get_Current_m771161214_AdjustorThunk
nRe:_MonoType_get_attributes_m1493788675
TCa:__ZN20ArchiveStorageReader10InitializeER15FileSystemEntryyb
I_d:_Convert_ToDouble_m4236754739
oBd:_Dropdown_CreateItem_m2702141380
gcg:__ZL48Stack_t1043988394_CustomAttributesCacheGeneratorP21CustomAttributesCache
Go:FUNCTION_TABLE_viifi
VXg:_MonoEvent_GetAddMethod_m4289563120
mag:__ZL37Type_t_CustomAttributesCacheGeneratorP21CustomAttributesCache
VXc:_UNITY_tt_face_free_hdmx
kGc:__ZNSt3__26__sortIRN18Overlap2DQueryBase29ColliderHitsByDepthComparitorEPP10Collider2DEEvT0_S7_T_
S9i:__ZN6il2cpp2vm14TypeNameParser5ParseEb
$sh:_ReflectionMethodsCache__ctor_m1835220
pad:__ZN23UnityPurchasingSettingsC2Ev
$6d:_Double_ToString_m1864290157
yVb:__ZL10RenderFaceR9GfxDeviceR18MaterialStateCacheP13RenderTextureiif
rxi:_SpriteAtlasManager__cctor_m453260161
jpj:__ZNK24NamespaceAndNamePairHashclERKNSt3__24pairIPKcS3_EE
Eja:__ZL37stbir__resample_horizontal_downsampleP11stbir__infoiPf
pbb:__ZNK5Unity9Component38MarkGameObjectAndComponentDependenciesER27GarbageCollectorThreadState
GX:__ZL16OutOfMemoryErrorjj18MemLabelIdentifieriPKc
vbd:__ZN20UnityWebRequestProtoI24UnityWebRequestTransport16AtomicRefCounter14RedirectHelper14ResponseHelper15DownloadHandler13UploadHandler12HeaderHelper14AsyncOperationED0Ev
USd:_SynchronizedArrayListWrapper_Contains_m2259439339
d1:__ZNK11TypeManager15ClassNameToRTTIEPKcb
_zb:__Z18Transfer_BlittableI18StreamedBinaryReadILb0EELb1EdEvRK29SerializationCommandArgumentsR31RuntimeSerializationCommandInfo
tMc:__ZN13sorted_vectorIN20TextRenderingPrivate8FontImpl13CharacterInfoENSt3__24lessIS2_EE13stl_allocatorIS2_L18MemLabelIdentifier1ELi16EEE10insert_oneERKS2_
GSj:_emscripten_glVertexAttrib2fv__wrapper
qDe:_Guid__ctor_m2599802704
bLe:_FileStream_get_CanRead_m4148920720
Kia:__ZN4crnd12symbol_codec32decode_receive_static_data_modelERNS_25static_huffman_data_modelE
G_b:__ZN18ScriptingArguments8AddFloatEf
HBe:_GregorianCalendar_set_CalendarType_m2438362222
Qbe:_Array_InternalArray__ICollection_Contains_TisVector2_t2243707579_m3625698589_gshared
$5c:__ZN11UnityEngine15PlatformWrapper16GetVRRenderScaleEv
yqc:__Z18Transfer_BlittableI9JSONWriteLb0EaEvRK29SerializationCommandArgumentsR31RuntimeSerializationCommandInfo
kR:__ZN11UnityEngine15CloudWebService14DataDispatcher34OnSessionContainerArchivedAndReadyERNS0_16SessionContainerE
Uxc:__ZN7b2World11CreateJointEPK10b2JointDef
iUi:_RectTransformUtility_PixelAdjustPoint_m1375786599
sCe:_NumberFormatInfo_GetFormat_m3247563525
scb:__ZN14SafeBinaryRead19TransferSTLStyleMapINSt3__23mapIN4core12basic_stringIcNS3_20StringStorageDefaultIcEEEEiNS1_4lessIS7_EENS1_9allocatorINS1_4pairIKS7_iEEEEEEEEvRT_17TransferMetaFlags
PPc:_gray_move_to
rdd:_DSAParameters_t1872138834_marshal_pinvoke
l7h:_ConstructionCall_InitDictionary_m4046452035
Wej:__ZN6il2cpp2vm10Reflection14GetEventObjectEP11Il2CppClassPK9EventInfo
vuf:_TlsStream_Write_m2271546135
scc:__Z30RegisterValidateMethodCallbackiPF18ScriptingMethodPtrS_17ScriptingClassPtrP6ObjectEPKc
V9d:_CultureInfo_ConstructInternalLocaleFromCurrentLocale_m1342751405
IXf:_Latin1Encoding_GetString_m3553289597
lth:_GetRayIntersectionAllNonAllocCallback_Invoke_m1247446986
mRc:_tt_cmap_init
Quc:__ZN8JSONRead8TransferI9BoundsIntEEvRT_PKc17TransferMetaFlagsb
Ka:invoke_viidi
Qqj:__ZN15dense_hashtableI10KeyWrapperIP18Il2CppGenericClassES3_N6il2cpp8metadata22Il2CppGenericClassHashEN14dense_hash_setIS3_S6_NS3_14EqualsComparerINS5_25Il2CppGenericClassCompareEEENSt3__29allocatorIS3_EEE8IdentityESA_SD_E12maybe_shrinkEv
Cxb:__Z29Transfer_Blittable_ArrayFieldI18StreamedBinaryReadILb1EEdEvRT_R9ArrayInfoRK23StaticTransferFieldInfo
zI:__ZN9AudioClip7CleanupEv
Lyi:_Vector4_set_Item_m1525226067_AdjustorThunk
LWj:_emscripten_glCheckFramebufferStatus__wrapper
Ejj:__ZNK15dense_hashtableINSt3__24pairIK10KeyWrapperIP11Il2CppClassES4_EES5_N6il2cpp8metadata16SZArrayClassHashEN14dense_hash_mapIS5_S4_SA_NS5_14EqualsComparerINS9_19SZArrayClassCompareEEENS0_9allocatorIS7_EEE9SelectKeyESE_SG_E12test_deletedEj
rtc:__Z18Transfer_BlittableI8JSONReadLb0EdEvRK29SerializationCommandArgumentsR31RuntimeSerializationCommandInfo
Kjh:__Z83RuntimeInvoker_Boolean_t3825574718_NavigationU26_t3929175072_Navigation_t1571958496PFvvEPK10MethodInfoPvPS4_
k$f:_Thread_ClrState_m822263449
qse:_SimpleCollator_LastIndexOfOrdinalIgnoreCase_m550798345
E4i:__ZN6il2cpp2vm21ThreadPoolCompartment13QueueWorkItemEP17Il2CppAsyncResult
Faa:__ZNK9GfxDevice13GetViewMatrixEv
_ei:_Bounds_Encapsulate_m17114941
nab:__ZN17RemapPPtrTransferC2E24TransferInstructionFlagsb
f2:__ZN8TypeTree8BlobReadERPKhS1_ib
O8a:__ZN18LoadSceneOperation23GetAllowSceneActivationEv
fIa:__ZN6CameraD0Ev
sBi:_GUILayoutUtility_Begin_m659595645
Rte:_ModulusRing_Multiply_m386339435
D7:__ZN31CanvasBatchIntermediateRenderer16StaticInitializeEPv
GDd:_GraphicRaycaster_U3CRaycastU3Em__0_m3971200721
Aif:_ReadOnlyCollection_1_System_Collections_IList_RemoveAt_m3004588099_gshared
Mw:__ZN7mecanim12AndValueMaskILb0EEEvPKNS_14ValueArrayMaskEPS1_
X7a:__ZN14SafeBinaryRead21TransferSTLStyleArrayINSt3__26vectorIi13stl_allocatorIiL18MemLabelIdentifier13ELi16EEEEEEvRT_17TransferMetaFlags
o_d:_Decimal_op_Implicit_m4246329390
uBe:_ArgumentNullException__ctor_m2252076819
yWb:__ZN10GameObjectC2E18MemLabelIdentifier18ObjectCreationMode
xYc:_raccess_guess_apple_double
LBf:_ListDictionary_GetEnumerator_m1511032609
YRf:_SerializationInfo__ctor_m4016423422
Tma:__ZL18ProgramUniform1uivPK7ApiGLESjiihPKv
O3b:__ZN14Texture2DArray13RebuildMipMapEv
J_i:__ZN13Il2CppHashSetIPK17Il2CppGenericInstN6il2cpp8metadata21Il2CppGenericInstHashENS4_24Il2CppGenericInstCompareENSt3__29allocatorI10KeyWrapperIS2_EEEEC2EjRKS5_RKS6_
lvj:__ZN6il2cpp2gc16GarbageCollector14RemoveWeakLinkEPPv
Fgb:__ZN9ShaderLab20SerializedSubProgram14AddVectorParamEPKcii15ShaderParamTypei
hlf:_ReadOnlyCollection_1_System_Collections_IEnumerable_GetEnumerator_m1734360860_gshared
V1h:_ResourceSet_ReadResources_m1669023823
Gze:_PKCS12_RemoveCertificate_m1590055870
qkj:__ZN6il2cpp2vm6Thread7SetNameEP12Il2CppThreadP12Il2CppString
QEb:__ZN13ScreenManager18SetAllowCursorLockEb
ES:__ZN11UnityEngine15CloudWebService10RestClientINS0_23WebRequestRestHeaderMapEE16SetRequestHeaderERKN4core12basic_stringIcNS4_20StringStorageDefaultIcEEEESA_
a8a:__ZN30RuntimeInitializeOnLoadManager15ClassMethodInfo8TransferI14SafeBinaryReadEEvRT_
VLg:__ZL73CanvasScaler_t2574720772_CustomAttributesCacheGenerator_m_ScreenMatchModeP21CustomAttributesCache
hP:__ZL22InitializeModule_Audiov
$kb:__ZN16MemoryFileSystem8IsLockedERK13FileEntryData
_lj:__ZN6il2cpp6icalls8mscorlib6System2IO6MonoIO5WriteEiP11Il2CppArrayiiPi
DXg:_MonoCMethod_Invoke_m931478014
w0g:__Z86RuntimeInvoker_Int32_t2071877448_Int16_t4041245914_Int32_t2071877448_Int32_t2071877448PFvvEPK10MethodInfoPvPS4_
a2h:_SatelliteContractVersionAttribute__ctor_m2605651717
_k:_emscripten_glBindRenderbuffer
Rxg:__ZL77RuntimePlatform_t1869584967_CustomAttributesCacheGenerator_OSXDashboardPlayerP21CustomAttributesCache
HBj:_GC_dirty_init
vLd:_Array_Copy_m1969461849
qRf:_MessageFormatter_ReadMethodResponse_m4134629501
nsj:__ZN6il2cpp2vm5Field14GetValueObjectEP9FieldInfoP12Il2CppObject
T0c:__ZNK2UI6Canvas16GetTargetDisplayEv
Lni:_PKCS12_GetSymmetricAlgorithm_m3196291685
h8d:_Environment_get_OSVersion_m1247315981
u5:__ZN6Object17FindObjectsOfTypeEPKN5Unity4TypeER13dynamic_arrayIPS_Lj4EEb
$Bb:__ZN13MonoBehaviour17RemoveFromManagerEv
RIa:__ZN12ImageFilters14AddImageFilterERK11ImageFilter
lZa:__ZL11DecodeValuePPKcS0_
hDh:_ShimEnumerator_MoveNext_m2013866013_gshared
LV:__ZN13MemoryManagerC2Ev
oqa:__ZN12SkinMeshInfo10DeallocateEPS_
lCa:__ZN20ArchiveStorageReader28AcquireAndPrefillUnusedBlockEjPNS_11CacheResultE
I3b:__Z12NHxRoughnessIA4_tEvP9Texture2DPT_iiii
Q5:__ZN18AsyncUploadManagerD2Ev
Dib:__ZN9Transform5ResetEv
Ptb:__Z22TransferField_NonArrayI24GenerateTypeTreeTransfer16Converter_StringEvRK23StaticTransferFieldInfoR31RuntimeSerializationCommandInfoRT0_
cRc:_UNITY_FT_CMap_New
JEb:__Z17MainLoopKeepalivePv
N7h:_MatchCollection__ctor_m1944681790
ckc:__ZN18CrashReportHandler25UnregisterGlobalCallbacksEv
Ced:_HMACSHA512__ctor_m1667460019
HHj:_printf_core
dSe:_MonoType_ToString_m473949831
GTb:__Z14CalcHullBoundsPK8Vector3fPKhhRK5PlaneRK10Matrix4x4fR10MinMaxAABB
oPf:_RealProxy__ctor_m2147093603
sMb:__Z19SetupLODFadeKeywordR17ShaderPassContexti
lAj:_GC_set_fl_marks
Tpa:__ZL25CheckCopyTextureArgumentsRK7ApiGLESP11GLESTextureS3_
r9a:__ZN13dynamic_arrayI26EnlightenSystemInformationLj8EE6insertEPS0_PKS0_S4_
IQc:_tt_name_entry_ascii_from_utf16
pSe:_MulticastNotSupportedException__ctor_m2164514827
j1d:_DateTime_System_IConvertible_ToChar_m2489529194_AdjustorThunk
mtb:__Z29Transfer_Blittable_ArrayFieldI24GenerateTypeTreeTransferyEvRT_R9ArrayInfoRK23StaticTransferFieldInfo
kJ:__ZN4FMOD7SystemI9playSoundE17FMOD_CHANNELINDEXPNS_5SoundEbPPNS_7ChannelE
eai:_Regex_GetGroupIndex_m1686599756
yyg:__ZL68PreferBinarySerialization_t2472773525_CustomAttributesCacheGeneratorP21CustomAttributesCache
Lw:__ZN27AnimationLayerMixerPlayable17LayerMixerProcessEP35AnimationPlayableEvaluationConstantP32AnimationPlayableEvaluationInputP33AnimationPlayableEvaluationOutputM17AnimationPlayableFvS1_S3_S5_EMS_FvS1_S3_S5_ESA_MS_FvS5_S1_S3_S5_ifE
s9i:__ZN6il2cpp2os4File4ReadEPNS0_10FileHandleEPciPi
MH:__ZN12AudioManager23VirtualRedirectTransferER18StreamedBinaryReadILb0EE
Q0a:__ZN10VertexData13SwapEndianessEv
cKj:_realloc
_ic:__Z57Register_UnityEngine_Transform_INTERNAL_get_localRotationv
vwh:_ScrollRect_SetLayoutVertical_m1225848090
Vmi:_Plane_ToString_m4267831659_AdjustorThunk
L1f:_Type_get_IsInterface_m3583817465
$Nj:dynCall_viif
lYg:_MonoField_get_DeclaringType_m1591666235
OLf:_Enumerator_MoveNext_m4234629003
oVc:_cf2_hint_lock
Uqb:__ZL26Transfer_SimpleNativeClassI17RemapPPtrTransfer8GradientLb0EEvRK29SerializationCommandArgumentsR31RuntimeSerializationCommandInfo
vy:__ZN17AnimationPlayable26DisconnectNoTopologyChangeEPS_i
oRe:_MonoType_GetDefaultConstructor_m925465120
y2f:_Type_IsArrayImpl_m3073208555
mT:__ZN13UploadHandlerD2Ev
tMj:dynCall_viiiiiffi
Fc:_emscripten_glBlendFuncSeparate
p_:__Z20scripting_string_newPKc
thc:__Z43Material_CUSTOM_Internal_CreateWithMaterialP12Il2CppObjectS0_
_Je:_Directory_GetCurrentDirectory_m44486537
v7e:_Collection_1_System_Collections_ICollection_CopyTo_m1047946700_gshared
Woc:__ZN9JSONWrite12AppendToNodeEPN5Unity9rapidjson12GenericValueINS1_4UTF8IcEE13JSONAllocatorEEPKcRS6_
aDc:__ZN16PhysicsManager2D20GetRigidBodyVelocityERK11Rigidbody2D
pFf:_AsnEncodedData_Default_m4197142414
g9i:__ZN6il2cpp2os4File17GetFileAttributesERKNSt3__212basic_stringIcNS2_11char_traitsIcEENS2_9allocatorIcEEEEPi
SB:__ZNSt3__26__sortIRPFbPKN8Animator11AnimatorJobES4_EPS4_EEvT0_S9_T_
TG:__ZN17AudioCustomFilterD2Ev
Doa:__ZN18GfxFramebufferGLES18ReleaseFramebufferEP17RenderSurfaceBaseP14GfxContextGLES
v5h:_Context_GetDynamicPropertyCollection_m1987747444
CGf:_X509Certificate2_get_Version_m1927399907
M5b:__ZN13ProduceHelperI6CameraLb0EE7ProduceE18MemLabelIdentifier18ObjectCreationMode
mFd:_Image_RadialCut_m3229543088
KU:__ZN19CloudServiceHandler34HandleSaveFileWebRequestPlayerLoopEv
gy:__ZN7mecanim21ValueArrayReverseCopyEPKNS_18ValueArrayConstantEPKNS_10ValueArrayES2_PS3_PKi
BG:__Z31GetParentSampleClipFromInstancePN11SoundHandle8InstanceE
C1b:__ZNK28RectTransformPropertyBinding13GetFloatValueERKN11UnityEngine9Animation10BoundCurveE
VVb:__ZN6Camera22StandaloneCustomRenderENS_10RenderFlagEP6ShaderRKN4core12basic_stringIcNS3_20StringStorageDefaultIcEEEEPNS_21PerformRenderFunctionE
s7a:__ZNSt3__26vectorI4PPtrI6ObjectE13stl_allocatorIS3_L18MemLabelIdentifier52ELi16EEE6assignINS_11__wrap_iterIPS3_EEEENS_9enable_ifIXaasr21__is_forward_iteratorIT_EE5valuesr16is_constructibleIS3_NS_15iterator_traitsISD_E9referenceEEE5valueEvE4typeESD_SD_
vGj:__ZN6il2cpp2os16ThreadLocalValue8GetValueEPPv
W2i:__ZN6il2cpp2vm13MetadataCache14GetGenericInstEPKPK10Il2CppTypej
Zhd:_SHA384Managed_Initialize_m712692291
kP:__ZN13AudioListener17ReadExtensionNameEi
X3h:_ChannelInfo__ctor_m2502026239
Qb:invoke_iiidii
lp:setThrew
A3b:__ZL21BuildEmptyCubeTexturePKci11ColorRGBA3217TextureColorSpace
Dzi:_Event_get_modifiers_m3267430607
vcb:__ZN14SafeBinaryRead21TransferSTLStyleArrayINSt3__26vectorIN9ShaderLab20SerializedSubProgramENS1_9allocatorIS4_EEEEEEvRT_17TransferMetaFlags
qsc:__Z15Transfer_StringI8JSONReadLb1EEvRK29SerializationCommandArgumentsR31RuntimeSerializationCommandInfo
mla:__ZN6prcoreL17RemapGenericFloatI17TexFormatRGBFloat15TexFormatRGHalfEEvPKNS_9InnerInfoE
KNb:__Z25DoForwardShaderRenderLoopR17RenderLoopContextR13dynamic_arrayI16RenderObjectDataLj4EERK11CullResultsbbbN6Camera10RenderFlagE
kqe:_GameObject_GetComponent_TisRuntimeObject_m2812611596_gshared
gQc:_sfnt_load_face
Pye:_PKCS12_GetSymmetricAlgorithm_m1812022677
BZf:_UTF8Encoding_GetByteCount_m2372933408
s5h:_Context_get_NeedsContextSink_m1907794755
ZPc:_UNITY_ft_service_list_lookup
Vwi:_Transform_get_localScale_m46214814
Rpf:_ARC4Managed_GenerateKey_m716135508
$lc:__ZN5IMGUI21SelectReceivingWindowER8GUIStateb
zXh:_InternalEnumerator_1_get_Current_m3179981210_gshared
kV:__ZN13BaseAllocator13TryDeallocateEPv
fLd:_Array_CreateInstance_m1054139389
VFi:_U3CStartU3Ec__Iterator0_Reset_m2580847683_gshared
AEd:_LayoutGroup_GetAlignmentOnAxis_m1783063916
ZJa:__ZNSt3__26vectorIN12FlareManager10FlareEntryENS_9allocatorIS2_EEE21__push_back_slow_pathIKS2_EEvRT_
wPg:_Default_check_arguments_with_score_m1714931543
xdd:_SHA1_Create_m4086509717
VYg:_MonoMethodInfo_GetMethodInfo_m3298558752
tH:__ZN13AudioListener17RemoveFromManagerEv
zd:_glAttachShader
sBd:_Dropdown_SetAlpha_m2769981009
wGa:__ZNK6Camera19GetProjectionMatrixEv
rSi:_Predicate_1_BeginInvoke_m1856151290_gshared
b6d:_StackTrace__ctor_m2404985356
l0:__Z38PreallocateObjectFromPersistentManagerib
x1d:_DateTime_System_IConvertible_ToSingle_m3927769066
OUa:__ZNK9Texture2D20GetUnscaledTextureIDEv
I$d:_Convert_ToSByte_m883113940
gTi:_Canvas_get_renderOrder_m2592588836
D8d:_Exception_get_Message_m173095527
M6e:_Queue_1_Peek_m1463479953_gshared
CVi:_Animator_ResetTriggerString_m946167554
sJg:__ZL53InputField_t1631627530_CustomAttributesCacheGeneratorP21CustomAttributesCache
Wzi:_GUI_set_skin_m929513544
Twd:_ButtonClickedEvent__ctor_m938038541
p7g:__Z119RuntimeInvoker_Int32_t2071877448_RuntimeObject_Int32_t2071877448_Int32_t2071877448_CharU26_t1894467670_SByte_t454417549PFvvEPK10MethodInfoPvPS4_
l3f:_UInt16_System_IConvertible_ToDouble_m4100549304_AdjustorThunk
E9a:__Z29ClearRepeatingLogMessageStatev
zmd:_Single_System_IConvertible_ToInt16_m962677079
h5:__ZN21EnlightenSceneMappingaSERKS_
NGj:__ZNK6il2cpp8metadata21Il2CppGenericInstHashclEPK17Il2CppGenericInst
Nmd:_Single_System_IConvertible_ToUInt32_m2447833283
xua:__ZN7ApiGLESD2Ev
rEa:__ZN9Transform47ClearTransformHierarchyAndApplyToSerializedDataEv
WVh:_InternalEnumerator_1_get_Current_m4083613828_AdjustorThunk
Ftc:__ZN8JSONRead21TransferSTLStyleArrayINSt3__26vectorI8MonoPPtr13stl_allocatorIS3_L18MemLabelIdentifier1ELi16EEEEEEvRT_17TransferMetaFlags
lIa:__ZN6Camera23VirtualRedirectTransferER19StreamedBinaryWriteILb0EE
pOj:dynCall_fidi
$bj:__ZN15dense_hashtableINSt3__24pairIK10KeyWrapperINS1_IPK9FieldInfoP11Il2CppClassEEEjEES9_17ReflectionMapHashIS8_EN14dense_hash_mapIS9_jSD_NS9_14EqualsComparerINS0_8equal_toIS8_EEEENS0_9allocatorISB_EEE9SelectKeyESI_SK_E12resize_deltaEjj
nHa:__ZN15dense_hashtableINSt3__24pairIKN9ShaderLab7Program23ShaderKeywordSetAndHashEPKNS2_10SubProgramEEES4_NS3_24ShaderKeywordHashFunctorEN14dense_hash_mapIS4_S8_SA_NS0_8equal_toIS4_EE13stl_allocatorIS9_L18MemLabelIdentifier67ELi16EEE9SelectKeyESD_SG_E15insert_noresizeERKS9_
_Oa:__ZN13RenderTexture12SetDimensionE16TextureDimension
oe:_SDL_FreeRW
exe:_PKCS1_OS2IP_m1273945439
zhd:_SHA1Internal_FillBuff_m891541953
h2c:__Z34CanvasRenderer_Get_Custom_PropCullP12Il2CppObject
VM:__ZN20SoundChannelInstance8getDelayE14FMOD_DELAYTYPEPjS1_
rGd:_InputField_set_customCaretColor_m3534590098
fvh:_ScrollRect_set_viewport_m323693490
cGe:_NumberFormatter_FormatExponential_m3975285307
ALc:__ZNSt3__26vectorIN20TextRenderingPrivate8FontImpl13CharacterInfoE13stl_allocatorIS3_L18MemLabelIdentifier1ELi16EEE8__appendEj
v:tempBigInt
we:_emscripten_glVertexAttrib1fv
vli:_Mesh_CheckCanAccessSubmesh_m764012688
adb:__ZNSt3__26vectorIN9ShaderLab20SerializedSubProgram12UAVParameterENS_9allocatorIS3_EEE7reserveEj
nLj:__ZSt11__terminatePFvvE
_lg:__ZL99Thread_t241561612_CustomAttributesCacheGenerator_Thread_t241561612____ExecutionContext_PropertyInfoP21CustomAttributesCache
KJ:__ZN12AudioManager14systemCallbackEP11FMOD_SYSTEM24FMOD_SYSTEM_CALLBACKTYPEPvS3_
oOa:__ZN16ReflectionProbes16UpdateSampleDataEv
o3h:_SafeHandle_Finalize_m1839546519
b6h:_Context_AllocateNamedDataSlot_m3200404053
Ypf:_CryptoConvert_ToHex_m2874017189
AFf:_X509EnhancedKeyUsageExtension_Decode_m3866320499
_Fe:_NumberFormatter_AppendIntegerStringWithGroupSeparator_m1401773574
Te:_JS_Sound_Play
BFd:_Image_IsRaycastLocationValid_m864962354
B3g:__Z181RuntimeInvoker_Void_t1841601450_RuntimeObject_Int32_t2071877448_Int32_t2071877448_RuntimeObject_Int32_t2071877448_Int32_t2071877448_RuntimeObject_Int32_t2071877448_Int32_t2071877448PFvvEPK10MethodInfoPvPS4_
Ybb:__ZN9ShaderLab16SerializedShader8TransferI14SafeBinaryReadEEvRT_
kB:__ZN7mecanim8skeleton13SkeletonAlignEPKNS0_8SkeletonERKN4math7_float4ES7_i
s4b:__ZN19ShaderPropertySheet16SetVectorIndexedEN9ShaderLab16FastPropertyNameEifRK8Vector4fNS_8SetFlagsE
KPf:_RemotingConfiguration_RegisterWellKnownServiceType_m2491506630
Mgg:__ZL55_TypeBuilder_t2783404358_CustomAttributesCacheGeneratorP21CustomAttributesCache
KJd:_LayoutRebuilder_Initialize_m2671585490
N$e:_List_1_System_Collections_IList_IndexOf_m4061554721_gshared
rU:__ZN11UnityEngine15CloudWebService14DataDispatcher4StopEv
cdb:__ZNSt3__26vectorIN9ShaderLab20SerializedSubProgram12UAVParameterENS_9allocatorIS3_EEE8__appendEj
Gjd:_X509Certificate_ToString_m1582581274
ZEh:_Enumerator_get_Current_m2986380627_gshared
Bza:__ZN17ScriptingGCHandle7AcquireE18ScriptingObjectPtr25ScriptingGCHandleWeakness
c5h:_LifetimeServices_set_LeaseTime_m1487876644
HQg:_ConstructorBuilder_not_supported_m3687319507
d0c:__ZN2UI14CanvasRenderer14AttachToCanvasER8JobFencePNS_6CanvasENS0_15InstructionTypeE
KDc:__ZN25SyncColliderTransformData3JobEPS_jPK23TransformAccessReadOnlyPKyj
Emd:_Single_System_IConvertible_ToInt64_m3555853323_AdjustorThunk
jNj:dynCall_iifiii
mja:__Z21HasAlphaTextureFormat13TextureFormat
zO:__ZN12AudioManager6UpdateEv
fja:__ZN14ImageReference9BlitImageERKS_NS_8BlitModeE
ws:__ZN8Animator12AddToManagerEv
UCb:__ZN23CachedSerializationDataD2Ev
VUb:__ZNK25CameraStackRenderingState31CalculateStereoCameraTargetTypeEv
RNa:__ZN14RenderSettings23VirtualRedirectTransferER14SafeBinaryRead
CCc:__ZNK13b2CircleShape5CloneEP16b2BlockAllocator
buj:__ZN6il2cpp2os10ThreadImpl15CurrentThreadIdEv
Dbe:_Array_InternalArray__ICollection_Contains_TisColor32_t874517518_m2818328910_gshared
VKi:_AudioExtensionManager_WriteExtensionProperties_m4015275001
_Xc:_UNITY_tt_face_load_fpgm
gEa:__Z17IsObjectAvailablei
t4a:__ZN12InputManagerD0Ev
LEj:__ZN6il2cpp6icalls8mscorlib6System11Diagnostics10StackTrace9get_traceEP15Il2CppExceptionib
Mzd:_DefaultControls_CreateUIObject_m2810394112
aIa:__ZNK16LightmapSettings14GetLightProbesEv
wYf:_UnicodeEncoding_GetBytes_m1337660232
hKj:_posix_memalign
I4b:__ZN13ProduceHelperI12MeshRendererLb0EE7ProduceE18MemLabelIdentifier18ObjectCreationMode
W_h:_InternalEnumerator_1_get_Current_m747506907_AdjustorThunk
Vdi:_LogCallback_Invoke_m115567905
o0:__ZNK15MonoScriptCache7ReleaseEv
xZi:__ZN6il2cpp2vm5Class13HasReferencesEP11Il2CppClass
gg:_glBindTexture
vIj:_snprintf
_Gd:_InputField_set_caretPosition_m888572237
YTg:_ILGenerator__cctor_m3943061018
gSd:_ArrayListWrapper_Clone_m1506311066
$Ti:_CanvasRenderer_CreateUIVertexStream_m2882962535
bbb:__Z36scripting_liveness_calculation_begin17ScriptingClassPtriPFvPP12Il2CppObjectiPvES3_PFvvES7_
dsa:__ZN16UniformCacheGLES6CreateERK20GpuProgramParameters
KZf:_UTF8Encoding_Fallback_m811555654
t5f:_UInt64_CompareTo_m3513742483
Mge:_Array_InternalArray__IndexOf_TisPlayableBinding_t2498078091_m398853908_gshared
mXf:_Encoding_GetString_m1894033578
Zif:_ReadOnlyCollection_1_System_Collections_IList_Clear_m1918003010_gshared
dRj:_emscripten_glGetProgramInfoLog__wrapper
Xwi:_Transform_set_localScale_m1442831667
TD:__ZN25AnimatedPropertyEvaluator29BindCurveToScriptingObjectPtrERKN13AnimationClip10FloatCurveEj18ScriptingObjectPtrb
OZf:_UTF8Encoding_InternalGetChars_m373801468
y1:__ZN17PersistentManager23DestroyFromFileInternalEi
m4d:_Decimal_System_IConvertible_ToChar_m2425091200_AdjustorThunk
ZNb:__Z19SetupMotionMatricesR6CameraR18RPDataMotionVector
$7d:_Enum_ToString_m2112979707
wNf:_MonoMethodMessage_get_MethodName_m3580519713
zC:__ZN26AnimatorControllerPlayable18PrepareForPlaybackERN7mecanim6memory9AllocatorE
Eed:_HMACSHA512__cctor_m1167457383
FZf:_UTF8Encoding_GetBytes_m4170182058
n$e:_List_1_IndexOf_m2418862432_gshared
zHa:__ZN22CreateGpuProgramOutputC2Ev
kIf:_X509Chain__ctor_m2242540866
nMe:_MemoryStream_InternalConstructor_m2423667240
rOf:_SoapMethodAttribute_SetReflectionObject_m3431595769
Hxh:_Slider_set_maxValue_m2951480075
M4c:__Z38CustomEventData_CUSTOM_InternalDestroyP12Il2CppObject
m5b:__ZN8GUILayer12CleanupClassEv
mId:_InputField_OnSubmit_m2856515494
wZi:__ZN6il2cpp2vm5Class4InitEP11Il2CppClass
ha:invoke_vidi
u0c:__ZN2UI14CanvasRenderer17SyncDirtyElementsER8JobFence
Dyd:_ColorBlock_op_Inequality_m1517672458
Cxj:__ZN6il2cpp5utils11StringUtils15StringDuplicateEPKc
oWb:__Z15CanAddComponentR10GameObjectPKN5Unity4TypeE
QGa:__ZNK9ShaderLab21ShaderRasterStateDesc16ToGfxRasterStateEPK19ShaderPropertySheetS3_R14GfxRasterState
iW:_tlsf_memalign
dVf:_CspParameters__ctor_m2480441577
CGj:__ZN6il2cpp2os9EventImplC2Ebb
E5h:_DynamicPropertyCollection_NotifyMessage_m840388347
sci:_Uri_ParseUri_m5711497
Hch:__Z98RuntimeInvoker_RuntimeObject_RuntimeObject_RayU26_t3651946800_Single_t2076509932_Int32_t2071877448PFvvEPK10MethodInfoPvPS4_
XY:__Z20IsMatrixBuiltinParamPKcPi
$3b:__ZN8Renderer19PostInitializeClassEv
MQh:_InternalEnumerator_1_get_Current_m1943362081_AdjustorThunk
RCj:__ZN6il2cpp6icalls8mscorlib6System8Delegate23CreateDelegate_internalEP20Il2CppReflectionTypeP12Il2CppObjectP22Il2CppReflectionMethodb
qPg:_Default_check_type_m2363631305
nCb:__ZN18DelayedCallManager18CancelCallDelayed2E4PPtrI6ObjectEPF15CallObjectStatePS1_PvES7_
wxa:__ZN25ThreadsafeLinearAllocator10ReallocateEPvji
vmb:__Z18Transfer_BlittableI14SafeBinaryReadLb1E11QuaternionfEvRK29SerializationCommandArgumentsR31RuntimeSerializationCommandInfo
w9:__ZN18SpriteAtlasManagerD0Ev
Oge:_Array_InternalArray__IndexOf_TisRaycastHit2D_t4063908774_m3739817942_gshared
sZg:_MonoProperty_GetAccessors_m3704698731
sCj:_GC_disable
$0a:__ZN10Matrix4x4f8TransferI14SafeBinaryReadEEvRT_
uJc:__ZN15dense_hashtableINSt3__24pairIKNS1_IPK10Collider2DS4_EEjEES5_NS2_23ColliderPairHashFunctorEN14dense_hash_mapIS5_jS8_NS0_8equal_toIS5_EE13stl_allocatorIS7_L18MemLabelIdentifier67ELi16EEE9SelectKeyESB_SE_E9copy_fromERKSH_j
EPe:_UnmanagedMemoryStream_ReadByte_m2501145010
ARf:_ObjectRecord_UnchainFixup_m3025030310
wC:__ZN14AvatarPlayback8StopTimeEv
J3:__Z6AppendRKN4core12basic_stringIcNS_20StringStorageDefaultIcEEEEPKc
Gch:__Z81RuntimeInvoker_RuntimeObject_Ray_t2469606224_Single_t2076509932_Int32_t2071877448PFvvEPK10MethodInfoPvPS4_
Lfi:_Color_ToString_m55788918_AdjustorThunk
Ega:__ZN7ApiGLES18ClearBufferSubDataEjN2gl12BufferTargetEll
zdc:__Z37Camera_Get_Custom_PropAllCamerasCountv
Q$a:__ZN14Texture2DArray8TransferI18StreamedBinaryReadILb0EEEEvRT_
Dkj:__ZN6il2cpp6icalls8mscorlib6System5Array9GetLengthEP11Il2CppArrayi
eSb:__Z18ApplyOcclusionMaskR19ProbeOcclusionCacheRK17LightProbeContextRK10RenderNodeb
ILe:_FileStreamAsyncResult__ctor_m1096228032
PSc:_Split_Cubic
eb:invoke_fiiii
P3d:_DBNull_System_IConvertible_ToSByte_m1228193074
A9e:_Collection_1__ctor_m2818834331_gshared
Mbh:__Z68RuntimeInvoker_UInt16_t986882611_UInt16_t986882611_UInt16_t986882611PFvvEPK10MethodInfoPvPS4_
YDi:_UnityAction_1_Invoke_m3979091955_gshared
iLe:_FileStream_FlushBuffer_m2594140542
pyj:__ZN6il2cpp2vm8Profiler12GCHeapResizeEx
xOj:dynCall_viiifi
foa:__ZN18GfxFramebufferGLES20ActiveContextChangedEPP17RenderSurfaceBaseS2_
Una:__Z19PluginsRenderMarkeri
rE:__ZN10HumanTrait18InitializeBoneNameEv
aoi:_X509CertificateEnumerator_get_Current_m3129374511
dqj:__ZNSt3__214__split_bufferIN6il2cpp2vm5Image20EmbeddedResourceDataERNS_9allocatorIS4_EEEC2EjjS7_
qEd:_HorizontalOrVerticalLayoutGroup_get_spacing_m2859152439
Ufg:__ZL57DispIdAttribute_t607560947_CustomAttributesCacheGeneratorP21CustomAttributesCache
$G:__ZN12AudioManager17RemoveAudioSourceEP11AudioSource
YAi:_GUILayoutEntry_SetVertical_m861127195
KHi:_AesManaged_get_KeySize_m2773901127
Npe:_Array_InternalArray__get_Item_TisUInt64_t2909196914_m2580870875_gshared
v2b:__ZN13ProduceHelperI14SpriteRendererLb0EE7ProduceE18MemLabelIdentifier18ObjectCreationMode
lQ:__ZN5physx14PxLightCpuTask12addReferenceEv
wFc:__Z10b2DistanceP16b2DistanceOutputP14b2SimplexCachePK15b2DistanceInput
ZWa:__ZN21EnlightenSceneMapping8TransferI19StreamedBinaryWriteILb0EEEEvRT_
Erj:__ZN6il2cpp2gc16GarbageCollector19InitializeFinalizerEv
iy:__ZN7mecanim8skeleton18CreateSkeletonMaskEjPKNS0_19SkeletonMaskElementERNS_6memory9AllocatorE
xlc:__ZN10GUIManager10DoGUIEventER10InputEventb
msb:__Z35Transfer_Blittable_FixedBufferFieldI24GenerateTypeTreeTransferxEvRK29SerializationCommandArgumentsR31RuntimeSerializationCommandInfo
dYc:_UNITY_TT_Init_Glyph_Loading
ZMb:__Z20CalculateSqrDistanceRK8Vector3fRK4AABB
mL:__Z32AudioMixerDuckingProcessCallbackP21UnityAudioEffectStatePfS1_jii
dQg:_CustomAttributeTypedArgument_GetHashCode_m999147081_AdjustorThunk
d3b:__ZN26CustomRenderTextureManagerD2Ev
rLe:_FileStream_Read_m3880951166
ALi:_AudioExtensionManager_Update_m3727859914
RH:__ZN12AudioManager8TransferI24GenerateTypeTreeTransferEEvRT_
oia:__Z25GetBytesFromTextureFormat13TextureFormat
vlj:__ZN6il2cpp6icalls8mscorlib6System9Threading6Thread20Thread_free_internalEP12Il2CppThreadi
vMj:dynCall_iiffi
MD:__ZN16MecanimAnimation25RegisterIAnimationBindingEPKN5Unity4TypeEiP17IAnimationBinding
n1:__Z32scripting_class_get_assemblyname17ScriptingClassPtr
b6c:__ZN11UnityEngine15PlatformWrapper15GetVRDeviceNameEv
mHh:_Dictionary_2_Resize_m2532139610_gshared
Qki:_Mathf_RoundToInt_m1833913145
R0f:_TimeSpan_Equals_m2029123271_AdjustorThunk
t3i:__ZN6il2cpp2vm13MetadataCache23GetInvokerMethodPointerEPK10MethodInfoPK20Il2CppGenericContext
yta:__ZN9GfxDevice21RegisterNativeTextureE9TextureIDi16TextureDimension
R9d:_CultureInfo__ctor_m456863818
ZDj:__ZN6il2cpp6icalls8mscorlib6System10Reflection4Emit11TypeBuilder20create_generic_classEP27Il2CppReflectionTypeBuilder
bWe:_Enumerator_MoveNext_m2504790928_gshared
SP:__Z60Register_UnityEngine_AudioListener_GetNumExtensionPropertiesv
Zi:_emscripten_glUniformMatrix4fv
Gij:__ZN15dense_hashtableINSt3__24pairIK10KeyWrapperINS1_IP11Il2CppClassjEEES4_EES6_N6il2cpp8metadata14ArrayClassHashEN14dense_hash_mapIS6_S4_SB_NS6_14EqualsComparerINSA_17ArrayClassCompareEEENS0_9allocatorIS8_EEE9SelectKeyESF_SH_E13set_empty_keyERKS8_
ohb:__ZN12ScriptMapperD2Ev
hed:_KeyedHashAlgorithm_Dispose_m1864300576
Vni:_X509Certificate_PEM_m49854707
DFf:_X509BasicConstraintsExtension__ctor_m3320418592
dni:_ExtendedKeyUsageExtension_Decode_m901297139
qic:__Z52Register_UnityEngine_RenderTexture_Internal_GetWidthv
cBj:_GC_check_leaked
Gfb:__ZN9ShaderLab20SerializedSubProgram16TextureParameter8TransferI19StreamedBinaryWriteILb0EEEEvRT_
wke:_Array_InternalArray__Insert_TisVector4_t2243707581_m1643342708_gshared
Fwa:__ZNK7Hash12812PackToUInt32Ev
c3:__ZNSt3__227__insertion_sort_incompleteIRNS_6__lessI14ObjectLoadDataS2_EEPS2_EEbT0_S6_T_
zU:__ZN11UnityEngine15CloudWebService16SessionContainer8AddEventEPNS0_14CloudEventInfoE
fsa:__Z4TrimRKN4core12basic_stringIcNS_20StringStorageDefaultIcEEEES5_
Pyh:_Text_set_resizeTextMaxSize_m4034967714
Nag:__ZL55GuidAttribute_t222072359_CustomAttributesCacheGeneratorP21CustomAttributesCache
QPg:_CustomAttributeNamedArgument_Equals_m2691468532
n_a:__ZN10VertexData8TransferI14SafeBinaryReadEEvRT_
eJ:__ZN4FMOD8ChannelI8setDelayE14FMOD_DELAYTYPEjj
hXd:_Stack__ctor_m2410583781
YBj:_GC_malloc_atomic
oPg:_Default_GetBetterMethod_m4255740863
SQg:_ConstructorBuilder_GetILGenerator_m1731893569
fqj:__ZNSt3__214__split_bufferIN6il2cpp2vm5Image20EmbeddedResourceDataERNS_9allocatorIS4_EEED2Ev
o$:__ZL20SortItemByInstanceIDRKN18AwakeFromLoadQueue4ItemES2_
WVg:_TypeBuilder_create_runtime_class_m2719530260
Dgd:_RNGCryptoServiceProvider_RngClose_m2921734810
uy:__ZNK34AnimationStateMachineMixerPlayable26GetInterruptedPosePlayableEv
Z8c:__ZN20UnityConnectSettings8TransferI24GenerateTypeTreeTransferEEvRT_
NA:__ZN34BlobWriteTransferSTLStyleArrayImplI22OffsetPtrArrayTransferIbEEclERS1_17TransferMetaFlagsR9BlobWrite
Ere:_SimpleCollator_IsHalfKana_m4255579023
y7e:_Collection_1_System_Collections_IList_Contains_m3365884450_gshared
LAa:__Z16FlaggedAsSkippedIN4core12basic_stringIcNS0_20StringStorageDefaultIcEEEEEbRK13FileEntryInfoRKT_19FileEnumerationFlag
Y4:__ZL31InitializeRendererUpdateManagerPv
s9g:__Z106RuntimeInvoker_RuntimeObject_Int16_t4041245914_RuntimeObject_BooleanU26_t3168250738_BooleanU26_t3168250738PFvvEPK10MethodInfoPvPS4_
Puf:_ClientSessionInfo_Dispose_m2571428025
wJd:_LayoutGroup_DelayedSetDirty_m4276695617
$xf:_RecordProtocol_decryptRecordFragment_m2510859489
$Ci:_InvokableCall_1__ctor_m975753341_gshared
j5a:__ZN11TimeManager8TransferI19StreamedBinaryWriteILb0EEEEvRT_
ZLe:_DelegatePInvokeWrapper_ReadDelegate_t3184826381
KTc:_compare_uni_maps
O6c:__ZN11UnityEngine15PlatformWrapper27GetGraphicsCapsSupportFlagsEv
d5d:_Decimal_Equals_m1115043331
Pvb:__ZN12NativeBufferI16Converter_StringE15SetupForWritingER9ArrayInfo
gQj:___cxa_end_catch__wrapper
lGh:_ValueCollection_System_Collections_Generic_ICollectionU3CTValueU3E_Clear_m231380274_gshared
xsd:_Entry__ctor_m1176697586
XCb:__ZN13MonoBehaviour22DoScriptRebuildWarningEv
Bdc:__Z38Camera_CUSTOM_INTERNAL_CALL_RaycastTryP12Il2CppObjectRK3Rayfi
$jc:__ZN18CrashReportHandler12CloseServiceEv
Yyh:_Text_get_verticalOverflow_m3134063496
xkj:__ZN6il2cpp6icalls8mscorlib6System5Array13ClearInternalEP11Il2CppArrayii
J2h:_GCHandle_get_Target_m2327042781
WLj:_llvm_cttz_i32
YFf:_PublicKey_DecodeDSA_m1169363495
Amc:__ZN11IMGUIModule25GetGUIStyleScriptingClassEv
CWc:_tt_get_interface
Ime:_Array_Sort_TisRuntimeObject_m143182644_gshared
glj:__ZN6il2cpp5utils9PathUtils7CombineIcEENSt3__212basic_stringIT_NS3_11char_traitsIS5_EENS3_9allocatorIS5_EEEERKSA_SC_
jCf:_NameObjectCollectionBase_BaseGet_m667273025
m6g:__Z104RuntimeInvoker_RuntimeObject_Byte_t3683104436_RuntimeObject_SByte_t454417549_RuntimeObject_RuntimeObjectPFvvEPK10MethodInfoPvPS4_
fsc:__ZN9JSONWrite8TransferI13dynamic_arrayIiLj4EEEEvRT_PKc17TransferMetaFlags
R6b:__ZN13PlayableGraph21InvalidateMultithreadEv
s_:__Z18ConvertUTF16toUTF8PPKtS0_PPhS2_15ConversionFlags
RBi:_GUIStyleState__ctor_m3673085649
$9b:__Z24GetActualTargetFrameRatev
f2f:_TypeLoadException__ctor_m1903359728
zUi:__ZL16my_g_bit_nth_msfj
gdd:_KeySizes__ctor_m3526899007
vEe:_Int16_System_IConvertible_ToInt32_m191782913_AdjustorThunk
Myg:__ZL69ArgumentCache_t4810721_CustomAttributesCacheGenerator_m_FloatArgumentP21CustomAttributesCache
fWf:_EncoderReplacementFallback__ctor_m2208438262
iLb:__Z23SetupStereoFlareElementP11FlareVertexRK8Vector2fS3_S3_RK11ColorRGBA32RK10Matrix4x4fRK8Vector3fb
ta:invoke_iiiifiiii
Iti:_RectTransform_set_anchoredPosition_m4223859262
jKe:_Directory_GetFiles_m4036267478
x7d:_Enum_System_IConvertible_ToType_m2669300536
Joa:__ZL19BlitFramebufferImplRN4gles23BlitFramebufferDrawQuadER9GfxDevice9TextureIDRK8Vector4f
Bcj:__ZN15dense_hashtableINSt3__24pairIK10KeyWrapperIPK10Il2CppTypeEjEES6_N6il2cpp8metadata14Il2CppTypeHashEN14dense_hash_mapIS6_jSB_NS6_14EqualsComparerINSA_26Il2CppTypeEqualityComparerEEENS0_9allocatorIS8_EEE9SelectKeyESF_SH_E4findERS7_
Ivi:_StackTraceUtility_ExtractStringFromExceptionInternal_m234524721
ohf:_ReadOnlyCollection_1_System_Collections_IList_Add_m2333231354_gshared
rNc:_UNITY_FT_List_Add
pVg:_OpCodes__cctor_m939885911
C3b:__ZN14Texture2DArray11InitTextureEiii13TextureFormatb
Adi:_UriParser_InitializeAndValidate_m251943319
Qid:_SymmetricAlgorithm_set_Padding_m3081984460
shj:__ZN15dense_hashtableINSt3__24pairIK10KeyWrapperINS1_IPK11Il2CppImageP11Il2CppClassEEEjEES9_17ReflectionMapHashIS8_EN14dense_hash_mapIS9_jSD_NS9_14EqualsComparerINS0_8equal_toIS8_EEEENS0_9allocatorISB_EEE9SelectKeyESI_SK_E14squash_deletedEv
U4a:__ZN9InputAxis8TransferI18StreamedBinaryReadILb0EEEEvRT_
nPb:__ZNK6Camera26GetStereoSingleCullEnabledEv
bTf:_StreamingContext_t1417235061_marshal_pinvoke_back
l8a:__Z14resize_trimmedINSt3__26vectorIN4core12basic_stringIcNS2_20StringStorageDefaultIcEEEE13stl_allocatorIS6_L18MemLabelIdentifier13ELi16EEEEEvRT_j
tRd:_ArrayList_RemoveAt_m2578928333
dnb:__Z18Transfer_BlittableI14SafeBinaryReadLb0EaEvRK29SerializationCommandArgumentsR31RuntimeSerializationCommandInfo
xDi:_InvokableCall_3__ctor_m4270240248_gshared
ugf:_ReadOnlyCollection_1_System_Collections_IList_set_Item_m1233322304_gshared
kni:_GeneralNames_get_DNSNames_m2721668874
n7d:_Enum_System_IConvertible_ToByte_m38374586
cgf:_ReadOnlyCollection_1_System_Collections_Generic_IListU3CTU3E_RemoveAt_m1592158292_gshared
rPj:_emscripten_glFrustum__wrapper
ryf:_ReceiveRecordAsyncResult_get_CompletedWithError_m2670396551
Q4d:_Decimal_Equals_m1798565377
Oeb:__ZN15SerializeTraitsINSt3__26vectorIN9ShaderLab20SerializedSubProgram15MatrixParameterENS0_9allocatorIS4_EEEEE8TransferI24GenerateTypeTreeTransferEEvRS7_RT_
cSg:_TypeBuilder_check_created_m2929267877
dah:__Z121RuntimeInvoker_Int64_t909078037_Int32_t2071877448_Int32_t2071877448_Int32_t2071877448_Int32_t2071877448_Int32_t2071877448PFvvEPK10MethodInfoPvPS4_
uJb:__Z20SyncFenceCullResultsR11CullResults
Vqa:__ZN15TextureTFMethod20IsBoneCountSupportedEi
QNa:__ZN14RenderSettings23VirtualRedirectTransferER24GenerateTypeTreeTransfer
tkc:__ZN18CrashReportManagerC2E18MemLabelIdentifier18ObjectCreationMode
w1d:_DateTime_System_IConvertible_ToSByte_m2575078084_AdjustorThunk
xrb:__Z22TransferField_NonArrayI17RemapPPtrTransfer27Converter_SimpleNativeClassI8GUIStyleEEvRK23StaticTransferFieldInfoR31RuntimeSerializationCommandInfoRT0_
dWi:_CustomEventData_AddUInt64_m1392334967
W1b:__ZNK17AnimationCurveTplIfE20EvaluateWithoutCacheEfRf
Vvj:__ZN6il2cpp2os6Thread12QueueUserAPCEPFvPvES2_
fOa:__ZN19ShaderPropertySheet10SetTextureERK23FastTexturePropertyNameP7Texture
gaf:_Collection_1_IsValidItem_m1304951912_gshared
N8b:__ZN4Mesh10SetNormalsEPK8Vector3fj
XJc:__Z66Register_UnityEngine_Physics2D_INTERNAL_CALL_GetRayIntersectionAllv
JZd:_Convert_ToDateTime_m4161927553
iSg:_TypeBuilder_GetConstructors_m774120094
txj:__ZNSt3__212basic_stringIDsNS_11char_traitsIDsEENS_9allocatorIDsEEE9__grow_byEjjjjjj
Cr:__ZN17AnimationCurveTplIfE8TransferI14SafeBinaryReadEEvRT_
L1d:_Calendar_get_EraNames_m452820602
OYa:__ZNSt3__26vectorIN15QualitySettings14QualitySettingENS_9allocatorIS2_EEE6assignIPS2_EENS_9enable_ifIXaasr21__is_forward_iteratorIT_EE5valuesr16is_constructibleIS2_NS_15iterator_traitsIS9_E9referenceEEE5valueEvE4typeES9_S9_
ZJb:__ZNK19ShaderPropertySheet11HasPropertyERKN9ShaderLab16FastPropertyNameE
h1d:_DateTime_System_IConvertible_ToByte_m2670443498_AdjustorThunk
Jof:_BigInteger_op_Addition_m1734797151
b$a:__ZN15dense_hashtableINSt3__24pairIKN4core12basic_stringIcNS2_20StringStorageDefaultIcEEEE13dynamic_arrayI4PPtrI6SpriteELj4EEEES6_20StringHash32FunctionIS6_EN14dense_hash_mapIS6_SC_SF_NS0_8equal_toIS6_EE13stl_allocatorISD_L18MemLabelIdentifier81ELi16EEE9SelectKeyESI_SL_E4findERS7_
DSg:_EnumBuilder_CreateNotSupportedException_m62763134
Vad:__ZNK12HeaderHelper3GetERKN4core12basic_stringIcNS0_20StringStorageDefaultIcEEEE
$Pe:_Math_Log_m3371716878
L4a:__ZN9InputAxis8TransferI14SafeBinaryReadEEvRT_
D$:__ZNK21ExecutionOrderManager30GetCustomAwakeFromLoadQueueForEPKN5Unity4TypeE
sad:__Z27RegisterModule_UnityConnectv
ZUd:_Hashtable__ctor_m4280223555
SZg:_ParameterInfo_get_IsRetval_m1881464570
jPf:_RealProxy__ctor_m3041043303
sFe:_NumberFormatter_Init_m2654758994
red:_HMACSHA1__ctor_m1168389339
aIc:__ZNK17Physics2DSettings22GetTypeVirtualInternalEv
TRj:_glBindRenderbuffer__wrapper
yK:__ZN10ObjectPoolIN4FMOD12ChannelGroupENS0_13ChannelGroupIEE7SetSizeEi
xue:_PrimalityTest_BeginInvoke_m966469054
Vei:_Bounds_get_max_m1939845278_AdjustorThunk
rjf:_ReadOnlyCollection_1_System_Collections_Generic_ICollectionU3CTU3E_Clear_m1785953911_gshared
d5f:_UInt64_System_IConvertible_ToInt16_m2797150165_AdjustorThunk
xpe:_Array_InternalArray__get_Item_TisLabelData_t3712112744_m863115768_gshared
gHe:_Int32_Parse_m753946802
y$b:__ZN9Polygon2D7SetPathEiRK13dynamic_arrayI8Vector2fLj4EE
HLi:_AudioConfigurationChangeHandler_Invoke_m653824108
f4e:_List_1_RemoveAt_m2331128844_gshared
yhj:__ZN14dense_hash_mapI10KeyWrapperINSt3__24pairIPK9EventInfoP11Il2CppClassEEEj17ReflectionMapHashIS8_ENS9_14EqualsComparerINS1_8equal_toIS8_EEEENS1_9allocatorINS2_IKS9_jEEEEE15set_deleted_keyERSH_
sWg:_UnmanagedMarshal_ToMarshalAsAttribute_m3695569337
Pob:__Z14resize_trimmedINSt3__26vectorI17AnimationCurveTplIfE13stl_allocatorIS3_L18MemLabelIdentifier1ELi16EEEEEvRT_j
TUb:__ZN25CameraStackRenderingState19SetupLastEyeCamerasERK11CameraStack
MCa:__Z12GUIDToStringRK9UnityGUID
yG:__ZN11SoundHandleC2ERKS_
kx:__ZN17AnimationPlayableC2E18DirectorPlayerType
D2i:__ZNK6il2cpp5utils11collections13ArrayValueMapIPK10Il2CppType17Il2CppInteropData26InteropDataToTypeConverterNS_8metadata14Il2CppTypeLessENS8_26Il2CppTypeEqualityComparerEE10find_firstERKS5_
JLa:__ZN15SerializeTraitsI12fixed_bitsetILi24EjEE8TransferI18StreamedBinaryReadILb0EEEEvRS1_RT_
cue:_BigInteger_op_Addition_m1196561843
JTi:_CanvasRenderer_INTERNAL_CALL_GetColor_m3192682614
i5h:_FormatterData__ctor_m3974986124
Pfd:_RijndaelManagedTransform_get_CanReuseTransform_m3735256596
vUd:_Comparer__cctor_m1327316974
eKe:_MonoIO_ExistsFile_m1421941572
V2d:_DateTime_op_GreaterThanOrEqual_m3818963848
lv:__ZN17AnimationPlayable18DeallocateBindingsEv
AWb:__ZN6Camera25StandaloneRenderToCubemapEP7TextureiPFvPK9SceneNodePK4AABBR9IndexListPvESA_j
Pzd:_DefaultControls_SetDefaultTextValues_m1707718380
Qvd:_TouchInputModule_UseFakeInput_m2112019004
RVi:_UnityAnalyticsHandler_SendCustomEventName_m2082986888
Prd:_EventSystem_get_baseEventDataCache_m4294741599
VNa:__ZN14RenderSettings18TransferDeprecatedI14SafeBinaryReadEEvRT_
nsi:_Rect_get_center_m2903917731_AdjustorThunk
FX:__ZN12TLSAllocatorI14StackAllocatorE8AllocateEji
D0:__ZN16ScriptingManager18GetMonoScriptCacheEi
$1g:__Z62RuntimeInvoker_Void_t1841601450_RuntimeObject_Int64_t909078037PFvvEPK10MethodInfoPvPS4_
S_i:__ZN15dense_hashtableINSt3__24pairIK10KeyWrapperIPK11Il2CppClassEPKcEES6_N6il2cpp5utils11PointerHashIS3_EEN14dense_hash_mapIS6_S9_SE_NS6_14EqualsComparerINS0_8equal_toIS5_EEEENS0_9allocatorISA_EEE9SelectKeyESJ_SL_E15set_deleted_keyERKSA_
WDd:_GridLayoutGroup_CalculateLayoutInputHorizontal_m2355123124
knb:__Z18Transfer_BlittableI14SafeBinaryReadLb1EyEvRK29SerializationCommandArgumentsR31RuntimeSerializationCommandInfo
bpc:__ZN8JSONRead8TransferIfEEvRT_PKc17TransferMetaFlagsb
cPh:_U3CGetEnumeratorU3Ec__Iterator0_Reset_m2980566576_gshared
rgb:__ZN9ShaderLab7Program22ComputeSupportsShadowsEv
HKj:__ZNSt3__212basic_stringIcNS_11char_traitsIcEENS_9allocatorIcEEE6appendEPKcj
ceg:__ZL54TypeBuilder_t3308873219_CustomAttributesCacheGeneratorP21CustomAttributesCache
Bla:__ZN6prcoreL17RemapGenericFloatI18TexFormatARGBFloat17TexFormatRGBAHalfEEvPKNS_9InnerInfoE
Vaf:_Collection_1_CheckWritable_m691269733_gshared
WL:__ZN11AudioSource21ApplyCachedParametersE12SoundChannel
fTg:_GenericTypeParameterBuilder_GetAttributeFlagsImpl_m3338182267
JQ:__ZN13Simd4iFactoryIN6detail9FourTupleEEC2Eiiii
wOe:_SynchronizedReader__ctor_m1408327515
pqi:_X509Store_LoadCrl_m1146720614
jlf:_ReadOnlyCollection_1_System_Collections_IList_Clear_m1858417639_gshared
qEi:_UnityAction_3_Invoke_m1025098032_gshared
BWa:__ZN15SerializeTraitsI33EnlightenTerrainChunksInformationE8TransferI14SafeBinaryReadEEvRS0_RT_
LDc:__ZN6b2Body12SetTransformERK6b2Vec2f
p4b:__ZNK32RendererMaterialAnimationBinding9BindValueER6ObjectRKN11UnityEngine9Animation14GenericBindingERNS3_10BoundCurveE
aTa:__Z13GetIAnimationv
Kja:__ZL18stbir__support_onef
VZe:_List_1_System_Collections_IList_Remove_m2040310137_gshared
Zei:_Bounds_SetMinMax_m2094075031_AdjustorThunk
Oqc:__Z26Transfer_UnityEngineObjectI9JSONWriteLb0EEvRK29SerializationCommandArgumentsR31RuntimeSerializationCommandInfo
wRa:__ZNSt3__26vectorIN4core12basic_stringIcNS1_20StringStorageDefaultIcEEEE13stl_allocatorIS5_L18MemLabelIdentifier1ELi16EEE6assignINS_11__wrap_iterIPS5_EEEENS_9enable_ifIXaasr21__is_forward_iteratorIT_EE5valuesr16is_constructibleIS5_NS_15iterator_traitsISF_E9referenceEEE5valueEvE4typeESF_SF_
k4f:_UInt32_System_IConvertible_ToInt16_m2251335934_AdjustorThunk
D$c:__ZNSt3__27__sort5IRNS_6__lessIN2UI14DepthSortEntryES3_EEPS3_EEjT0_S7_S7_S7_S7_T_
UMd:_Boolean_System_IConvertible_ToType_m3990189691
Ca:invoke_vdd
E8:__ZN14dense_hash_mapIN4core12basic_stringIcNS0_20StringStorageDefaultIcEEEE13dynamic_arrayI4PPtrI6SpriteELj4EE20StringHash32FunctionIS4_ENSt3__28equal_toIS4_EE13stl_allocatorINSC_4pairIKS4_S9_EEL18MemLabelIdentifier81ELi16EEE15set_deleted_keyERSH_
N6d:_Double_System_IConvertible_ToUInt32_m624993430
G2b:__ZNK30SpriteRendererAnimationBinding12GetPPtrValueERKN11UnityEngine9Animation10BoundCurveE
cZc:__ZZ29InitializeTextRenderingModulevEN27cleanupAfterLoadRegistrator7ForwardEv
N$f:_Scheduler_Add_m376749205
Kw:__ZN27AnimationLayerMixerPlayable24ProcessAnimationLayerMixEP33AnimationPlayableEvaluationOutputP35AnimationPlayableEvaluationConstantP32AnimationPlayableEvaluationInputS1_if
EUb:__Z29PluginsIssueRenderingExtEvent26UnityRenderingExtEventTypePv
w4i:_WebRequestUtils_RedirectTo_m675215376
q3b:__Z14RandomRotationP9Texture2DPhiiii
Nre:_SimpleCollator_IsIgnorable_m2485013022
I1e:_List_1_System_Collections_IList_Insert_m2036969360_gshared
wHd:_InputField_GetUnclampedCharacterLineFromPosition_m1912794077
r3d:_DateTimeOffset_ToString_m2121173678_AdjustorThunk
T9g:__Z74RuntimeInvoker_RuntimeObject_RuntimeObject_Int16_t4041245914_RuntimeObjectPFvvEPK10MethodInfoPvPS4_
lj:_JS_WebRequest_SetResponseHandler
wVj:_glDeleteProgram__wrapper
Idc:__Z50Register_UnityEngine_Camera_INTERNAL_get_pixelRectv
Tka:__ZN6prcoreL18BlitFloatToIntegerERK14ImageReferenceRS0_
Xze:_X509CertificateCollection_get_Item_m410866272
UT:__ZN11UnityEngine15CloudWebService14RestDownloader17OnCompleteContentEv
oEd:_LayoutGroup_SetChildAlongAxis_m1615929339
X9g:__Z75RuntimeInvoker_RuntimeObject_RuntimeObject_Double_t4078015681_RuntimeObjectPFvvEPK10MethodInfoPvPS4_
j9g:__Z200RuntimeInvoker_Boolean_t3825574718_RuntimeObject_RuntimeObject_RuntimeObject_Int32_t2071877448_DateTimeU26_t3448131235_SByte_t454417549_BooleanU26_t3168250738_SByte_t454417549_ExceptionU26_t1467204777PFvvEPK10MethodInfoPvPS4_
Sa:invoke_viffi
Gy:__ZN17AnimationPlayable28UpdateInternalStateRecursiveILi1ELb0EEEvPK35AnimationPlayableEvaluationConstant
Rrj:__ZN6il2cpp2gcL10CleanupCCWEPvS1_
Va:invoke_vifff
$fc:__Z53Register_UnityEngine_Input_INTERNAL_get_mousePositionv
iUj:_glGetVertexAttribiv__wrapper
Se:_emscripten_request_fullscreen
TDb:__ZN20LocalFileSystemWebGL6DeleteER13FileEntryDatab
C4d:_Decimal_System_IConvertible_ToUInt16_m1621568250
Ue:_emscripten_glDisableVertexAttribArray
Ym:FUNCTION_TABLE_iiiifiiii
H0f:_TimeSpan_get_TotalMinutes_m1645177229_AdjustorThunk
pc:invoke_fifffi
nha:__ZN4gles23ClearCurrentFramebufferEP7ApiGLESbbbRK10ColorRGBAffi
ex:__ZN7mecanim12statemachine20CreateStateWorkspaceEjjjRNS_6memory9AllocatorE
sRh:_InternalEnumerator_1_System_Collections_IEnumerator_get_Current_m3680087284_gshared
df:_emscripten_glDeleteObjectARB
_f:_IMG_Load
mPe:_UnexceptionalStreamReader_Read_m3839775235
Pji:_Input_get_compositionCursorPos_m1028058884
ric:__Z53Register_UnityEngine_RenderTexture_Internal_GetHeightv
rqe:_Dropdown_GetOrAddComponent_TisRuntimeObject_m2875934266_gshared
Ula:__ZN6prcoreL17RemapGenericFloatI17TexFormatRGBAHalf18TexFormatARGBFloatEEvPKNS_9InnerInfoE
t7d:_Enum_System_IConvertible_ToInt32_m2459904362
_9g:__Z61RuntimeInvoker_RuntimeObject_Double_t4078015681_RuntimeObjectPFvvEPK10MethodInfoPvPS4_
mGc:__ZNSt3__27__sort4IRN18Overlap2DQueryBase29ColliderHitsByDepthComparitorEPP10Collider2DEEjT0_S7_S7_S7_T_
qmc:__Z14GetBuiltinSkini
Irf:_ContentInfo__ctor_m3871771681
rkc:__ZN18CrashReportHandler23RegisterGlobalCallbacksEv
Lqd:_BaseInput_set_compositionCursorPos_m2632248731
NJi:_Enumerator_System_Collections_IEnumerator_Reset_m2573763156_gshared
Omh:__Z74RuntimeInvoker_Void_t1841601450_Int32_t2071877448_MonoResource_t3127387157PFvvEPK10MethodInfoPvPS4_
UJe:_DirectoryInfo_Initialize_m2216118894
sld:_WindowsIdentity_Dispose_m2649088337
$hb:__ZN2UI13RectTransform23VirtualRedirectTransferER14SafeBinaryRead
leb:__ZNSt3__26vectorIN9ShaderLab20SerializedSubProgramENS_9allocatorIS2_EEE6assignIPS2_EENS_9enable_ifIXaasr21__is_forward_iteratorIT_EE5valuesr16is_constructibleIS2_NS_15iterator_traitsIS9_E9referenceEEE5valueEvE4typeES9_S9_
_sc:__Z18Transfer_BlittableI8JSONReadLb0E8BitFieldEvRK29SerializationCommandArgumentsR31RuntimeSerializationCommandInfo
rQf:_SoapServices_RegisterInteropXmlType_m2949236705
hxb:__ZL17Transfer_GUIStyleI18StreamedBinaryReadILb1EELb0EEvRK29SerializationCommandArgumentsR31RuntimeSerializationCommandInfo
wpd:_String_CharCopy_m2550399897
Lah:__Z234RuntimeInvoker_RuntimeObject_Int16_t4041245914_RuntimeObject_Int32_t2071877448_Int32_t2071877448_Int32_t2071877448_SByte_t454417549_SByte_t454417549_SByte_t454417549_SByte_t454417549_Int16_t4041245914_SByte_t454417549_SByte_t454417549PFvvEPK10MethodInfoPvPS4_
rcb:__ZN9ShaderLab14SerializedPass8TransferI14SafeBinaryReadEEvRT_
inc:__Z71Register_UnityEngine_GUILayoutUtility_INTERNAL_CALL_Internal_MoveWindowv
DO:__ZN12AudioManager16SetListenerPauseEb
xAc:__ZNSt3__26__sortIRN10ClipperLib12LocMinSorterEPNS1_12LocalMinimumEEEvT0_S6_T_
gmj:__ZN6il2cpp2vm9Exception25RaiseOutOfMemoryExceptionERKNS_5utils10StringViewIDsEE
v9e:_Collection_1_IsValidItem_m2254106115_gshared
rSg:_TypeBuilder_GetEvent_m3876348075
dyh:_Slider_OnMove_m641164662
ea:invoke_viiiiiiiiiii
gHj:___syscall_ret
Q$f:_Scheduler__ctor_m3716265742
axe:_MACAlgorithm_Final_m4076939925
D$b:__ZN14qsort_internal30FindAndMovePivotToLastPositionIP8Vector2fi26PointDistanceSortPredicateEEvT_S4_T0_T1_
k5c:__Z56Register_UnityEngine_Analytics_CustomEventData_AddDoublev
T_a:__ZN11ChannelInfo8TransferI19StreamedBinaryWriteILb0EEEEvRT_
_Qh:_InternalEnumerator_1_System_Collections_IEnumerator_get_Current_m3583252352_gshared
Lmi:_Object_op_Implicit_m1757773010
URg:_EnumBuilder_get_FullName_m2818393911
Pof:_BigInteger_op_RightShift_m852685747
Rec:__Z34Register_UnityEngine_Gradient_Initv
mrd:_BaseInputModule_GetAxisEventData_m3903709281
Ope:_Array_InternalArray__get_Item_TisUriScheme_t1876590943_m1821482697_gshared
Mnf:_BigInteger__ctor_m3239748086
OZa:__ZN13ScreenManager23SetIsOrientationEnabledE18EnabledOrientationb
Zui:_HitInfo_SendMessage_m3395411273
Qw:__ZN7mecanim5human25HumanPoseAddOverrideLayerERNS0_9HumanPoseERKS1_fRKNS_6bitsetILj70EEE
Q1b:__ZN13ProduceHelperI9TransformLb0EE7ProduceE18MemLabelIdentifier18ObjectCreationMode
eie:_Array_InternalArray__ICollection_Add_TisHitInfo_t1761367055_m2956071622_gshared
PDa:__ZN10GameObject23VirtualRedirectTransferER18StreamedBinaryReadILb0EE
vg:_glFrontFace
oSf:_ObjectRecord_get_IsUnsolvedObjectReference_m2202692850
JJf:_FactoryCache_Cleanup_m4130035987
dui:_Vector2_op_Addition_m4229571528
P0b:__ZN13ProduceHelperI19LowerResBlitTextureLb0EE7ProduceE18MemLabelIdentifier18ObjectCreationMode
_Qb:__ZNSt3__26vectorI16ShadowCasterData13stl_allocatorIS1_L18MemLabelIdentifier2ELi16EEE21__push_back_slow_pathIKS1_EEvRT_
O4f:_UInt32_ToString_m1783596809
eSj:_glUniform1i__wrapper
LZc:__Z51Register_UnityEngine_TextGenerator_GetLinesInternalv
gKi:_HashSet_1_Init_m1258286688_gshared
Lpi:_X509ExtensionCollection_get_Item_m4212651995
uhf:_ReadOnlyCollection_1_System_Collections_IList_RemoveAt_m525136953_gshared
jla:__ZN6prcoreL17RemapGenericFloatI17TexFormatRGBFloat18TexFormatRGBAFloatEEvPKNS_9InnerInfoE
hbj:__ZN6il2cpp2vm4Type15IsSystemDecimalEPK10Il2CppType
T4f:_UInt64_System_IConvertible_ToBoolean_m3012279573_AdjustorThunk
I2f:_Type_get_IsGenericTypeDefinition_m2147901038
kad:__ZN20UnityConnectSettings10InitializeEv
EBe:_GregorianCalendar__ctor_m3794576475
J4f:_UInt32_TryParse_m4283512434
Dwi:_TrackedReference_GetHashCode_m1278837032
fDc:__ZN16PhysicsManager2D12BeginContactEP9b2Contact
pG:__ZN9AudioClip11CreateSoundEv
HCh:_ShimEnumerator_MoveNext_m3313047792_gshared
m1f:_TimeSpan_op_Inequality_m257547441
Mhj:__ZN14dense_hash_mapI10KeyWrapperINSt3__24pairIPK9FieldInfoP11Il2CppClassEEEj17ReflectionMapHashIS8_ENS9_14EqualsComparerINS1_8equal_toIS8_EEEENS1_9allocatorINS2_IKS9_jEEEEEC2EjRKSB_RKSF_
mdj:__ZNK15dense_hashtableINSt3__24pairIK10KeyWrapperINS1_IPK10MethodInfoP11Il2CppClassEEEjEES9_17ReflectionMapHashIS8_EN14dense_hash_mapIS9_jSD_NS9_14EqualsComparerINS0_8equal_toIS8_EEEENS0_9allocatorISB_EEE9SelectKeyESI_SK_E13find_positionERSA_
Lda:__ZN13GfxDeviceGLES20CreateComputeProgramEPKhj
BZd:_DateTimeFormatInfo_get_RoundtripPattern_m562440017
w9c:__ZN11UnityEngine7Connect16PersistentValues13RestoreValuesER8JSONRead
fBa:__ZN20ArchiveStorageReader31TryToReadDirectoryFromBlockDataEyPKvj
s6d:_Double_System_IConvertible_ToByte_m3004284950_AdjustorThunk
woj:__ZN6il2cpp2vmL11GetIdentityEP14Il2CppIUnknown
Bwe:_SmallXmlParser_ReadCDATASection_m2558307107
NAj:_GC_push_gc_structures
SCf:_ServicePointManager_get_ServerCertificateValidationCallback_m1409951209
D6i:__ZN6il2cpp6icalls8mscorlib6SystemL8IsPublicEPK9EventInfo
bXd:_Enumerator_get_Current_m1271212567
Zxj:__ZThn4_N6il2cpp2vm13ComObjectBase18ReleaseMarshalDataEP13Il2CppIStream
CDf:_IPAddress_ParseIPV6_m2209709575
Juh:_U3CClickRepeatU3Ec__Iterator0_MoveNext_m1747924386
enf:_Comparison_1_Invoke_m1670081898_gshared
yzh:_Toggle_set_group_m3833595685
QJd:_LayoutRebuilder_ForceRebuildLayoutImmediate_m566681977
k$a:__ZNSt3__213__stable_sortIRNS_4lessI4PPtrI11SpriteAtlasEEENS_11__wrap_iterIPS4_EEEEvT0_SA_T_NS_15iterator_traitsISA_E15difference_typeEPNSD_10value_typeEi
mie:_Array_InternalArray__ICollection_Add_TisVector4_t2243707581_m698578249_gshared
pri:_PropertyName_ToString_m1129982609_AdjustorThunk
vY:__ZN8keywords6CreateEPKc
S:Math_imul
o3a:__ZN14SpriteRenderer15SetupPropertiesEv
aZa:__ZN11PlayerPrefs6GetIntERKN4core12basic_stringIcNS0_20StringStorageDefaultIcEEEEi
o1i:__ZN6il2cpp5utils13dynamic_arrayIPK10Il2CppTypeLj4EEC2ERKS5_
tZc:__Z45TextGenerator_CUSTOM_INTERNAL_get_rectExtentsP12Il2CppObjectP5RectTIfE
lde:_SetPropertyUtility_SetStruct_TisChar_t3454481338_m2333420724_gshared
y9e:_Collection_1_IsSynchronized_m2601980439_gshared
yVd:_Hashtable_ContainsKey_m2716576664
vza:__Z18ReadStringFromFilePN4core17string_with_labelILi1EEERKNS_12basic_stringIcNS_20StringStorageDefaultIcEEEE
n8h:_PatternCompiler_EmitCategory_m1696942454
N4d:_Decimal_decimalFloorAndTrunc_m3655683429
Gie:_Array_InternalArray__ICollection_CopyTo_TisInt32_t2071877448_m984622488_gshared
h_:__ZN18ScriptingArguments9AddObjectE18ScriptingObjectPtr
K1c:__Z39CanvasGroup_Get_Custom_PropInteractableP12Il2CppObject
eR:__ZN11UnityEngine15CloudWebService16SessionContainerD2Ev
H9c:__ZL38InitializeUnityConnectScriptingClassesv
nVb:__ZN13ProbeRenderer8ConvolveEbijjb
Dha:__ZN17GenericDynamicVBOC2ER9GfxDevice13GfxBufferModejj
I5h:_Context_get_HasDynamicSinks_m1998518649
AGc:__Z28GetPhysics2DScriptingClassesv
rlc:__ZZN10GUIManager14InitGUIManagerEvEN41PreUpdateIMGUISendQueuedEventsRegistrator7ForwardEv
UDi:_UnityAction_1_Invoke_m2903588655_gshared
xS:__ZN11UnityEngine15CloudWebService17SessionEventQueue10PurgeItemsEj
UVb:__ZN6Camera16StandaloneRenderENS_10RenderFlagEP6ShaderRKN4core12basic_stringIcNS3_20StringStorageDefaultIcEEEE
iKd:_Array_System_Collections_IList_get_Item_m2088124007
CKd:_Array_GetLength_m2083296647
iTd:_SynchronizedArrayListWrapper_ToArray_m1522185111
Bwb:__Z18Transfer_BlittableI18StreamedBinaryReadILb1EELb1EtEvRK29SerializationCommandArgumentsR31RuntimeSerializationCommandInfo
Uba:__ZN9GfxDevice20DeallocRenderSurfaceEP17RenderSurfaceBase
k6f:_ValueType_ToString_m3796301715
Cna:__ZN20GpuProgramParameters36UpdatePrepareValuesMaximumBufferSizeEv
Pqj:__ZNK15dense_hashtableI10KeyWrapperIP18Il2CppGenericClassES3_N6il2cpp8metadata22Il2CppGenericClassHashEN14dense_hash_setIS3_S6_NS3_14EqualsComparerINS5_25Il2CppGenericClassCompareEEENSt3__29allocatorIS3_EEE8IdentityESA_SD_E12test_deletedEj
qgc:__Z53Register_UnityEngine_Quaternion_INTERNAL_CALL_Inversev
Jui:_Screen_get_height_m3831644396
DFa:__ZN12BaseRenderer23RendererBecameInvisibleEv
ILc:__ZN20TextRenderingPrivate8FontImpl13CharacterInfo8TransferI18StreamedBinaryReadILb0EEEEvRT_
Qtb:__Z29Transfer_Blittable_ArrayFieldI24GenerateTypeTreeTransferfEvRT_R9ArrayInfoRK23StaticTransferFieldInfo
c4:__ZNSt3__26__treeINS_12__value_typeIN4core12basic_stringIcNS2_20StringStorageDefaultIcEEEES6_EENS_19__map_value_compareIS6_S7_NS_4lessIS6_EELb1EEE13stl_allocatorIS7_L18MemLabelIdentifier13ELi16EEE7destroyEPNS_11__tree_nodeIS7_PvEE
v2g:__Z76RuntimeInvoker_RuntimeObject_RuntimeObject_SByte_t454417549_SByte_t454417549PFvvEPK10MethodInfoPvPS4_
hXb:__ZN19CustomRenderTexture9AddParentE4PPtrIS_E
QXa:__ZN8Gradient8TransferI14SafeBinaryReadEEvRT_
kFi:_UnityEvent_1_Invoke_m1533100983_gshared
vRa:__ZNSt3__26vectorIN4core12basic_stringIcNS1_20StringStorageDefaultIcEEEE13stl_allocatorIS5_L18MemLabelIdentifier1ELi16EEE7reserveEj
WCf:_FileWebRequest__ctor_m4003648606
zLg:__ZL71SpriteState_t1353336012_CustomAttributesCacheGenerator_m_DisabledSpriteP21CustomAttributesCache
v7d:_Enum_System_IConvertible_ToSByte_m3488526280
t2i:__ZNK15dense_hashtableI10KeyWrapperIPK19Il2CppGenericMethodES4_N6il2cpp8metadata23Il2CppGenericMethodHashEN14dense_hash_setIS4_S7_NS4_14EqualsComparerINS6_26Il2CppGenericMethodCompareEEENSt3__29allocatorIS4_EEE8IdentityESB_SE_E4findERKS4_
dkb:__ZNK20LocalFileSystemPosix9IsSymLinkERK13FileEntryData
Hzj:_GC_new_free_list_inner
JKh:_DefaultComparer_Equals_m85211180_gshared
vRe:_MonoType_InternalGetEvent_m532443236
tbf:_Collection_1_IndexOf_m2700825189_gshared
mzi:_MathfInternal__cctor_m2774058555
Otc:__ZN8JSONRead8TransferI10RectOffsetEEvRT_PKc17TransferMetaFlagsb
fS:__ZN9JSONWrite8TransferIN11UnityEngine15CloudWebService14DataErrorEvent15FileErrorDetailEEEvRT_PKc17TransferMetaFlags
Xpd:_Decoder__ctor_m2623573910
sJ:__ZN12SoundManager20RegisterModifiedClipEP10SampleClip
fhi:_Logger__ctor_m1903664092
PL:__ZN11AudioSource4PlayEd
Isj:__ZN6il2cpp2vm6Object16GetVirtualMethodEP12Il2CppObjectPK10MethodInfo
oKi:_HashSet_1_Add_m199171953_gshared
k0i:__ZN15dense_hashtableI10KeyWrapperIPK17Il2CppGenericInstES4_N6il2cpp8metadata21Il2CppGenericInstHashEN14dense_hash_setIS4_S7_NS4_14EqualsComparerINS6_24Il2CppGenericInstCompareEEENSt3__29allocatorIS4_EEE8IdentityESB_SE_E13set_empty_keyERKS4_
DNh:_EqualityComparer_1_System_Collections_IEqualityComparer_Equals_m3589836321_gshared
Nwe:_SmallXmlParser_IsNameChar_m1561000202
Eoi:_X501__cctor_m2610532554
NBh:_Enumerator_VerifyState_m3173176371_gshared
c4e:_List_1_CheckCollection_m2220107869_gshared
JUa:__ZN7Cubemap23VirtualRedirectTransferER18StreamedBinaryReadILb0EE
tuf:_RecordProtocol_EncodeRecord_m3884270352
Mhd:_SHA256_Create_m896954069
gXc:_Read_CVT
v0d:_Convert_ToUInt32_m776714429
sBa:__ZN12FileAccessor4SeekEx10FileOrigin
Esb:__ZL26Transfer_SimpleNativeClassI24GenerateTypeTreeTransfer17AnimationCurveTplIfELb0EEvRK29SerializationCommandArgumentsR31RuntimeSerializationCommandInfo
Ouc:__ZN8JSONRead21TransferSTLStyleArrayI13dynamic_arrayI9BoundsIntLj4EEEEvRT_17TransferMetaFlags
LWa:__ZN24GenerateTypeTreeTransfer8TransferI13dynamic_arrayI33EnlightenTerrainChunksInformationLj4EEEEvRT_PKc17TransferMetaFlags
f5:__ZN16LightmapSettings20DidChangeActiveSceneEP10UnitySceneS1_
mPg:_Default_ReorderParameters_m1877749093
NNg:__ZL59g_AssemblyU2DCSharp_Assembly_CustomAttributesCacheGeneratorP21CustomAttributesCache
R6i:__ZN6il2cpp5utils9PathUtils8BasenameIcEENSt3__212basic_stringIT_NS3_11char_traitsIS5_EENS3_9allocatorIS5_EEEERKSA_
Wmc:__Z35Register_UnityEngine_Event_get_typev
Axe:_PrivateKeyInfo_DecodeRSA_m1427048948
smj:__ZN6il2cpp2vm9Exception23GetInvalidCastExceptionERKNS_5utils10StringViewIDsEE
wOg:_Assembly_FillName_m1934025015
rod:_String_IndexOf_m2126171214
wIe:_Int64_ToString_m1544341651_AdjustorThunk
Hy:__ZN8Animator28BuildControllerPlayableCacheEv
nDe:_Guid_CheckNull_m2903986431
s$:__Z63ThreadAndSerializationSafeCheckGetMonoBehaviourBeingTransferredv
rCj:_GC_enable
owf:_TlsClientCertificateVerify_ProcessAsSsl3_m3377063356
gwj:__GLOBAL__sub_I_GenericMethod_cpp
jgj:__ZN15dense_hashtableINSt3__24pairIK10KeyWrapperIPK14Il2CppAssemblyEPK22Il2CppMonoAssemblyNameEES6_N6il2cpp5utils11PointerHashIS4_EEN14dense_hash_mapIS6_SA_SF_NS6_14EqualsComparerINS0_8equal_toIS5_EEEENS0_9allocatorISB_EEE9SelectKeyESK_SM_EC2ERKSP_j
hvd:_StandaloneInputModule_set_repeatDelay_m2820945738
T3f:_UInt16_ToString_m4213290405
Wfc:__Z37Register_UnityEngine_Input_GetAxisRawv
c4h:_ChannelServices_RegisterChannel_m3832858065
C7d:_Enum_GetName_m1226611481
xRi:_Func_2_Invoke_m4121137703_gshared
BL:__ZN11AudioSource5ResetEv
wLb:__ZN12ImageFilters27SetSurfaceUseResolvedBufferEP13RenderTextureb
z$a:__ZN14Texture2DArray23VirtualRedirectTransferER18StreamedBinaryReadILb0EE
Qai:_Literal_CompileLiteral_m276843152
Shb:__ZN2UI13RectTransform13AwakeFromLoadE17AwakeFromLoadMode
xQb:__ZN14qsort_internal30FindAndMovePivotToLastPositionIP20ShadowCasterSortDatai26ShadowCasterSortDataSorterEEvT_S4_T0_T1_
Q0i:__ZNK15dense_hashtableI10KeyWrapperIPK19Il2CppGenericMethodES4_N6il2cpp8metadata23Il2CppGenericMethodHashEN14dense_hash_setIS4_S7_NS4_14EqualsComparerINS6_26Il2CppGenericMethodCompareEEENSt3__29allocatorIS4_EEE8IdentityESB_SE_E3endEv
cmb:__Z18Transfer_BlittableI14SafeBinaryReadLb1EiEvRK29SerializationCommandArgumentsR31RuntimeSerializationCommandInfo
Bab:__ZN17PersistentManager13GetAllFileIDsERKN4core12basic_stringIcNS0_20StringStorageDefaultIcEEEER13dynamic_arrayIxLj8EE
CLd:_Array_LastIndexOf_m4096535198
jRd:_ArrayList_Add_m1719188324
I6d:_Double_System_IConvertible_ToSByte_m1653690240_AdjustorThunk
Jah:__Z59RuntimeInvoker_RuntimeObject_Byte_t3683104436_RuntimeObjectPFvvEPK10MethodInfoPvPS4_
Mei:_Bounds_get_size_m3951110137
Fk:_glGetStringi
Bqj:__ZNK15dense_hashtableI10KeyWrapperIP18Il2CppGenericClassES3_N6il2cpp8metadata22Il2CppGenericClassHashEN14dense_hash_setIS3_S6_NS3_14EqualsComparerINS5_25Il2CppGenericClassCompareEEENSt3__29allocatorIS3_EEE8IdentityESA_SD_E10test_emptyERK30dense_hashtable_const_iteratorIS3_S3_S6_SF_SA_SD_E
jae:_CultureInfo_set_NumberFormat_m1618950525
rHf:_X509Store__ctor_m1573680316
GHf:_X509Chain_get_CertificateCollection_m324631835
QNh:_EqualityComparer_1__cctor_m1011898363_gshared
tri:_Quaternion_get_identity_m443011477
gwd:_AnimationTriggers__ctor_m2623627182
Ufe:_Array_InternalArray__IndexOf_TisClientCertificateType_t4001384466_m1168139450_gshared
oA:__ZN8Animator9WriteStepEy
TS:__ZN11UnityEngine15CloudWebService20WebRequestRestClient18GetResponseHeadersEv
e7b:__ZN16PropertyAccessorC2Ev
jZa:__ZNSt3__23mapIN4core12basic_stringIcNS1_20StringStorageDefaultIcEEEE9PrefValueNS_4lessIS5_EENS_9allocatorINS_4pairIKS5_S6_EEEEEixERSB_
I6b:__ZN15DirectorManager22ConstructPlayableGraphEv
Jid:_SymmetricAlgorithm_set_IV_m4262655606
yyh:_StencilMaterial__cctor_m2963056855
ZPg:_CustomAttributeNamedArgument_GetHashCode_m3715408876_AdjustorThunk
AZc:__Z38Register_UnityEngine_Font_HasCharacterv
LGf:_X509Certificate2_AppendBuffer_m3517242299
wUb:__Z35IntersectSpherePlaneBoundsOptimizedRKN4math7_float4EPS1_i
fae:_CultureInfo_get_IsNeutralCulture_m3874876470
B5d:_Delegate_CreateDelegate_m3813023227
$ci:_Uri_get_AbsoluteUri_m2120317928
ntj:__ZN6il2cpp2os5posix15PosixWaitObject13InterruptWaitEv
gzd:_ColorTween_TweenValue_m3279916815
G4:__Z22CleanupLODGroupManagerPv
fie:_Array_InternalArray__ICollection_Add_TisContentType_t1028629049_m2984242302_gshared
Smc:__Z21Event_CUSTOM_PopEventP12Il2CppObject
pl:_glUniform3fv
zFj:__ZNK6il2cpp8metadata24Il2CppGenericInstCompareclERK10KeyWrapperIPK17Il2CppGenericInstES8_
m7a:__ZNSt3__218__insertion_sort_3IRN15ResourceManager10Dependency6SorterEPS2_EEvT0_S6_T_
DWe:_Enumerator_System_Collections_IEnumerator_Reset_m3796537546_AdjustorThunk
mYc:_UNITY_FT_Init_Class_tt_service_gx_multi_masters
gah:__Z53RuntimeInvoker_Int32_t2071877448_TimeSpan_t3430258949PFvvEPK10MethodInfoPvPS4_
x0g:__Z64RuntimeInvoker_RuntimeObject_Int32_t2071877448_Int16_t4041245914PFvvEPK10MethodInfoPvPS4_
eRe:_IntComparer_Compare_m3057931085
fPb:__ZNK16LightmapSettings31GetRealtimeLightmapDecodeValuesEv
JK:__ZN5audio5mixer12SetSuspendedERNS0_16AudioMixerMemoryEb
wbb:__ZN17PersistentManager21UnloadNonDirtyStreamsEv
hnj:__ZN6il2cpp2vm13LivenessStateC2EP11Il2CppClassjPFvPP12Il2CppObjectiPvES7_PFvvESB_
Hqe:_Array_ConvertAll_TisRuntimeObject_TisRuntimeObject_m2423585546_gshared
$Jb:__ZN12ImageFilters4BlitER17ShaderPassContextP7TextureP13RenderTextureiPK18SharedMaterialDataPKcP6ShaderiNS_9BlitFlagsE11CubemapFaceRK8Vector2fSH_
$Ef:_Oid__ctor_m1936781897
HS:__ZN11UnityEngine15CloudWebService10RestClientINS0_23WebRequestRestHeaderMapEED2Ev
N1h:_ResourceSet__ctor_m1222864106
H7e:_Collection_1_System_Collections_IList_get_Item_m3376056117_gshared
Ll:_emscripten_glDepthMask
CWe:_Enumerator_VerifyState_m3639069574_gshared
Oia:__ZN4crnd25static_huffman_data_model22prepare_decoder_tablesEv
f7e:_Enumerator_MoveNext_m689054299_gshared
qof:_ModulusRing_Difference_m662924064
Kxd:_CanvasUpdateRegistry_ObjectValidForUpdate_m855695984
zGd:_InputField_set_onValueChanged_m2406388125
Rlc:__Z23GUIStatePopDisplayIndexv
yX:__ZL22CleanupUnityWebStreamsPv
OBf:_ListDictionary_Add_m4276262662
k5:__Znaj
pgd:_RIPEMD160Managed_GGG_m1639995340
WVj:_emscripten_glEnableClientState__wrapper
pZ:__ZN17MessageIdentifierC2EPKcNS_7OptionsEPKN5Unity4TypeES1_
vEh:_Enumerator_System_Collections_IEnumerator_get_Current_m1648049763_gshared
TEj:__ZN6il2cpp6icalls8mscorlib4Mono8Security12Cryptography18KeyPairPersistence15_ProtectMachineEP12Il2CppString
kMj:dynCall_viiifiii
ZP:__Z55Register_UnityEngine_AudioSource_get_spatializeInternalv
g$a:__ZN15dense_hashtableINSt3__24pairIKN4core12basic_stringIcNS2_20StringStorageDefaultIcEEEE13dynamic_arrayI4PPtrI6SpriteELj4EEEES6_20StringHash32FunctionIS6_EN14dense_hash_mapIS6_SC_SF_NS0_8equal_toIS6_EE13stl_allocatorISD_L18MemLabelIdentifier81ELi16EEE9SelectKeyESI_SL_E12resize_deltaEjj
ZNe:_TextWriter__ctor_m2225796097
Txa:__ZN14SafeBinaryRead8TransferI14ConstantStringEEvRT_PKc17TransferMetaFlags
gfa:__ZNK6Camera16GetStereoEnabledEv
S3b:__ZN12LightManager15InitializeClassEv
ZGa:__ZN9ShaderLab11shaderprops16GetComputeBufferEPK19ShaderPropertySheetS3_NS_16FastPropertyNameE
v_:__ZN18ScriptingArgumentsC2Ev
u1f:_TimeZone_IsDaylightSavingTime_m875882154
qRj:_emscripten_glBlendFuncSeparate__wrapper
ftf:_CipherSuiteCollection_System_Collections_IList_set_Item_m750275607
Pfa:__Z17HasSampledTexture14GraphicsFormat13formatSupport
ZKb:__ZNK25CameraStackRenderingState27GetStereoImageEffectTextureEb
rhd:_SHA1CryptoServiceProvider__ctor_m3127563759
Bp:__ZN8Vector3f8TransferI14SafeBinaryReadEEvRT_
n4i:__ZN6il2cpp6icalls6System6System3Net7Sockets6Socket7ReceiveEiP11Il2CppArrayiiNS4_11SocketFlagsEPi
pNg:__ZL103BaseVertexEffect_t2504093552_CustomAttributesCacheGenerator_BaseVertexEffect_ModifyVertices_m3446986347P21CustomAttributesCache
Eo:FUNCTION_TABLE_ii
sFh:_Enumerator_MoveNext_m335649778_AdjustorThunk
rFa:__ZN10TagManager8TransferI18StreamedBinaryReadILb0EEEEvRT_
oqc:__Z18Transfer_BlittableI9JSONWriteLb0E8BitFieldEvRK29SerializationCommandArgumentsR31RuntimeSerializationCommandInfo
N4f:_UInt32_ToString_m3894907091_AdjustorThunk
_ki:_Matrix4x4__ctor_m828876617_AdjustorThunk
$9d:_CultureInfo_get_TextInfo_m1582311326
hhe:_Array_ForEach_TisRuntimeObject_m1849351808_gshared
rwe:_SmallXmlParser_Error_m1832158746
Ek:_glDeleteVertexArrays
RCa:__Z24CreateDirectoryRecursiveRKN4core12basic_stringIcNS_20StringStorageDefaultIcEEEE
IPj:b41
hfb:__ZN9ShaderLab20SerializedSubProgram8TransferI18StreamedBinaryReadILb0EEEEvRT_
zNe:_StreamAsyncResult_get_AsyncWaitHandle_m4218169359
HPj:b40
Qpe:_Array_InternalArray__get_Item_TisContactPoint2D_t3659330976_m825151777_gshared
f_c:__ZN2UI13CanvasManager9AddCanvasEPNS_6CanvasE
r0a:__ZN9Texture3D8TransferI19StreamedBinaryWriteILb0EEEEvRT_
BLb:__ZNK6Camera22CalculateRenderingPathEv
Irc:__ZN9JSONWrite8TransferI5RectTIfEEEvRT_PKc17TransferMetaFlags
YB:__ZN11UnityEngine9Animation37SetGenericRootTransformPropertyValuesERKNS0_30AnimatorGenericBindingConstantERKN7mecanim10ValueArrayER9Transformbb
cpa:__Z13ConvertMipmap14GraphicsFormatPKvS_Pviiii
bid:_SHA384Managed_processBlock_m3232296629
Pze:_X509Certificate_get_PublicKey_m714501701
nei:_AsyncOperation_InternalDestroy_m2067452588
TQc:_tt_sbit_decoder_load_image
God:_String_LastIndexOf_m290475879
zme:_Array_Sort_TisInt32_t2071877448_m1860415737_gshared
Llc:__ZNSt3__24listIN10GUIManager12SortedScriptE11memory_poolIS2_EE6__sortI13OldSortScriptEENS_15__list_iteratorIS2_PvEESA_SA_jRT_
X4f:_UInt64_System_IConvertible_ToChar_m1930853313_AdjustorThunk
jwf:_TlsClientCertificate_SendCertificates_m1096074091
iWd:_SyncHashtable_get_Item_m408601391
l7e:_Stack_1_System_Collections_ICollection_CopyTo_m2104527616_gshared
oYf:_StringBuilder_AppendFormat_m1666670800
Afh:__Z97RuntimeInvoker_Boolean_t3825574718_RuntimeObject_TextGenerationSettings_t2543476768_RuntimeObjectPFvvEPK10MethodInfoPvPS4_
H7c:__ZN18UnityConnectClient12CloseServiceEv
ulj:__ZN6il2cpp6icalls8mscorlib6System9ThreadingL11ThreadStartEPv
d7:__ZN15DirectorManager12OnSampleTimeEv
hkf:_ReadOnlyCollection_1_System_Collections_IList_Remove_m3878418841_gshared
EGd:_InputField_EnforceContentType_m1902926812
KXa:__ZN15dense_hashtableINSt3__24pairIKiiEEi21InstanceIDHashFunctorN14dense_hash_mapIiiS4_NS0_8equal_toIiEE13stl_allocatorIS3_L18MemLabelIdentifier67ELi16EEE9SelectKeyES7_SA_E12resize_deltaEjj
Iva:__ZN12CachedReader10Align4ReadEv
uDc:__ZN15b2WorldManifold10InitializeEPK10b2ManifoldRK11b2TransformfS5_f
twa:__ZNK9Behaviour22GetTypeVirtualInternalEv
Rkf:_ReadOnlyCollection_1_System_Collections_IList_get_Item_m887129009_gshared
hVb:__Z21GetScriptingArraySize17ScriptingArrayPtr
fLc:__ZN20TextRenderingPrivate8FontImpl8TransferI14SafeBinaryReadEEvRT_
Qca:__ZN9GfxDevice17ImmediateTexCoordEifff
k9h:_Parser_ParseRegularExpression_m2390577313
aBc:__ZN10ClipperLib7Clipper13AppendPolygonEPNS_5TEdgeES2_
$Ld:_Array_double_swapper_m1175307080
gIf:_X509CertificateEnumerator_System_Collections_IEnumerator_Reset_m327358896
Rkd:_Hash__ctor_m2554411450
PFe:_NumberFormatter_AppendDigits_m1308372770
umd:_Single_System_IConvertible_ToDateTime_m2510003459_AdjustorThunk
K5d:_Delegate_RemoveImpl_m3666700529
jPj:_emscripten_glUniform4f__wrapper
fCf:_NameObjectCollectionBase_OnDeserialization_m3478980442
qGd:_InputField_set_caretColor_m2252440840
rD:__ZN8Animator8TransferI19StreamedBinaryWriteILb0EEEEvRT_
YFa:__ZNK6Camera16GetProjectionFarEv
hQe:_MissingFieldException__ctor_m1161042282
fge:_Array_InternalArray__IndexOf_TisSlot_t2267560602_m1912863273_gshared
Mli:_Mesh_get_uv3_m1531319041
Gad:__Z31GetPerformanceReportingSettingsv
iTa:__ZNK14PlayableOutput11DerivesFromE17ScriptingClassPtr
wUa:__ZN7Texture34CreateFileTextureUploadInstructionE18TextureUploadFlagsj
sqa:__ZN13ComputeShader14SetBufferParamEjRKN9ShaderLab16FastPropertyNameE15ComputeBufferID
Wjf:_ReadOnlyCollection_1_System_Collections_Generic_IListU3CTU3E_Insert_m3054305464_gshared
iD:__ZN8Animator8TransferI14SafeBinaryReadEEvRT_
yge:_Array_InternalArray__IndexOf_TisTypeTag_t141209596_m2882894956_gshared
Kxh:_Slider_get_value_m4182660424
kxc:__ZNK14b2CapsuleShape5CloneEP16b2BlockAllocator
vt:__ZN17AnimationPlayable34CollectAnimatorControllerPlayablesER13dynamic_arrayIP26AnimatorControllerPlayableLj4EE
vO:__ZN16BaseVideoTexture19UpdateVideoTexturesEv
lMa:__Z28BuildSingleStreamChannelInfo17ShaderChannelMaskRK20VertexChannelsLayoutS_S2_P11ChannelInfo
dIa:__ZNK16LightmapSettings23HasLightProbeTetrahedraEv
wvf:_Context_get_WriteSequenceNumber_m243492531
VZa:__ZN6Sprite23VirtualRedirectTransferER19StreamedBinaryWriteILb0EE
oeg:__ZL51Assembly_t4268412390_CustomAttributesCacheGeneratorP21CustomAttributesCache
yod:_String_LastIndexOfAny_m1473637802
Dic:__Z38Transform_CUSTOM_INTERNAL_set_positionP12Il2CppObjectRK8Vector3f
omi:_PlayerEditorConnectionEvents_InvokeMessageIdSubscribers_m795891627
pcj:__ZNK15dense_hashtableINSt3__24pairIK10KeyWrapperINS1_IPK9FieldInfoP11Il2CppClassEEEjEES9_17ReflectionMapHashIS8_EN14dense_hash_mapIS9_jSD_NS9_14EqualsComparerINS0_8equal_toIS8_EEEENS0_9allocatorISB_EEE9SelectKeyESI_SK_E5beginEv
zQa:__ZNK9ShaderLab7Program19HasMatchingVariantsERK13dynamic_arrayI16ShaderKeywordSetLj4EE
cB:__ZN15SerializeTraitsIN4math4trsXEE8TransferI8BlobSizeEEvRS1_RT_
yga:__ZN14DataBufferGLES11CopySubDataEPKS_jjj
ke:_emscripten_glVertexPointer
Cua:__ZNSt3__26__treeI20DeviceDepthStateGLES11memcmp_lessIS1_S1_ENS_9allocatorIS1_EEE7destroyEPNS_11__tree_nodeIS1_PvEE
lCd:_Graphic__ctor_m821539719
c7i:__ZN6il2cpp2vm7Runtime47RaiseExecutionEngineExceptionIfMethodIsNotFoundEPK10MethodInfo
bRb:__Z17GetFrustumPortionPK8Vector3fffPS_
Unj:__ZN15dense_hashtableINSt3__24pairIK10KeyWrapperIP14Il2CppIUnknownEjEES5_N6il2cpp5utils11PointerHashIS3_EEN14dense_hash_mapIS5_jSB_NS5_14EqualsComparerINS0_8equal_toIS4_EEEENS0_9allocatorIS7_EEE9SelectKeyESG_SI_E14squash_deletedEv
hAd:_DefaultControls_CreateDropdown_m1384069408
$td:_PointerEventData_get_clickCount_m4064532478
r8d:_EventArgs__cctor_m1350395667
Maa:__ZNK9GfxDevice27GetPlatformAdjustedViewportEv
U8d:_CCGregorianCalendar_is_leap_year_m567513478
AMd:_Attribute_IsDefined_m2118467641
qxi:_SpriteAtlasManager_Register_m447878083
zxe:_PrivateKeyInfo_Normalize_m3959595934
iRh:_InternalEnumerator_1_System_Collections_IEnumerator_get_Current_m3125080595_gshared
hdf:_Collection_1_System_Collections_IList_Add_m2091889616_gshared
i7b:__ZN16StreamedResource8TransferI24GenerateTypeTreeTransferEEvRT_
ezc:__ZN11b2GearJoint4DumpEv
DBd:_DropdownItem_OnPointerEnter_m761897861
qra:__ZN10Matrix3x3f15InvertTransposeEv
ace:_Array_InternalArray__ICollection_Remove_TisKeyValuePair_2_t1174980068_m2768765894_gshared
NIb:__Z11IsBatchmodev
Raf:_Collection_1_set_Item_m2199807215_gshared
Mpb:__Z29Transfer_Blittable_ArrayFieldI14SafeBinaryRead8Vector3fEvRT_R9ArrayInfoRK23StaticTransferFieldInfo
Z3f:_UInt32_System_IConvertible_ToBoolean_m91295134
B_f:_Monitor_Monitor_test_synchronised_m1542589500
_xg:__ZL68RuntimePlatform_t1869584967_CustomAttributesCacheGenerator_WP8PlayerP21CustomAttributesCache
WLc:__ZN20TextRenderingPrivate8FontImpl18ResetCachedTextureEv
mye:_SymmetricTransform_TransformFinalBlock_m4192185386
aDe:_TextInfo__ctor_m1263401274
pAj:_GC_print_finalization_stats
jGh:_ValueCollection__ctor_m927733289_gshared
Uyc:__ZNK12b2WheelJoint10GetAnchorBEv
ldc:__Z53Register_UnityEngine_Behaviour_get_isActiveAndEnabledv
TDf:_IPAddress_ToString_m267966740
pq:__ZNSt3__26vectorIN4core12basic_stringIcNS1_20StringStorageDefaultIcEEEENS_9allocatorIS5_EEE8__appendEj
C6a:__ZN26PlayerSettingsSplashScreen8TransferI17RemapPPtrTransferEEvRT_
VUh:_InternalEnumerator_1_get_Current_m3922357178_gshared
N5i:__ZN6il2cpp6icalls8mscorlib6SystemL17CollectTypeFieldsINS_5utils10functional10TrueFilterEEEvP11Il2CppClassPKS7_iRNSt3__26vectorIP9FieldInfoNSB_9allocatorISE_EEEERKT_
cIg:__ZL72ColorBlock_t2652774230_CustomAttributesCacheGenerator_m_HighlightedColorP21CustomAttributesCache
M1f:_Type_get_IsValueType_m1733572463
h$b:__Z13GetTagManagerv
PIc:__ZN14PhysicsQuery2D7RaycastERK8Vector2fS2_fRKN10Collider2D13ContactFilterEPKS3_bP12RaycastHit2Di
Ece:_Array_InternalArray__ICollection_Remove_TisUInt16_t986882611_m65494986_gshared
Kif:_ReadOnlyCollection_1_IndexOf_m3054637117_gshared
EUi:__ZL10roundUp128PyS_
QQ:__ZN11UnityEngine15CloudWebService17CloudJobSchedulerD0Ev
tnd:_String_System_IConvertible_ToBoolean_m2696751322
R8a:__ZN18LoadSceneOperation7PerformEv
F_c:__ZNK2UI11CanvasGroup22GetTypeVirtualInternalEv
fli:_Matrix4x4_MultiplyPoint3x4_m1436516889
Bod:_String_LastIndexOfAny_m4281325295
_Ac:__ZN10ClipperLib7Clipper14IntersectEdgesEPNS_5TEdgeES2_RNS_8IntPointE
qih:__Z163RuntimeInvoker_Void_t1841601450_RuntimeObject_Int32_t2071877448_SByte_t454417549_SByte_t454417549_SingleU26_t4173844468_SingleU26_t4173844468_SingleU26_t4173844468PFvvEPK10MethodInfoPvPS4_
dmc:__Z21CleanupGlobalGUIStatev
p0f:_TimeSpan__ctor_m1888018443_AdjustorThunk
Yoh:__Z74RuntimeInvoker_Int32_t2071877448_UIVertex_t1204258818_UIVertex_t1204258818PFvvEPK10MethodInfoPvPS4_
dWd:_SyncHashtable_get_Count_m3694444082
azb:__Z18Transfer_BlittableI18StreamedBinaryReadILb0EELb1EN4math12int3_storageEEvRK29SerializationCommandArgumentsR31RuntimeSerializationCommandInfo
Daj:__ZNSt3__26vectorINS_12basic_stringIcNS_11char_traitsIcEENS_9allocatorIcEEEENS4_IS6_EEE8allocateEj
_sa:__ZN22VertexDeclarationCache5ClearEv
Ibb:__ZN15CacheWriterBase18GetAddressOfMemoryEv
$v:__Z27ProcessRootMotionEmptyMixerP35AnimationPlayableEvaluationConstantP32AnimationPlayableEvaluationInputP33AnimationPlayableEvaluationOutput
HSb:__ZN6Camera24PrepareCullingParametersERK23CameraCullingParameters13RenderingPathR11CullResults
D9b:__Z12SetIUISystemP9IUISystem
c9a:__ZN19RuntimeSceneManager22EndIntegrateMainThreadEP10UnitySceneNS_11LoadingModeE
mrb:__Z26Transfer_UnityEngineObjectI17RemapPPtrTransferLb0EEvRK29SerializationCommandArgumentsR31RuntimeSerializationCommandInfo
Iod:_String_IsNullOrEmpty_m2802126737
lPd:_Byte_Parse_m1442736478
eIe:_Int64_Parse_m3258022240
sod:_String_IndexOfOrdinal_m3591623977
YUf:_CryptoConfig_EncodeLongNumber_m2352037787
p2f:_Type_GetMethod_m475234662
A3h:_ActivationServices_get_ConstructionActivator_m1726426854
Htb:__Z29Transfer_Blittable_ArrayFieldI24GenerateTypeTreeTransfer4AABBEvRT_R9ArrayInfoRK23StaticTransferFieldInfo
img:__ZL52Activator_t1850728717_CustomAttributesCacheGeneratorP21CustomAttributesCache
rBj:_GC_adj_bytes_allocd
aie:_Array_InternalArray__ICollection_Add_TisKeyframe_t1449471340_m887263954_gshared
Hje:_Array_InternalArray__Insert_TisDateTime_t693205669_m1484996356_gshared
S_e:_List_1_System_Collections_IList_Remove_m3933652540_gshared
LMe:_MonoIO_get_ConsoleInput_m2976499023
lVg:_OpCode_get_Size_m481593949_AdjustorThunk
CTd:_BitArrayEnumerator_checkVersion_m3839504595
QKd:_Array_GetUpperBound_m1352329707
rzc:__ZN13b2PulleyJoint24SolveVelocityConstraintsERK12b2SolverData
BWi:_CustomEventData_Add_m1145561703
Enj:__ZN6il2cpp6icalls8mscorlib6System10Reflection10MonoMethod19get_base_definitionEP22Il2CppReflectionMethod
Da:invoke_fiiifii
Ttf:_RecordProtocol__ctor_m168945279
h3d:_DateTimeOffset_Equals_m3728302791_AdjustorThunk
yOa:__ZN20SphericalHarmonicsL219AddDirectionalLightERKN4math7_float3ERKNS0_7_float4E
gqi:_X509Extension_Equals_m1304125015
l1f:_TimeSpan_op_GreaterThanOrEqual_m3997050520
W6:__Z26ScheduleJobForEachInternalR8JobFencePFvPvjES1_iPFvS1_E11JobPriority
RFf:_OidEnumerator_MoveNext_m1889267785
yIb:__ZZ23InitPlayerLoopCallbacksvEN41PostLateUpdateProfilerEndFrameRegistrator7ForwardEv
Y9b:__ZN9Scripting18RaiseMonoExceptionEPKcz
DVa:__ZN9Texture2D8TransferI19StreamedBinaryWriteILb0EEEEvRT_
iGi:_TweenRunner_1_StartTween_m3792842064_gshared
q4b:__ZN9ShaderLab16FastPropertyName15InitBy28BitHashEj
Cmd:_Single_System_IConvertible_ToInt32_m3269519527_AdjustorThunk
FQi:_TextGenerationSettings_Equals_m1603221718
xhd:_SHA1Internal_ProcessBlock_m4070037334
MEa:__ZN17PersistentManager17IsObjectAvailableEi
X2h:_Marshal_copy_from_unmanaged_m98320635
Oke:_Array_InternalArray__set_Item_TisDouble_t4078015681_m24756265_gshared
vhi:_Display_RelativeMouseAtImpl_m700362000
Zxi:_Vector2_get_right_m4262310679
x1b:__ZN13ProduceHelperIN2UI13RectTransformELb0EE7ProduceE18MemLabelIdentifier18ObjectCreationMode
X0a:__ZN17PackedFloatVector12UnpackFloatsEPfiiii
Bgf:_ReadOnlyCollection_1__ctor_m3671019970_gshared
dz:__ZN17AnimationPlayable28UpdateInternalStateRecursiveILi3ELb0EEEvPK35AnimationPlayableEvaluationConstant
Mda:__ZN13GfxDeviceGLES21DestroyComputeProgramER12ObjectHandleI18ComputeProgram_TagPvE
a_d:_Convert_ToDecimal_m2007036836
Jkj:__ZN6il2cpp6icalls8mscorlib6System5Array12SetValueImplEP11Il2CppArrayP12Il2CppObjecti
K4:__ZN17UniqueIDGenerator16DestroyPureIndexEj
o1:__ZL21AppendNestedClassName17ScriptingClassPtrRN4core17string_with_labelILi1EEE
Tcb:__ZN14SafeBinaryRead21TransferSTLStyleArrayINSt3__26vectorIN9ShaderLab20SerializedSubProgram12UAVParameterENS1_9allocatorIS5_EEEEEEvRT_17TransferMetaFlags
H5h:_Context_NotifyDynamicSinks_m1367144344
ZR:__ZN24TextDOMTransferWriteBaseI9JSONWriteE12PushMetaFlagEi
Svf:_Context_get_Current_m2717045324
Csc:__Z18Transfer_BlittableI8JSONReadLb1E10ColorRGBAfEvRK29SerializationCommandArgumentsR31RuntimeSerializationCommandInfo
Ztf:_TlsClientCertificateVerify__ctor_m110646389
lma:__ZN6prcoreL26RemapGenericIntegerToFloatI17TexFormatARGB888815TexFormatRFloatEEvPKNS_9InnerInfoE
Q5h:_Context_GetServerContextSinkChain_m390126977
qaj:__ZN6il2cpp2vm17TypeNameParseInfoD2Ev
SI:__ZN4FMOD7Channel7setModeEj
sOe:_StringReader_Read_m513112775
qXa:__ZNK8Renderer8GetLayerEv
GKa:__ZN12FlareManager11DeleteFlareEi
jNb:__ZNK6Camera20GetReplacementShaderEv
TQj:_glProgramBinary__wrapper
$3d:_Decimal__ctor_m569480123_AdjustorThunk
mDf:_HttpWebRequest__cctor_m3013631978
tEj:__ZNSt3__26__treeINS_12__value_typeINS_12basic_stringIcNS_11char_traitsIcEENS_9allocatorIcEEEEPFvvEEENS_19__map_value_compareIS7_SA_NS_4lessIS7_EELb1EEENS5_ISA_EEE4findIS7_EENS_15__tree_iteratorISA_PNS_11__tree_nodeISA_PvEEiEERKT_
fdb:__ZNSt3__26vectorIN9ShaderLab20SerializedSubProgram14ConstantBufferENS_9allocatorIS3_EEE7reserveEj
Aja:__ZL23stbir__calculate_memoryP11stbir__info
D6g:__Z83RuntimeInvoker_Void_t1841601450_Int64_t909078037_Int32_t2071877448_Int64_t909078037PFvvEPK10MethodInfoPvPS4_
Auh:_Scrollbar_FindSelectableOnRight_m3219495255
fki:_Logger_IsLogTypeAllowed_m243840823
mKb:__ZNK6Camera18GetRenderRectangleEv
Bdj:__ZNK15dense_hashtableINSt3__24pairIK10KeyWrapperINS1_IPK10MethodInfoP11Il2CppClassEEEjEES9_17ReflectionMapHashIS8_EN14dense_hash_mapIS9_jSD_NS9_14EqualsComparerINS0_8equal_toIS8_EEEENS0_9allocatorISB_EEE9SelectKeyESI_SK_E3endEv
e$a:__ZN13sorted_vectorIN4core12basic_stringIcNS0_20StringStorageDefaultIcEEEENSt3__24lessIS4_EE13stl_allocatorIS4_L18MemLabelIdentifier81ELi16EEE4findIS4_EENS5_11__wrap_iterIPS4_EERKT_
qje:_Array_InternalArray__ICollection_CopyTo_TisVector3_t2243707580_m509487340_gshared
htc:__ZL26Transfer_SimpleNativeClassI8JSONRead10RectOffsetLb1EEvRK29SerializationCommandArgumentsR31RuntimeSerializationCommandInfo
S1c:__Z44CanvasRenderer_CUSTOM_INTERNAL_CALL_SetColorP12Il2CppObjectRK10ColorRGBAf
Szj:_GC_should_collect
O3h:_UrlAttribute_Equals_m1587451932
Ypc:__Z18Transfer_BlittableI9JSONWriteLb1EsEvRK29SerializationCommandArgumentsR31RuntimeSerializationCommandInfo
SAc:__ZN10ClipperLib8JoinHorzEPNS_5OutPtES1_S1_S1_NS_8IntPointEb
n5c:__Z48UnityAnalyticsHandler_CUSTOM_SendCustomEventNameP12Il2CppObjectP12Il2CppString
tdd:_DSAParameters_t1872138834_marshal_pinvoke_cleanup
Gac:__ZN9Transform16SetLocalRotationERK11Quaternionf
gJb:__ZN13RenderManager37RenderCamerasWithScriptableRenderLoopEi
Pue:_ASN1_Element_m2600236165
_Si:_Canvas_get_renderMode_m3398547532
LY:__ZN23InstancedPropInfoStaticL16RegisterCallbackEPv
lB:__ZN7mecanim8skeleton25SkeletonPoseComputeLocalQEPKNS0_8SkeletonEPKNS0_13SkeletonPoseTIN4math4trsXEEEPS7_ii
$rj:__ZN6il2cpp2os19ReleaseSocketHandleEj
LN:__ZN11AudioModule16GetDSPSampleRateEv
bRg:_TypeBuilder_get_next_table_index_m1415870184
KLj:___cxa_can_catch
bpf:_SequentialSearchPrimeGeneratorBase_GenerateNewPrime_m296245934
qQd:_Char_GetUnicodeCategory_m4273361321
XPe:_Math_Round_m565516458
y5h:_Identity_get_ClientDynamicProperties_m767245959
gtj:__ZN6il2cpp2os5posix15PosixWaitObjectC2ENS2_4TypeE
vLb:__ZN6Camera21PostMultiCustomRenderENS_10RenderFlagEb
SVg:_TypeBuilder_create_generic_class_m986834171
_pa:__ZN12_GLOBAL__N_112UploadImagesEP7ApiGLESjji14GraphicsFormatPKhjS2_iiii16TextureUsageModePh
kGb:__ZN23ShaderVariantCollection13WarmupShadersEv
jvf:_Context_set_ProtocolNegotiated_m1177527245
b4f:_UInt32_System_IConvertible_ToChar_m1056040486
V0:__Z25GetCommonScriptingClassesv
SAf:_TlsStream_get_Length_m1562309511
G9a:__Z27scripting_gc_collect_unsafei
QN:__ZN11AudioModule20SuspendVideoTexturesEv
QP:__Z59Register_UnityEngine_AudioExtensionManager_GetAudioListenerv
N3b:__ZN12CubemapArrayC2E18MemLabelIdentifier18ObjectCreationMode
nYd:_Convert_ToByte_m395020137
_sb:__Z26Transfer_UnityEngineObjectI24GenerateTypeTreeTransferLb0EEvRK29SerializationCommandArgumentsR31RuntimeSerializationCommandInfo
GOc:_UNITY_FT_GlyphLoader_CheckPoints
fPe:_TextWriter_WriteLine_m1754475888
CKa:__ZN15SharedLightData7PrecalcEv
RFa:__ZN10Matrix4x4fmLERKS_
ppe:_Array_InternalArray__get_Item_TisDouble_t4078015681_m2215331088_gshared
wwb:__Z35Transfer_Blittable_FixedBufferFieldI18StreamedBinaryReadILb1EEsEvRK29SerializationCommandArgumentsR31RuntimeSerializationCommandInfo
gHh:_Dictionary_2_Init_m3666073812_gshared
TAa:__ZN15ArchiveReadFileD0Ev
fye:_SymmetricTransform_TransformBlock_m1524716432
_Bi:_GUIUtility_TakeCapture_m1786193394
bfe:_Array_compare_TisColor32_t874517518_m3842009370_gshared
U6c:__ZN11UnityEngine15PlatformWrapper18GetOperatingSystemEv
blf:_ReadOnlyCollection_1_System_Collections_Generic_ICollectionU3CTU3E_Remove_m974176789_gshared
y5d:_Delegate_return_type_match_m4278947849
eId:_InputField_GenerateHightlight_m1346735465
_Wi:_Physics2D_Raycast_m1275014335
Oii:_UnityEventBase_ToString_m2323130098
Aci:_Uri_ParseNoExceptions_m1151989845
GXd:_GC_SuppressFinalize_m953228702
vOc:_FT_MSB
wjj:__ZN15dense_hashtableINSt3__24pairIK10KeyWrapperINS1_IP11Il2CppClassjEEES4_EES6_N6il2cpp8metadata14ArrayClassHashEN14dense_hash_mapIS6_S4_SB_NS6_14EqualsComparerINSA_17ArrayClassCompareEEENS0_9allocatorIS8_EEE9SelectKeyESF_SH_E3endEv
qQf:_SoapServices_PreLoad_m490411755
gti:_RectOffset__ctor_m2517237351
V3g:__Z63RuntimeInvoker_RuntimeObject_Int32_t2071877448_SByte_t454417549PFvvEPK10MethodInfoPvPS4_
REj:__ZN6il2cpp6icalls8mscorlib4Mono8Security12Cryptography18KeyPairPersistence10_CanSecureEP12Il2CppString
WOh:_Action_1_Invoke_m4180501989_gshared
sxh:_Slider__ctor_m3124136916
faa:__ZN13GfxDeviceGLES14SetRasterStateEPK17DeviceRasterState
WGd:_InputField_set_caretPositionInternal_m231166704
Fuf:_TlsServerHello__ctor_m3032108168
Yua:__ZN14SafeBinaryRead11EndTransferEv
Rdg:__ZL98ILGenerator_t99948092_CustomAttributesCacheGenerator_ILGenerator_Mono_GetCurrentOffset_m3553856682P21CustomAttributesCache
Nnb:__ZN14SafeBinaryRead8TransferI8MonoPPtrEEvRT_PKc17TransferMetaFlags
qZh:_InternalEnumerator_1_System_Collections_IEnumerator_get_Current_m1533037706_gshared
_qa:__ZN21UniformBufferTFMethod13MapBoneBufferEj
vyf:_RecordProtocol_SendChangeCipherSpec_m3542001341
Ale:_Array_InternalArray__set_Item_TisVector3_t2243707580_m1390667454_gshared
mlc:__ZN12GUIClipState10BeginOnGUIER10InputEvent
Ykj:__ZNSt3__26vectorIcNS_9allocatorIcEEEC2Ej
cwe:_KeyPairPersistence_CanSecure_m2251009700
Rw:__ZN7mecanim5human14HumanPoseClearERNS0_9HumanPoseERKNS_6bitsetILj70EEE
XNf:_ReturnMessage_get_Properties_m531965085
cTg:_GenericTypeParameterBuilder_IsSubclassOf_m563999142
G8d:_Exception_ToString_m627574695
yWg:_AddEventAdapter_Invoke_m3970567975
Mmc:__Z30Event_Get_Custom_PropModifiersP12Il2CppObject
Mt:__ZN7mecanim9animation16CreateClipOutputEPKNS0_4ClipERNS_6memory9AllocatorE
Ije:_Array_InternalArray__Insert_TisDecimal_t724701077_m1429254816_gshared
n7g:__Z191RuntimeInvoker_Int32_t2071877448_RuntimeObject_Int32_t2071877448_Int32_t2071877448_RuntimeObject_Int32_t2071877448_SByte_t454417549_Int32U26_t455636984_BooleanU26_t3168250738_SByte_t454417549PFvvEPK10MethodInfoPvPS4_
t0f:_TimeSpan_get_Days_m1002111510
kBb:__ZNSt3__218__stable_sort_moveIRN10vector_mapI17ScriptingClassPtrPKN5Unity4TypeENS_4lessIS2_EENS_9allocatorINS_4pairIS2_S6_EEEEE13value_compareENS_11__wrap_iterIPSB_EEEEvT0_SJ_T_NS_15iterator_traitsISJ_E15difference_typeEPNSM_10value_typeE
Nbb:__ZN6Shader21AwakeFromLoadThreadedEv
nla:__ZN6prcoreL17RemapGenericFloatI17TexFormatRGBFloat17TexFormatRGBAHalfEEvPKNS_9InnerInfoE
CJg:__ZL70InputField_t1631627530_CustomAttributesCacheGenerator_m_CharacterLimitP21CustomAttributesCache
_Fj:__ZN6il2cpp2os9SemaphoreC2Eii
eRh:_InternalEnumerator_1_get_Current_m2960188445_AdjustorThunk
Pnb:__ZNSt3__26vectorI8MonoPPtr13stl_allocatorIS1_L18MemLabelIdentifier1ELi16EEE8__appendEj
Tyh:_Text_set_alignByGeometry_m1514652028
$Lb:__ZN14qsort_internal30FindAndMovePivotToLastPositionIP17RODataReplacementi19ROSorterReplacementEEvT_S4_T0_T1_
jra:__ZN15UniformTFMethod20IsBoneCountSupportedEi
kLe:_FileStream_get_Position_m465478322
E0i:__ZN14dense_hash_setI10KeyWrapperIPK19Il2CppGenericMethodEN6il2cpp8metadata23Il2CppGenericMethodHashENS4_14EqualsComparerINS6_26Il2CppGenericMethodCompareEEENSt3__29allocatorIS4_EEEC2EjRKS7_RKSA_
UMj:dynCall_viidi
Mje:_Array_InternalArray__Insert_TisInt64_t909078037_m3039874636_gshared
Dzh:_ToggleGroup_NotifyToggleOn_m997426227
Fyf:_RSASslSignatureDeformatter_SetKey_m1150106904
H_:__ZN24ScriptingMethodFiltering17FilterOnSignatureENS_18MethodSearchFilterE
kuh:_Scrollbar_ClickRepeat_m3403943364
lDc:__ZThn4_N16PhysicsManager2D12BeginContactEP9b2Contact
GXb:__ZN18ScreenManagerWebGL13SetLockCursorE14CursorLockMode
aVc:_cf2_arrstack_finalize
BRe:_MonoType_GetMethodsByName_m1854415088
aBh:_Enumerator_get_CurrentValue_m3147984131_gshared
kRg:_DerivedType_GetMethods_m165266904
Mxe:_RSAManaged_EncryptValue_m4089823119
i1b:__ZN13MonoBehaviour19HandleNotificationsEPviR11MessageData
egi:_Component_get_gameObject_m2159020946
EGj:__ZN6il2cpp2os9EventImpl5ResetEv
_2i:__ZN6il2cpp2vm13MetadataCache23GetMethodGenericContextEPK10MethodInfo
zwg:__ZL78Object_t1021602117_CustomAttributesCacheGenerator_Object_Instantiate_m86013740P21CustomAttributesCache
Gzi:_Event_get_keyCode_m4176847855
_Le:_ReadDelegate_Invoke_m2091885836
tSg:_TypeBuilder_GetField_m2112455315
rQj:b58
sQj:b59
$Pj:b52
aQj:b53
ZPj:b50
_Pj:b51
pQj:b56
qQj:b57
bQj:b54
mQj:b55
b1d:_DateTime__ctor_m3604679583_AdjustorThunk
$we:_MACAlgorithm_Core_m2390605245
kYh:_InternalEnumerator_1_System_Collections_IEnumerator_get_Current_m30488070_gshared
I5b:__ZN10GameObject12CleanupClassEv
Vaa:__ZN9GfxDevice25SetShaderPropertiesSharedERK19ShaderPropertySheet
CFi:_IndexedSet_1_GetEnumerator_m3646001838_gshared
aia:__ZN18AsyncUploadManager19AsyncResourceUploadER9GfxDeviceii9TextureID
xsh:_VertexHelper_AddUIVertexTriangleStream_m4009409241
_4b:__ZL25InitializeDefaultMaterialv
q2c:__Z53Register_UnityEngine_CanvasRenderer_get_materialCountv
$W:__GLOBAL__sub_I_runtime_graphics_lod_0_cpp
fAh:_VertexHelper_AddVert_m3290455716
Zya:__ZN17PersistentManager12UnloadStreamERKN4core12basic_stringIcNS0_20StringStorageDefaultIcEEEEb
o$b:__ZN14dense_hash_mapIN4core12basic_stringIcNS0_20StringStorageDefaultIcEEEE10vector_setI4PPtrI11SpriteAtlasENSt3__24lessIS8_EE13stl_allocatorIS8_L18MemLabelIdentifier81ELi16EEE20StringHash32FunctionIS4_ENS9_8equal_toIS4_EESC_INS9_4pairIKS4_SF_EELSD_81ELi16EEEixERSL_
oZa:__ZN13ScreenManager17RequestResolutionEiibi
tVf:_DESTransform__ctor_m4096028381
y8i:_il2cpp_unity_liveness_calculation_from_statics
ux:__ZNK26AnimatorControllerPlayable11DerivesFromE17ScriptingClassPtr
I$f:_Scheduler_get_Instance_m1989471839
aYa:__ZN8Renderer8TransferI17RemapPPtrTransferEEvRT_
Lph:__Z76RuntimeInvoker_Boolean_t3825574718_UIVertex_t1204258818_UIVertex_t1204258818PFvvEPK10MethodInfoPvPS4_
qbf:_Collection_1_Contains_m1299140035_gshared
oQj:_glBlitFramebuffer__wrapper
gie:_Array_InternalArray__ICollection_Add_TisUICharInfo_t3056636800_m968274080_gshared
MGi:_ObjectPool_1__ctor_m1532275833_gshared
iNi:__ZL24UnresolvedVirtualCall_71P12Il2CppObjectS0_S0_iS0_S0_S0_PK10MethodInfo
$2e:_List_1_GetIndex_m3262928832_gshared
THc:__ZN16PhysicsManager2D19AddRigidbodyUpdatesEP11Rigidbody2D
Ohc:__Z33Sprite_CUSTOM_INTERNAL_get_borderP12Il2CppObjectP8Vector4f
FVb:__ZN16ReflectionProbes9GetCameraEv
ogi:_GameObject_get_tag_m3359901967
ugb:__ZL18IsGpuProgramUsable20ShaderGpuProgramTypePK6Shader
mBe:_ArgumentException__ctor_m2105824819
V0c:__ZN2UI6Canvas17SetSortingLayerIDEi
Mwd:_BaseMeshEffect_get_graphic_m3358796463
dtj:__ZN6il2cpp2vm11MethodStack23CleanupForCurrentThreadEv
eSi:_Predicate_1_Invoke_m695569038_gshared
PUe:_Enumerator_VerifyState_m825848279_AdjustorThunk
yLa:__ZN20TierGraphicsSettings8TransferI24GenerateTypeTreeTransferEEvRT_
TBi:_GUIStyleState_Cleanup_m824895509
zpb:__ZN14SafeBinaryRead21TransferSTLStyleArrayI13dynamic_arrayI4AABBLj4EEEEvRT_17TransferMetaFlags
TRa:__ZN18UnityPropertySheet8TransferI19StreamedBinaryWriteILb0EEEEvRT_
Twf:_TlsServerCertificate_checkServerIdentity_m3836435780
O7:__ZNSt3__26__treeINS_12__value_typeIiN11TypeManager18TypeCallbackStructEEENS_19__map_value_compareIiS4_NS_4lessIiEELb1EEENS_9allocatorIS4_EEE7destroyEPNS_11__tree_nodeIS4_PvEE
Oye:_PKCS12_Decrypt_m2353135969
agi:_Color32_ToString_m685380321
ZXg:_MonoEvent_ToString_m386956596
HBc:__ZN16PhysicsManager2D42RegisterTransformChangeInterestForColliderEP10Collider2D
Fme:_Array_Sort_TisRuntimeObject_m3309514378_gshared
hfa:__ZL19GetCameraTargetRectRK6Camerabb
U5c:__ZN11UnityEngine7Connect17XRDeviceInfoEventD0Ev
tDh:_Transform_1_BeginInvoke_m1786442111_gshared
SEe:_Int32_GetFormatException_m1729046182
mEa:__ZN13dynamic_arrayIN10GameObject13ComponentPairELj4EE6insertEPS1_RKS1_
jV:__ZN21UnityDefaultAllocatorI17LowLevelAllocatorE10DeallocateEPv
Hr:__ZN15PackedIntVector8TransferI14SafeBinaryReadEEvRT_
DWg:_FieldInfo_get_IsLiteral_m267898096
Y1g:__Z45RuntimeInvoker_RuntimeObject_Int64_t909078037PFvvEPK10MethodInfoPvPS4_
Tzf:_SslStreamBase_EndNegotiateHandshake_m1732321201
RDh:_Transform_1_BeginInvoke_m1167293475_gshared
vH:__ZN13AudioListener8DoUpdateEv
ooc:__ZN5Unity9rapidjson13GenericReaderINS0_4UTF8IcEES3_13JSONAllocatorE9ParseTrueILj1ENS0_25GenericInsituStringStreamIS3_EENS0_15GenericDocumentIS3_S4_S4_EEEEvRT0_RT1_
iYd:__Z13bankers_roundd
r6a:__ZN14SafeBinaryRead8TransferI5RectTIfEEEvRT_PKc17TransferMetaFlags
vi:_emscripten_glGenFramebuffers
qVd:_Hashtable_CopyTo_m2778915805
J7:__ZN17BaseObjectManager16StaticInitializeEPv
AQg:_ConstructorBuilder_get_IsCompilerContext_m2796899803
Pfe:_Array_IndexOf_TisUIVertex_t1204258818_m613887160_gshared
JYd:_DateTime_CoreParse_m2014268103
Eqc:__Z18Transfer_BlittableI9JSONWriteLb0EyEvRK29SerializationCommandArgumentsR31RuntimeSerializationCommandInfo
bQa:__ZN13RenderTexture15ThreadedCleanupEv
Tee:_Array_BinarySearch_TisRuntimeObject_m3361740551_gshared
ITa:__ZN12CubemapArray23VirtualRedirectTransferER14SafeBinaryRead
Qt:__ZN21AnimationClipPlayable16ProcessHumanPassEPK35AnimationPlayableEvaluationConstantPK32AnimationPlayableEvaluationInputP33AnimationPlayableEvaluationOutput
ilf:_ReadOnlyCollection_1_System_Collections_IList_Add_m616574295_gshared
TEe:_Int32_ProcessTrailingWhitespace_m2812079777
$gc:__Z43RectTransform_CUSTOM_INTERNAL_set_sizeDeltaP12Il2CppObjectRK13Vector2fIcall
PEf:_WebProxy__ctor_m3679722173
mpj:__ZN15dense_hashtableINSt3__24pairIK10KeyWrapperINS1_IPKcS4_EEEiEES6_24NamespaceAndNamePairHashN14dense_hash_mapIS6_iS9_NS6_14EqualsComparerI26NamespaceAndNamePairEqualsEENS0_9allocatorIS8_EEE9SelectKeyESD_SF_E6insertERKS8_
Owa:__ZN24GenerateTypeTreeTransfer18BeginArrayTransferEPKcS1_Ri17TransferMetaFlags
pia:__Z16DecompressCrunchPKhRjR13TextureFormatiiii18MemLabelIdentifier
pm:___syscall51
tm:___syscall54
hhb:__ZN9ShaderLab9SubShader19CreateFromSubShaderERKS0_
gD:__ZNK8Animator20IsAnyRendererVisibleEv
HVc:_cff_builder_add_point1
gqj:__ZN6il2cpp2vm5Image21GetCachedResourceDataEPK11Il2CppImageRKNSt3__212basic_stringIcNS5_11char_traitsIcEENS5_9allocatorIcEEEE
xEd:_HorizontalOrVerticalLayoutGroup_set_childControlWidth_m4209477792
Whe:_Array_InternalArray__ICollection_Add_TisUInt32_t2149682021_m2629016323_gshared
wmb:__Z18Transfer_BlittableI14SafeBinaryReadLb0E10ColorRGBAfEvRK29SerializationCommandArgumentsR31RuntimeSerializationCommandInfo
Aa:invoke_iiiiiiiiii
sP:__ZN11AudioSource25GetNumExtensionPropertiesEv
Aje:_Array_InternalArray__Insert_TisKeyValuePair_2_t888819835_m975554221_gshared
B6g:__Z59RuntimeInvoker_RuntimeObject_Int64_t909078037_RuntimeObjectPFvvEPK10MethodInfoPvPS4_
S8a:__ZN18LoadSceneOperation19IntegrateTimeSlicedEi
T$f:_Scheduler_SchedulerThread_m2209572785
Tre:_SortKeyBuffer_GetResultAndReset_m2516956577
NZb:__ZN10FileSystem19SetCurrentDirectoryERKN4core12basic_stringIcNS0_20StringStorageDefaultIcEEEE
p1:__ZN16ScriptingManager24NotifyScriptCacheReleaseEi
ddc:__Z47Register_UnityEngine_Coroutine_ReleaseCoroutinev
gI:__ZN15AudioReverbZone13SetFMODValuesEv
QZ:__ZL19StaticDestroyShaderPv
fe:_glRenderbufferStorageMultisample
Vri:_Ray_GetPoint_m2427899009
Cy:__ZN23AnimationPlayableOutput17SetTargetAnimatorEP8Animator
$rc:__ZN9JSONWrite8TransferI13dynamic_arrayIN4math12int3_storageELj4EEEEvRT_PKc17TransferMetaFlags
tpi:_X509Chain__ctor_m1113875360
vkf:_ReadOnlyCollection_1__ctor_m2387481411_gshared
mxf:_TlsServerHello_processProtocol_m1241336522
$be:_Array_InternalArray__ICollection_Remove_TisKeyValuePair_2_t888819835_m1287715465_gshared
m6h:_ContextAttribute_IsContextOK_m3281216012
jNe:_PathTooLongException__ctor_m3212099251
sSf:_ObjectManager_RaiseDeserializationEvent_m1611173032
Qr:__ZN17PackedFloatVector8TransferI18StreamedBinaryReadILb0EEEEvRT_
KUa:__ZN7Cubemap23VirtualRedirectTransferER17RemapPPtrTransfer
_ec:__Z37Register_UnityEngine_Screen_get_widthv
Y7b:__ZN22BlockMemoryCacheWriter11GetPathNameEv
SCd:_Graphic_Rebuild_m2617722358
Nac:__ZN23TransformChangeDispatch38CheckAndClearChangedForMultipleSystemsEyP19ProfilerInformation
Q2d:_DateTime_ToString_m3108726445_AdjustorThunk
bR:__ZN19CloudServiceHandlerD2Ev
_oe:_Array_InternalArray__get_Item_TisTableRange_t2011406615_m602485977_gshared
ZHd:_InputField_Append_m2623574152
gBe:_ApplicationException__ctor_m1120437222
hp:stackAlloc
wdc:__Z44Camera_CUSTOM_INTERNAL_CALL_ScreenPointToRayP12Il2CppObjectRK8Vector3fR3Ray
cCa:__ZN25SingleBlockMemoryFileData4LockEPPv
AUg:_MethodBuilder_GetHashCode_m1713271764
b8e:_Collection_1_IsSynchronized_m1319022347_gshared
are:_MSCompatUnicodeTable_GetResource_m3816716847
jfc:__Z32RectOffset_Get_Custom_PropBottomP12Il2CppObject
dLd:_Array_CreateInstance_m15016505
Rob:__ZNSt3__26vectorI17AnimationCurveTplIfE13stl_allocatorIS2_L18MemLabelIdentifier1ELi16EEE6assignINS_11__wrap_iterIPS2_EEEENS_9enable_ifIXaasr21__is_forward_iteratorIT_EE5valuesr16is_constructibleIS2_NS_15iterator_traitsISC_E9referenceEEE5valueEvE4typeESC_SC_
LIj:_stat
Xfd:_RijndaelTransform_Decrypt128_m1282993908
$Si:_Canvas_get_isRootCanvas_m3746337338
_ie:_Array_InternalArray__ICollection_CopyTo_TisUInt16_t986882611_m3228377237_gshared
lKg:__ZL68Navigation_t1571958496_CustomAttributesCacheGenerator_m_SelectOnDownP21CustomAttributesCache
aAc:__ZN15b2DistanceJoint23InitVelocityConstraintsERK12b2SolverData
eIa:__ZN6CameraD2Ev
pfd:_RC2_set_KeySize_m2015782960
ma:invoke_iiiiiiiiiiii
Cye:_StrongName_get_PublicKey_m3777577320
vii:_PersistentCallGroup_Initialize_m3729167844
WK:__ZN10AudioMixer12RebindOutputEv
Wij:__ZNK15dense_hashtableINSt3__24pairIK10KeyWrapperIP11Il2CppClassES4_EES5_N6il2cpp8metadata16SZArrayClassHashEN14dense_hash_mapIS5_S4_SA_NS5_14EqualsComparerINS9_19SZArrayClassCompareEEENS0_9allocatorIS7_EEE9SelectKeyESE_SG_E5beginEv
pZi:__ZN6il2cpp2vm17SetupFieldsLockedEP11Il2CppClassRKNS_2os12FastAutoLockE
xL:__ZN11AudioSourceD0Ev
Ukb:__ZN16MemoryFileSystem4NameEv
zrd:_BaseRaycaster_OnEnable_m3641767070
nQe:_MissingMemberException_get_Message_m2763732423
Yof:_PrimeGeneratorBase_get_PrimalityTest_m308005118
Djc:__Z13SetCopyBufferRKN4core12basic_stringIcNS_20StringStorageDefaultIcEEEE
vZe:_List_1_CheckIndex_m2328469916_gshared
Y9g:__Z75RuntimeInvoker_RuntimeObject_RuntimeObject_Decimal_t724701077_RuntimeObjectPFvvEPK10MethodInfoPvPS4_
tNc:_UNITY_FT_New_Size
wbc:__Z42ScriptingGetComponentsOfTypeFromGameObjectRK26ScriptingGetComponentsArgs
Vzi:_GUI_set_changed_m3199207797
i6e:_List_1_get_Item_m3157283227_gshared
$$d:_Convert_ToString_m2915777777
oSa:__ZNSt3__27__sort4IRPFbRKNS_4pairIN9ShaderLab16FastPropertyNameEN18UnityPropertySheet11UnityTexEnvEEES8_EPS6_EEjT0_SD_SD_SD_T_
YUc:_cf2_hintmap_build
SSc:_Line_Up
hSe:_MonoType_GetGenericTypeDefinition_m2363776160
tvf:_Context_set_SentConnectionEnd_m2641458842
me:_emscripten_glBufferSubData
oOd:_Buffer_BlockCopyInternal_m2627156229
LCd:_Graphic_set_material_m329335629
ird:_ExecuteEvents_get_pointerExitHandler_m3250605428
pka:__ZN6prcoreL12RemapGenericI15TexFormatRGB88817TexFormatARGB8888EEvPKNS_9InnerInfoE
Zp:__Z17CalculateGlobalRS23TransformAccessReadOnly
Cte:_Kernel_multiByteDivide_m735279869
PJh:_Dictionary_2_ToTValue_m542772656_gshared
r$f:_Thread_GetNewManagedId_internal_m3211695465
cWi:_CustomEventData_AddInt64_m890154679
uUi:_UISystemProfilerApi_EndSample_m3264820872
Nha:__ZN17GenericDynamicVBO17DrawChunkInternalERK21DynamicVBOChunkHandle17ShaderChannelMaskS3_P17VertexDeclarationP16DrawBuffersRangeij
vpb:__ZN14SafeBinaryRead21TransferSTLStyleArrayI13dynamic_arrayI9BoundsIntLj4EEEEvRT_17TransferMetaFlags
Abb:__ZN22MemoryCacherReadBlocks14LockCacheBlockEjPPhS1_
pNd:_Boolean_System_IConvertible_ToChar_m2637404801_AdjustorThunk
wld:_SecurityContext_Capture_m2535194991
t3f:_UInt16_System_IConvertible_ToSByte_m3044765342_AdjustorThunk
lKb:__ZNK9GfxDevice26GetSinglePassStereoEyeMaskEv
T8g:__Z66RuntimeInvoker_Void_t1841601450_Int64_t909078037_Int32_t2071877448PFvvEPK10MethodInfoPvPS4_
sMc:__ZN20TextRenderingPrivate8FontImpl16CacheFontForTextEPtiifjPK13dynamic_arrayINS_16TextFormatChangeELj4EE
Tle:_Array_qsort_TisUIVertex_t1204258818_TisUIVertex_t1204258818_m512606409_gshared
edd:__Z21ArrayElementTypeCheckP11Il2CppArrayPv
GTj:_emscripten_glTexSubImage2D__wrapper
ACf:_NameValueCollection_AsSingleString_m10599052
DQb:__ZN14qsort_internal30FindAndMovePivotToLastPositionIP21ForwardRenderPassDataiN23ForwardShaderRenderLoop18RenderObjectSorterILb0EEEEEvT_S6_T0_T1_
hTe:_Object_InternalGetHashCode_m1371384246
osh:_Navigation_get_defaultNavigation_m2185194207
bJc:__ZN16PhysicsManager2D20WorldContactFilter2D13ShouldCollideEP9b2FixtureS2_
NGe:_Int32_System_IConvertible_ToSByte_m1449623243_AdjustorThunk
AAe:_AccessViolationException__ctor_m1270251537
w3c:__Z42Register_UnityEngine_Canvas_get_rootCanvasv
Mpi:_X509ExtensionCollection_IndexOf_m3972100651
Mnb:__Z14resize_trimmedINSt3__26vectorI8MonoPPtr13stl_allocatorIS2_L18MemLabelIdentifier1ELi16EEEEEvRT_j
Ve:_TTF_RenderText_Solid
n4f:_UInt32_System_IConvertible_ToInt64_m3091851828
qQe:_MissingMethodException__ctor_m3898429715
RPf:_RemotingConfiguration_RegisterClientProviderTemplate_m514821425
PBh:_Enumerator_System_Collections_IEnumerator_Reset_m3085583937_gshared
X7:__ZN15dense_hashtableINSt3__24pairIKPKcPK4RTTIEES3_N11TypeManager23ConstCharPtrHashFunctorEN14dense_hash_mapIS3_S7_SA_NS9_19ConstCharPtrEqualToE13stl_allocatorIS8_L18MemLabelIdentifier7ELi16EEE9SelectKeyESC_SF_E15insert_noresizeERKS8_
Nxe:_RSAManaged_ExportParameters_m2873993187
JXd:_Convert__cctor_m926133987
_6e:_Enumerator__ctor_m2816143215_AdjustorThunk
bad:__ZN11UnityEngine7Connect16PersistentValuesC2Ev
BHf:_X509Chain_FindParent_m404663796
iqc:__Z18Transfer_BlittableI9JSONWriteLb0E5RectTIiEEvRK29SerializationCommandArgumentsR31RuntimeSerializationCommandInfo
pQe:_MissingMemberException__ctor_m2164043278
NUi:__ZL7log2_32j
gKf:_Interpreter_GetGroupInfo_m312421921
soa:__Z15IsIEEE754Format14GraphicsFormat
rrb:__Z19TransferField_ArrayI17RemapPPtrTransfer27Converter_UnityEngineObjectEvRK23StaticTransferFieldInfoR31RuntimeSerializationCommandInfoRT0_
$a:invoke_iifiii
pIe:_NumberFormatter_InitDecHexDigits_m1612588520
ica:__ZN13GfxDeviceGLES15UploadTexture2DE9TextureID16TextureDimensionPKhiii14GraphicsFormati18TextureUploadFlags16TextureUsageMode
ZJ:__ZN4FMOD6System9createDSPEP20FMOD_DSP_DESCRIPTIONPPNS_3DSPE
_x:__ZN7mecanim9animation26DestroyControllerWorkspaceEPNS0_19ControllerWorkspaceERNS_6memory9AllocatorE
aG:__ZN4FMOD8ChannelI11EndCallbackEv
_id:_ToBase64Transform_TransformBlock_m2201454137
pmc:__ZN8GUIStyle14SetDefaultFontEPN13TextRendering4FontE
mVg:_OpCode_get_StackBehaviourPop_m3787015663_AdjustorThunk
k8h:_PatternCompiler_EmitCount_m3609178511
IYa:__ZN15QualitySettings23VirtualRedirectTransferER24GenerateTypeTreeTransfer
d9i:__ZN6il2cpp2os10FileHandleC2Ev
a0i:__ZN30dense_hashtable_const_iteratorINSt3__24pairIK10KeyWrapperIPK19Il2CppGenericMethodEPK26Il2CppGenericMethodIndicesEES6_N6il2cpp8metadata23Il2CppGenericMethodHashEN14dense_hash_mapIS6_SA_SE_NS6_14EqualsComparerINSD_26Il2CppGenericMethodCompareEEENS0_9allocatorISB_EEE9SelectKeyESI_SK_EppEv
uBf:_HybridDictionary_Add_m1037587952
XMc:_UNITY_FT_Request_Metrics
Knj:__ZN6il2cpp6icalls8mscorlib6System10Reflection10MonoMethod29get_IsGenericMethodDefinitionEP22Il2CppReflectionMethod
okj:__ZN6il2cpp2vm6Thread21AllocThreadStaticDataEi
MYd:_DateTime_YearMonthDayFormats_m4204607055
ryd:_ColorBlock_set_disabledColor_m3502887543_AdjustorThunk
ywj:__ZN30dense_hashtable_const_iteratorINSt3__24pairIK10KeyWrapperIPK19Il2CppGenericMethodEP10MethodInfoEES6_N6il2cpp8metadata23Il2CppGenericMethodHashEN14dense_hash_mapIS6_S9_SD_NS6_14EqualsComparerINSC_26Il2CppGenericMethodCompareEEENS0_9allocatorISA_EEE9SelectKeyESH_SJ_EppEv
FO:__Z13RegisterClassI13AudioListenerEvv
yHi:_Aes__ctor_m4020215067
Hpc:__Z18Transfer_BlittableI9JSONWriteLb0E8Vector3fEvRK29SerializationCommandArgumentsR31RuntimeSerializationCommandInfo
Uf:_emscripten_glUniform4i
QCd:_Graphic_OnDisable_m2360886868
SGi:_ObjectPool_1_Release_m1615270002_gshared
ef:_emscripten_glUniform4f
Aj:___unlock
Nza:__ZN15dense_hashtableINSt3__24pairIKN4core12basic_stringIcNS2_20StringStorageDefaultIcEEEEP20ArchiveStorageReaderEES6_20StringHash32FunctionIS6_EN14dense_hash_mapIS6_S9_SC_NS0_8equal_toIS6_EE13stl_allocatorISA_L18MemLabelIdentifier55ELi16EEE9SelectKeyESF_SI_ED2Ev
Tvh:_ScrollRect_InternalCalculateOffset_m3083065267
fYb:__ZN13sorted_vectorINSt3__24pairIN4core12basic_stringIcNS2_20StringStorageDefaultIcEEEES6_EEN10vector_mapIS6_S6_27compare_tstring_insensitiveIS6_E13stl_allocatorIS7_L18MemLabelIdentifier38ELi16EEE13value_compareESD_E9erase_oneIS6_EEjRKT_
JTd:_Comparer_Compare_m4132969818
gM:__ZN20SoundChannelInstance19setReverbPropertiesEP29FMOD_REVERB_CHANNELPROPERTIES
DLh:_DefaultComparer_Equals_m2171836276_gshared
Gmj:__ZN6il2cpp2vm9Exception18GetFormatExceptionEPKc
kjc:__Z40Register_UnityEngine_Transform_IsChildOfv
Mki:_Mathf_Floor_m484333823
BRd:_ArrayList_Sort_m923359189
qji:_Gradient_Init_m3042650694
kec:__Z45Register_UnityEngine_Display_GetSystemExtImplv
Pu:__ZN7mecanim9animation23TransformValuesFromClipEiiiRKNS_10ValueArrayERKNS0_10ClipOutputERKNS0_12ClipBindingsERS1_RNS_14ValueArrayMaskEb
KUi:__ZL17log2withScale_128yyi
E$c:__ZNSt3__218__insertion_sort_3IRNS_6__lessIN2UI14DepthSortEntryES3_EEPS3_EEvT0_S7_T_
y1b:__ZN2UI13RectTransform15InitializeClassEv
W5:__ZN13RuntimeStaticI15DirectorManagerLb0EE16StaticInitializeEPv
Dtc:__ZN8JSONRead8TransferI23ManagedObjectTransfererEEvRT_PKc17TransferMetaFlagsb
s$f:_Thread_get_ManagedThreadId_m1995754972
Tqd:_BaseInput_get_touchCount_m998724785
g5a:__ZN11TimeManager6UpdateEv
rId:_InputField_get_preferredWidth_m3185355225
j$f:_Thread_SetState_m3198426726
VRd:_ArrayListWrapper_Contains_m1158465965
SIj:_fflush
BGa:__ZN17LightProbeContext4InitERK16LightmapSettingsRK14RenderSettings
XGj:__GLOBAL__sub_I_Error_cpp
$Ki:_AudioSource_INTERNAL_CALL_ReadExtensionPropertyName_m3694806886
vai:_Alternation_GetWidth_m4218808325
Qlf:_ReadOnlyCollection_1_System_Collections_IList_Insert_m2651065875_gshared
NOc:_ft_bitmap_glyph_bbox
HCf:_TypeConverterAttribute__ctor_m4061167050
B6e:_Enumerator_MoveNext_m3315718998_gshared
aBj:_GC_reclaim_uninit
UTb:__Z34ProcessIndexListIsNodeVisibleStep2RK22SceneCullingParametersPK9SceneNodePK4AABBR9IndexList
kDb:__ZN10MonoScriptD2Ev
_xh:_Slider_OnRectTransformDimensionsChange_m4109401172
LEf:_WebHeaderCollection_Get_m3391944907
Hfc:__Z39Input_CUSTOM_INTERNAL_get_mousePositionP8Vector3f
TRc:_tt_cmap13_char_next
ehb:__ZN9ShaderLab4Pass16SetupPassOptionsEv
hh:_JS_Sound_ReleaseInstance
Kxg:__ZL72IL2CPPStructAlignmentAttribute_t130316838_CustomAttributesCacheGeneratorP21CustomAttributesCache
hba:__ZN13GfxDeviceGLES19DrawBuffersIndirectEP9GfxBufferPK18VertexStreamSourceiP17VertexDeclaration17ShaderChannelMask16GfxPrimitiveType15ComputeBufferIDj
Zzd:_DefaultControls_CreateScrollbar_m770089625
rSj:_emscripten_glPixelStorei__wrapper
AHc:__Z20GetRigidbodyChildrenRK9Transform13dynamic_arrayIP11Rigidbody2DLj4EE
Gm:FUNCTION_TABLE_diddi
qhc:__Z26Material_CUSTOM_SetIntImplP12Il2CppObjectii
BEe:_Int16_System_IConvertible_ToSingle_m3277935657_AdjustorThunk
__c:__ZNK2UI14CanvasRenderer22GetTypeVirtualInternalEv
N6h:_InternalRemotingServices__cctor_m3821625125
wfc:__Z42Register_UnityEngine_RectOffset_get_bottomv
pYf:_StringBuilder_Insert_m3322917127
MKh:_DefaultComparer_Equals_m724229128_gshared
ECh:_Enumerator_VerifyCurrent_m1702320752_AdjustorThunk
wpb:__ZN9BoundsInt8TransferI14SafeBinaryReadEEvRT_
B_d:_Convert_ToDouble_m3520060872
LRj:_emscripten_glUniform1f__wrapper
CMj:dynCall_di
Lyf:_SslCipherSuite_ComputeServerRecordMAC_m1876572367
cMc:__ZN20TextRenderingPrivate19NativeTextGeneratorC2ERK11UTF16StringPNS_8FontImplE11ColorRGBA32ifRK8Vector2fbifiibffbbbP13dynamic_arrayIN2UI8UIVertexELj4EE
opc:__Z28RegisterModule_JSONSerializev
y_f:_Interlocked_CompareExchange_m3227034792
Qdd:_HashAlgorithm_get_Hash_m931854461
I$h:_DefaultComparer_Compare_m3564013922_gshared
gib:__ZN2UI13RectTransform8TransferI14SafeBinaryReadEEvRT_
Aqc:__Z35Transfer_Blittable_FixedBufferFieldI9JSONWriteaEvRK29SerializationCommandArgumentsR31RuntimeSerializationCommandInfo
qfh:__Z63RuntimeInvoker_RuntimeObject_Ray_t2469606224_Single_t2076509932PFvvEPK10MethodInfoPvPS4_
v9b:__Z20IsHumanControllingUsv
HJb:__ZNK19RenderEventsContext21ExecuteCommandBuffersEijR17ShaderPassContextR15RenderNodeQueueP19ProfilerInformationi
_V:__ZNK20DynamicHeapAllocatorI17LowLevelAllocatorE10GetPtrSizeEPKv
Wvi:_Texture2D_GetPixelBilinear_m3514551520
kv:__ZN17AnimationPlayable16AllocateBindingsEPK35AnimationPlayableEvaluationConstant
KAd:_Dropdown_set_value_m2945561009
_aa:__ZN13GfxDeviceGLES17DestroyGpuProgramEPK10GpuProgram
LBe:_GregorianCalendar_GetMonth_m523739832
Wlb:__Z44InitializeTransferFunctionScriptingTraitsForI18StreamedBinaryReadILb0EEEvR31TransferFunctionScriptingTraits
TPb:__ZNSt3__218__insertion_sort_3IR23CompareReflectionProbesP31RuntimeReflectionProbeBlendInfoEEvT0_S5_T_
Brb:__ZN12NativeBufferI27Converter_SimpleNativeClassI8GradientEE15SetupForWritingER9ArrayInfo
M8:__ZNSt3__213__stable_sortIRNS_4lessIN4core12basic_stringIcNS2_20StringStorageDefaultIcEEEEEENS_11__wrap_iterIPS6_EEEEvT0_SC_T_NS_15iterator_traitsISC_E15difference_typeEPNSF_10value_typeEi
KX:__ZN12_GLOBAL__N_113StaticDestroyEPv
_De:_Guid_ToString_m51661589
Fyh:_Text_set_font_m1095513810
wWj:_glUnmapBuffer__wrapper
Q1d:_DateTime_System_IConvertible_ToUInt32_m1363211018_AdjustorThunk
KFd:_InputField_get_cachedInputTextGenerator_m881618486
xgc:__Z32Mesh_CUSTOM_ExtractArrayFromListP12Il2CppObject
fPg:_Binder_get_DefaultBinder_m965620943
guc:__ZN8JSONRead21TransferSTLStyleArrayINSt3__26vectorI8Gradient13stl_allocatorIS3_L18MemLabelIdentifier1ELi16EEEEEEvRT_17TransferMetaFlags
D5a:__ZNSt3__218__insertion_sort_3IRNS_6__lessINS_4pairIPKN5Unity4TypeE7Hash128EES8_EEPS8_EEvT0_SC_T_
jtb:__ZN10RectOffset8TransferI24GenerateTypeTreeTransferEEvRT_
dMd:_SimpleEnumerator_get_Current_m482975946
wJj:_srand
vDc:__ZNK10Collider2D15GetAttachedBodyEv
vsb:__Z18Transfer_BlittableI24GenerateTypeTreeTransferLb1E5RectTIiEEvRK29SerializationCommandArgumentsR31RuntimeSerializationCommandInfo
vIa:__ZNSt3__24listI4PPtrI6CameraENS_9allocatorIS3_EEE6removeERKS3_
n$c:__ZN2UI13CanvasManager19RemoveDirtyRendererEPNS_6CanvasEPNS_14CanvasRendererE
$0i:__ZN15dense_hashtableI10KeyWrapperIPK17Il2CppGenericInstES4_N6il2cpp8metadata21Il2CppGenericInstHashEN14dense_hash_setIS4_S7_NS4_14EqualsComparerINS6_24Il2CppGenericInstCompareEEENSt3__29allocatorIS4_EEE8IdentityESB_SE_E12resize_deltaEjj
yac:__ZN8Material14DisableKeywordERKN4core12basic_stringIcNS0_20StringStorageDefaultIcEEEE
G6c:__ZN11UnityEngine15PlatformWrapper25GetGraphicsRendererStringEv
FHd:_InputField_KeyPressed_m3066588581
dxh:_Selectable_DoStateTransition_m539253088
hid:_SHA512_Create_m439875055
HU:__ZN11UnityEngine15CloudWebService17WebFileDownloaderINS0_20WebRequestRestClientENS0_23WebRequestRestHeaderMapEED2Ev
Vb:invoke_vi
$hd:_SHA384Managed_update_m2629600295
rBc:__ZNSt3__26vectorINS0_IN10ClipperLib8IntPointENS_9allocatorIS2_EEEENS3_IS5_EEE7reserveEj
Prc:__ZN9JSONWrite8TransferI13dynamic_arrayI9BoundsIntLj4EEEEvRT_PKc17TransferMetaFlags
Tb:invoke_vd
tb:invoke_vf
g3:__ZNK10GameObject8IsActiveEv
ASe:_NumberFormatter__cctor_m1641464619
MDg:__ZL67g_UnityEngine_PhysicsModule_Assembly_CustomAttributesCacheGeneratorP21CustomAttributesCache
cUf:_SByte_System_IConvertible_ToUInt32_m4256495110
xtd:_PointerEventData_set_eligibleForClick_m2036057844
goa:__ZN18GfxFramebufferGLES23SetupDefaultFramebufferEPP17RenderSurfaceBaseS2_N2gl6HandleILNS3_10ObjectTypeE9EEE
_Ij:_mbsinit
CFg:__ZL70EventSystem_t3466835263_CustomAttributesCacheGenerator_m_FirstSelectedP21CustomAttributesCache
LZa:__ZN13ScreenManager18RequestOrientationE17ScreenOrientation
OZi:__ZN6il2cpp2vm5Class12SetupMethodsEP11Il2CppClass
Uac:__Z39DeleteLastPathNameComponentWithAnySlashRKN4core12basic_stringIcNS_20StringStorageDefaultIcEEEE
plc:__ZN10GUIManager14InitGUIManagerEv
yJg:__ZL68InputField_t1631627530_CustomAttributesCacheGenerator_m_KeyboardTypeP21CustomAttributesCache
jAh:_VerticalLayoutGroup_CalculateLayoutInputHorizontal_m497637066
HMf:_MethodCall__ctor_m4106494862
t3g:__Z167RuntimeInvoker_Void_t1841601450_SByte_t454417549_SByte_t454417549_SByte_t454417549_SByte_t454417549_SByte_t454417549_SByte_t454417549_SByte_t454417549_SByte_t454417549PFvvEPK10MethodInfoPvPS4_
ync:__Z37Register_UnityEngine_GUIStyle_Cleanupv
Oa:invoke_iiifii
Aic:__Z39Register_UnityEngine_Time_set_timeScalev
x6i:__ZN6il2cpp6icalls8mscorlib6System8MonoType13IsPointerImplEP20Il2CppReflectionType
l_d:_Convert_ToDecimal_m2284596541
$Kg:__ZL62Selectable_t1490392188_CustomAttributesCacheGenerator_m_ColorsP21CustomAttributesCache
Ti:_emscripten_glFramebufferRenderbuffer
JSb:__ZN19CullingGroupManager17CullAndSendEventsERK22SceneCullingParametersiRK13CullingOutputRK8JobFence
aIe:_Int64_GetHashCode_m4047499913
nEa:__ZN9Transform30EnsureTransformHierarchyExistsEv
i8i:_il2cpp_field_get_flags
$N:__ZN11AudioModule26SetDefaultMicrophoneDriverEPv
BMd:_Attribute_IsDefined_m216577166
FQd:_Char_ToUpper_m109978609
BUh:_InternalEnumerator_1_get_Current_m1089848479_gshared
F6d:_Double_System_IConvertible_ToInt64_m3798425616
gvd:_StandaloneInputModule_get_repeatDelay_m3025279
d$a:__ZN14dense_hash_mapIN4core12basic_stringIcNS0_20StringStorageDefaultIcEEEE13dynamic_arrayI4PPtrI6SpriteELj4EE20StringHash32FunctionIS4_ENSt3__28equal_toIS4_EE13stl_allocatorINSC_4pairIKS4_S9_EEL18MemLabelIdentifier81ELi16EEEixERSH_
YXb:__ZNSt3__26vectorINS_4pairIN4core12basic_stringIcNS2_20StringStorageDefaultIcEEEEPK17MessageIdentifierEENS_9allocatorISA_EEE12__move_rangeEPSA_SE_SE_
aMb:__ZN14qsort_internal17MedianOfThreeSwapIP17RODataReplacement19ROSorterReplacementEEvT_S4_S4_T0_
FYi:__ZNK15dense_hashtableINSt3__24pairIK10KeyWrapperIPK22Il2CppGenericParameterEP11Il2CppClassEES6_N6il2cpp5utils11PointerHashIS4_EEN14dense_hash_mapIS6_S9_SE_NS6_14EqualsComparerINS0_8equal_toIS5_EEEENS0_9allocatorISA_EEE9SelectKeyESJ_SL_E3endEv
Pac:__ZN17TransformInternal36OnScaleChangedCalculateTransformTypeE15TransformAccess
ZSd:_SynchronizedArrayListWrapper_InsertRange_m709359548
eAa:__ZN17ArchiveFileSystem10ToAbsoluteEPKc
Mof:_BigInteger_op_Modulus_m13450242
t7c:__ZN19UnityConnectService15GetPlayerUserIdEv
b$d:_Convert_ToInt32_m2988544165
ime:_Array_Resize_TisColor32_t874517518_m2219502085_gshared
Kz:__ZN7mecanim6CRCKeyENS_7eStringE
DAf:_SslStreamBase_get_CanWrite_m2069502593
q8b:__ZL12SetPrefValueRKN4core12basic_stringIcNS_20StringStorageDefaultIcEEEERK9PrefValue
hxj:__ZN6il2cpp5utils11StringUtils6PrintfEPKcz
CSa:__ZN15NameToObjectMapI6ShaderNSt3__23mapI4PPtrIS0_EN4core12basic_stringIcNS5_20StringStorageDefaultIcEEEENS1_4lessIS4_EENS1_9allocatorINS1_4pairIKS4_S9_EEEEEENS1_8multimapIS9_S4_NSA_IS9_EENSC_INSD_IKS9_S4_EEEEEEE4FindERSK_
MCh:_ShimEnumerator_Reset_m98005789_gshared
hUa:__ZN24GenerateTypeTreeTransfer21TransferResourceImageE19ActiveResourceImagePKcR13StreamingInfoPvjiPKN5Unity4TypeE
Mjf:_ReadOnlyCollection_1_System_Collections_IList_set_Item_m1377990618_gshared
_Tg:_ILGenerator_make_room_m373147874
nKh:_Dictionary_2_Init_m1045257495_gshared
YNd:_Boolean_CompareTo_m3691698947_AdjustorThunk
$fe:_Array_InternalArray__IndexOf_TisKeyValuePair_2_t888819835_m2660446234_gshared
mxe:_PKCS1_Verify_v15_m2571212635
ENa:__ZNSt3__212__deque_baseI18ReflectionProbeJobNS_9allocatorIS1_EEED2Ev
gz:__ZN11UnityEngine9Animation27DestroyAnimationSetBindingsEPNS0_20AnimationSetBindingsERN7mecanim6memory9AllocatorE
Kcb:__ZN15dense_hashtableINSt3__24pairIKiN4core17string_with_labelILi1EEEEEi18SInt32HashFunctionN14dense_hash_mapIiS5_S7_NS0_8equal_toIiEE13stl_allocatorIS6_L18MemLabelIdentifier1ELi16EEE9SelectKeyESA_SD_E13set_empty_keyERKS6_
$D:__ZN8Animator12CleanupClassEv
MVf:_DecoderReplacementFallbackBuffer__ctor_m1305504326
euc:__Z13TransferFieldI8JSONReadLb0E27Converter_SimpleNativeClassI10RectOffsetEEvRK23StaticTransferFieldInfoR31RuntimeSerializationCommandInfoRT1_
qod:_String_IndexOf_m570401060
p7d:_Enum_System_IConvertible_ToDateTime_m2924690746
kBd:_Dropdown_CreateBlocker_m4109366440
Ldd:_HashAlgorithm_System_IDisposable_Dispose_m2106335965
hqj:__GLOBAL__sub_I_GenericMetadata_cpp
L5i:__ZN6il2cpp6icalls8mscorlib6System8MonoType18GetFields_internalEP20Il2CppReflectionTypeiS5_
vTb:__Z24CalculateSpotLightBoundsffRK10Matrix4x4fR15SpotLightBounds
dre:_TailoringInfo__ctor_m2248501932
YQ:__ZN23CloudWebServicesManager23VirtualRedirectTransferER14SafeBinaryRead
_2g:__Z150RuntimeInvoker_Int32_t2071877448_RuntimeObject_Int32_t2071877448_Int32_t2071877448_RuntimeObject_Int32_t2071877448_Int32_t2071877448_Int32_t2071877448PFvvEPK10MethodInfoPvPS4_
vSd:_FixedSizeArrayListWrapper_InsertRange_m2690348965
PCb:__Z19ShouldTransferFieldR32SerializationCommandQueueBuilder17ScriptingClassPtriR18TransferField_InfoRK20CoreScriptingClasses
XVg:_FieldInfo_get_IsStatic_m1411173225
yMe:_MemoryStream_Read_m2289595005
Ksa:__ZN26SinglePassStereoSupportExt21SetStereoMatrixCommonE21MonoOrStereoscopicEye24BuiltinShaderMatrixParamRK10Matrix4x4f
FK:__ZN5audio5mixer22UpdateAudioMixerMemoryERKNS0_18AudioMixerConstantERNS0_16AudioMixerMemoryEfPN4FMOD6SystemEf
KKc:__ZL21InitializeCachedStripPv
xlj:__ZN6il2cpp6icalls8mscorlib6System9Threading6Thread23GetCachedCurrentCultureEP12Il2CppThread
ywh:_Selectable_get_allSelectables_m3045831006
aGa:__ZNK6Camera22GetWorldToCameraMatrixEv
Vsj:__ZN6il2cpp2vm12GenericClass11IsValueTypeEP18Il2CppGenericClass
MBb:__ZN13MonoBehaviour7SetNameEPKc
Grf:_ContentInfo__ctor_m3579805263
p$i:__ZN15dense_hashtableINSt3__24pairIK10KeyWrapperIPKcEP11Il2CppClassEES5_N6il2cpp5utils11StringUtils12StringHasherIS4_EEN14dense_hash_mapIS5_S8_SE_NS5_14EqualsComparerINSB_13VmStringUtils21CaseSensitiveComparerEEENS0_9allocatorIS9_EEE9SelectKeyESJ_SL_E15set_deleted_keyERKS9_
Gvh:_ScrollRect_get_verticalNormalizedPosition_m1701804869
nX:__GLOBAL__sub_I_runtime_shaders_shaderimpl_0_cpp
g9a:__ZN18AwakeFromLoadQueue5ClearEv
_Eh:_Enumerator_get_Current_m2986380627_AdjustorThunk
_Rb:__ZNSt3__27__sort5IR15ReflProbeSorterPP15ReflectionProbeEEjT0_S6_S6_S6_S6_T_
s6:__ZN8Playable10DisconnectEPS_i
SRh:_InternalEnumerator_1_get_Current_m1526874475_AdjustorThunk
vk:_glGenTransformFeedbacks
Sya:__ZN13LoadOperationD2Ev
Uve:_KeyPairPersistence__ctor_m1817312194
cTi:_Canvas_set_scaleFactor_m3986864146
xbe:_Array_InternalArray__ICollection_Contains_TisMark_t2724874473_m1640201705_gshared
DFb:__Z21PlayerStartFirstSceneb
PRg:_TypeBuilder_get_AssemblyQualifiedName_m2097258567
pSa:__ZNSt3__27__sort5IRPFbRKNS_4pairIN9ShaderLab16FastPropertyNameEN18UnityPropertySheet11UnityTexEnvEEES8_EPS6_EEjT0_SD_SD_SD_SD_T_
$fa:__ZNK7ApiGLES18GetExtensionStringEv
mra:__ZN31TransformFeedbackSkinPoseBufferD0Ev
MRj:_emscripten_glVertexAttrib1f__wrapper
bjb:__ZNK12HandlerChain4SizeERK13FileEntryData
iLh:_DefaultComparer_Equals_m1281232537_gshared
fp:FUNCTION_TABLE_iiiiiiiii
SGd:_InputField_set_asteriskChar_m619206227
oVf:_DES_IsSemiWeakKey_m3967392585
Sxc:__Z22GetPhysicsGroundBody2Dv
HEe:_Int16_System_IConvertible_ToUInt32_m883204517_AdjustorThunk
oZg:_MonoProperty_get_PropertyType_m1921201152
Ezd:_FloatTween_TweenValue_m3881535116_AdjustorThunk
Qzj:_GC_allochblk
v9a:__Z15UnloadGameScenev
rWj:_glCheckFramebufferStatus__wrapper
b8a:__ZNSt3__26vectorIN30RuntimeInitializeOnLoadManager15ClassMethodInfoE13stl_allocatorIS2_L18MemLabelIdentifier13ELi16EEE7reserveEj
yDj:__ZN6il2cpp2vm6Atomic9IncrementEPVi
Rnf:_BigInteger_get_Rng_m2525288368
_If:_X509ExtensionEnumerator_Reset_m3200687545
KTd:_CaseInsensitiveHashCodeProvider__ctor_m3775398833
Uec:__Z36Renderer_Get_Custom_PropSortingOrderP12Il2CppObject
NAi:_GUIContent__cctor_m976962423
Hcj:__ZNK15dense_hashtableINSt3__24pairIK10KeyWrapperIPK10Il2CppTypeEjEES6_N6il2cpp8metadata14Il2CppTypeHashEN14dense_hash_mapIS6_jSB_NS6_14EqualsComparerINSA_26Il2CppTypeEqualityComparerEEENS0_9allocatorIS8_EEE9SelectKeyESF_SH_E13find_positionERS7_
ePa:__ZN7Texture5ResetEv
hxc:__ZNK14b2CapsuleShape7RayCastEP15b2RayCastOutputRK14b2RayCastInputRK11b2Transformi
Mrb:__Z18Transfer_BlittableI24GenerateTypeTreeTransferLb1EhEvRK29SerializationCommandArgumentsR31RuntimeSerializationCommandInfo
zcc:__ZNK16TypeTreeIterator10ByteOffsetEv
vCd:_Graphic_get_rectTransform_m2697395074
B5:__ZnwjRKSt9nothrow_t
DC:__ZN8Animator11ClearObjectEv
bGf:_X500DistinguishedName_Decode_m3070515374
YQa:__ZN14SafeBinaryRead19TransferSTLStyleMapINSt3__23mapI39DeprecatedFastPropertyNameSerializationN18UnityPropertySheet11UnityTexEnvENS1_4lessIS3_EENS1_9allocatorINS1_4pairIKS3_S5_EEEEEEEEvRT_17TransferMetaFlags
UDf:_IPv6Address_set_ScopeId_m1442934355
tSf:_ObjectManager_RaiseOnDeserializedEvent_m512850179
ucc:__Z35UnregisterSerializationCacheBuilderPFv17ScriptingClassPtrR23CachedSerializationDataRbE
SGa:__Z30GetBuiltinVectorParamArraySize24BuiltinShaderVectorParam
Qqe:_CodePointIndexer__ctor_m797342079
UWa:__ZN18StreamedBinaryReadILb0EE21TransferSTLStyleArrayI13dynamic_arrayI7Hash128Lj8EEEEvRT_17TransferMetaFlags
JXa:__ZN21RendererUpdateManager11AddRendererER8Renderer
u0b:__Z13RegisterClassI15ResourceManagerEvv
Emb:__Z35Transfer_Blittable_FixedBufferFieldI14SafeBinaryReadsEvRK29SerializationCommandArgumentsR31RuntimeSerializationCommandInfo
d1a:__ZN14SafeBinaryRead21TransferSTLStyleArrayI13dynamic_arrayIfLj4EEEEvRT_17TransferMetaFlags
ixj:__ZN6il2cpp5utils11StringUtils11Utf16ToUtf8EPKDs
G7a:__ZN18StreamedBinaryReadILb0EE21TransferSTLStyleArrayINSt3__26vectorIN15ResourceManager10DependencyE13stl_allocatorIS5_L18MemLabelIdentifier52ELi16EEEEEEvRT_17TransferMetaFlags
X6c:__ZN11UnityEngine15PlatformWrapper20IsRootedOrJailbrokenEv
GIb:__ZZ23InitPlayerLoopCallbacksvEN52PreLateUpdateScriptRunBehaviourLateUpdateRegistrator7ForwardEv
DGf:_X509Certificate2_GetNameInfo_m402390219
rTb:__Z33IntersectAABBPlaneBoundsOptimizedRK4AABBPKN4math7_float4Ei
iMd:_Swapper_BeginInvoke_m2652511022
eti:_RectOffset_t3387826427_marshal_pinvoke_back
lba:__ZN9GfxDevice19EndGeometryJobFrameEv
Grb:__ZN27Converter_SimpleNativeClassI17AnimationCurveTplIfEE17ScriptingToNativeER18ScriptingObjectPtrPS1_
AFj:__ZN6il2cpp8metadata24Il2CppGenericInstCompare7CompareERK10KeyWrapperIPK17Il2CppGenericInstES8_
Z$i:__ZNK15dense_hashtableINSt3__24pairIK10KeyWrapperIPK19Il2CppGenericMethodEPK26Il2CppGenericMethodIndicesEES6_N6il2cpp8metadata23Il2CppGenericMethodHashEN14dense_hash_mapIS6_SA_SE_NS6_14EqualsComparerINSD_26Il2CppGenericMethodCompareEEENS0_9allocatorISB_EEE9SelectKeyESI_SK_E5beginEv
MCd:_Graphic_get_materialForRendering_m2600868951
Zs:__ZN27AnimationLayerMixerPlayable21UpdateLayerParametersEv
f8b:__ZN9Polygon2D7DefaultEv
bbf:_Collection_1_System_Collections_IList_Contains_m3210868188_gshared
U1b:__ZNK17AnimationCurveTplIfE8EvaluateEfPNS0_5CacheE
KHb:__Z31ManagerContextInitializeClassesv
KFe:_NumberFormatter_AppendIntegerString_m868842252
fcg:__ZL53SortedList_t3004938869_CustomAttributesCacheGeneratorP21CustomAttributesCache
zNc:_UNITY_FT_List_Finalize
dNb:__Z20LightAttenuateApproxRKfS0_
Yva:__ZN9Scripting30SetCachedPtrOnScriptingWrapperE18ScriptingObjectPtrP6Object
cvb:__Z18Transfer_BlittableI19StreamedBinaryWriteILb0EELb0EdEvRK29SerializationCommandArgumentsR31RuntimeSerializationCommandInfo
Mpd:_ASCIIEncoding_GetBytes_m3649277167
Hzc:__ZN16b2PrismaticJoint4DumpEv
QKa:__ZN18BlockRangeInternal16PopLastNodeIndexEP10BlockRangeji
n6f:_Version__ctor_m2972638031
hue:_Kernel_MultiplyByDword_m155008287
z0a:__ZN4MeshD0Ev
v6g:__Z121RuntimeInvoker_Void_t1841601450_Int64_t909078037_RuntimeObject_RuntimeObject_Int64_t909078037_RuntimeObject_RuntimeObjectPFvvEPK10MethodInfoPvPS4_
Hcd:__ZL42RequestRecreateEyeTexturesBeforeNextUpdatev
bfa:__ZNK6Camera20IsCurrentlyRenderingEv
Ou:__ZN21AnimationClipPlayable23ProcessRootMotionNoClipEPK35AnimationPlayableEvaluationConstantPK32AnimationPlayableEvaluationInputP33AnimationPlayableEvaluationOutput
$1c:__Z36CanvasRenderer_CUSTOM_SetPopMaterialP12Il2CppObjectS0_i
B9i:_UpdatedEventHandler_Invoke_m4240581743
Hqc:__Z18Transfer_BlittableI9JSONWriteLb0EdEvRK29SerializationCommandArgumentsR31RuntimeSerializationCommandInfo
czc:__ZNK11b2GearJoint16GetReactionForceEf
Whf:_ReadOnlyCollection_1_System_Collections_IList_Insert_m3679749778_gshared
Mzh:_Toggle_OnDidApplyAnimationProperties_m325835214
PHj:_wctomb
Adc:__Z27Camera_CUSTOM_GetAllCamerasP11Il2CppArray
KXd:_Convert_InternalFromBase64String_m3682756716
ad:___cxa_rethrow
ksc:__Z18Transfer_BlittableI8JSONReadLb1EhEvRK29SerializationCommandArgumentsR31RuntimeSerializationCommandInfo
tGc:__ZN18Overlap2DQueryBase13ReportFixtureEP9b2Fixture
J0f:_TimeSpan_Add_m3228293154
lLh:_DefaultComparer_Equals_m4098991076_gshared
lWb:__ZN13MonoBehaviour8SetClassE17ScriptingClassPtr18ScriptingObjectPtr
lrf:_RC4__cctor_m523650203
q6h:_CrossContextDelegate_Invoke_m2908136830
Rjb:__ZN20LocalFileSystemPosix4ReadER13FileEntryDatayyPvPy
FQb:__ZNSt3__211__sift_downIRN23ForwardShaderRenderLoop18RenderObjectSorterILb0EEEP21ForwardRenderPassDataEEvT0_S7_T_NS_15iterator_traitsIS7_E15difference_typeES7_
BPe:_UnmanagedMemoryStream_get_Position_m4093669769
aCb:__ZN13MonoBehaviour5DoGUIENS_13GUILayoutTypeEii
JRg:_DerivedType_IsDefined_m555719351
w7h:_Mark_get_IsDefined_m3332701456
Hxa:__ZNK12TLSAllocatorI14StackAllocatorE8ContainsEPKv
i5a:__ZN11TimeManager8TransferI18StreamedBinaryReadILb0EEEEvRT_
Dhb:__ZN15SerializeTraitsINSt3__23mapI4PPtrI6ShaderEN4core12basic_stringIcNS5_20StringStorageDefaultIcEEEENS0_4lessIS4_EENS0_9allocatorINS0_4pairIKS4_S9_EEEEEEE8TransferI24GenerateTypeTreeTransferEEvRSH_RT_
zVf:_DESTransform__cctor_m1179482644
M0a:__ZN14BlendShapeData8TransferI14SafeBinaryReadEEvRT_
WVi:_CustomEventData_AddString_m1682987767
A7d:_Enum_Format_m2294492821
UTa:__ZN7Texture25ReloadFromStorageIfNeededEPvb
Bpc:__Z35Transfer_Blittable_FixedBufferFieldI9JSONWritehEvRK29SerializationCommandArgumentsR31RuntimeSerializationCommandInfo
WCh:_ShimEnumerator_get_Entry_m2332479818_gshared
w2d:_DateTime_CheckDateTimeKind_m329345155_AdjustorThunk
NXc:_Update_Max
Lkj:__ZN6il2cpp6icalls8mscorlib6SystemL15ThrowNoWideningEv
a2b:__ZNK23TransformChangeDispatch24GetChangeMaskForInterestENS_12InterestTypeE
Pic:__Z45Transform_CUSTOM_INTERNAL_CALL_TransformPointP12Il2CppObjectRK8Vector3fRS1_
Laf:__ZN23InterfaceActionInvoker2Ii18Color32_t874517518E6InvokeEjP11Il2CppClassP12Il2CppObjectiS0_
j_b:__ZL10KeyHandleriPK23EmscriptenKeyboardEventPv
ADc:__ZN15dense_hashtableINSt3__24pairIKNS1_IPK10Collider2DS4_EE11Collision2DEES5_NS2_23ColliderPairHashFunctorEN14dense_hash_mapIS5_S7_S9_NS0_8equal_toIS5_EE13stl_allocatorIS8_L18MemLabelIdentifier67ELi16EEE9SelectKeyESC_SF_EC2ERKSI_j
oRa:__ZNSt3__26__treeINS_12__value_typeI39DeprecatedFastPropertyNameSerializationfEENS_19__map_value_compareIS2_S3_NS_4lessIS2_EELb1EEENS_9allocatorIS3_EEE7destroyEPNS_11__tree_nodeIS3_PvEE
wRc:_tt_cmap4_char_index
i1f:_TimeSpan_op_Addition_m3421801803
ljb:__ZNK12HandlerChain8IsHiddenERK13FileEntryData
TIg:__ZL50Graphic_t2426225576_CustomAttributesCacheGeneratorP21CustomAttributesCache
Wqb:__ZL26Transfer_SimpleNativeClassI17RemapPPtrTransfer10RectOffsetLb0EEvRK29SerializationCommandArgumentsR31RuntimeSerializationCommandInfo
aOc:__Z14ValidateFormatR13dynamic_arrayIN20TextRenderingPrivate16TextFormatChangeELj4EE
s1d:_DateTime_System_IConvertible_ToInt32_m2789391054_AdjustorThunk
jdh:__Z73RuntimeInvoker_Single_t2076509932_Vector3_t2243707580_Vector3_t2243707580PFvvEPK10MethodInfoPvPS4_
Rue:_ASN1Convert_FromInt32_m1541043489
Aud:_PointerInputModule_ProcessMove_m3200120346
rYd:_Convert_ToByte_m1008221737
mqf:_MD2Managed_MD2Transform_m3825201358
zKg:__ZL69Scrollbar_t3248359358_CustomAttributesCacheGenerator_m_OnValueChangedP21CustomAttributesCache
PAc:__ZN10ClipperLib14PointInPolygonERKNS_8IntPointEPNS_5OutPtE
PAd:_Dropdown_AddOptions_m835420907
OGa:__ZNK9ShaderLab20ShaderBlendStateDesc15ToGfxBlendStateEPK19ShaderPropertySheetS3_R13GfxBlendState
$xd:_CanvasUpdateRegistry_IsRebuildingLayout_m1677873278
Ly:__ZN11UnityEngine9AnimationL22GenericBindingCallbackEPvS1_i
xXc:_Compute_Point_Displacement
khb:__ZN9ShaderLab9IntShaderC2Ev
E6i:__ZN6il2cpp6icalls8mscorlib6SystemL9IsPrivateEPK9EventInfo
aEj:__ZN6il2cpp6icalls8mscorlib6System10Reflection4Emit11TypeBuilder20setup_internal_classEP27Il2CppReflectionTypeBuilderS7_
eQh:_ArrayReadOnlyList_1_IndexOf_m1809425308_gshared
q8i:_il2cpp_gc_disable
Loc:__ZN5Unity9rapidjson6WriterI16TempBufferWriterNS0_4UTF8IcEES4_13JSONAllocatorE11WriteUint64Ey
htd:_ExecuteEvents_U3Cs_HandlerListPoolU3Em__0_m2903690915
zVd:_Hashtable_Clone_m165405752
Kzc:__ZN16b2PrismaticJoint24SolveVelocityConstraintsERK12b2SolverData
pYi:__ZN13Il2CppHashMapIPK22Il2CppGenericParameterP11Il2CppClassN6il2cpp5utils11PointerHashIS1_EENSt3__28equal_toIS2_EENS9_9allocatorINS9_4pairIK10KeyWrapperIS2_ES4_EEEEEC2EjRKS8_RKSB_
Ctc:__ZN8JSONRead21TransferSTLStyleArrayI31ArrayOfManagedObjectsTransfererEEvRT_17TransferMetaFlags
PCa:__Z15CreateDirectoryRKN4core12basic_stringIcNS_20StringStorageDefaultIcEEEE
tOa:__Z21CalculateGlobalMatrix23TransformAccessReadOnly
Sag:__ZL70InternalsVisibleToAttribute_t1037732567_CustomAttributesCacheGeneratorP21CustomAttributesCache
n5a:__ZNK13BuildSettings22GetTypeVirtualInternalEv
iKe:_MonoIO_GetCurrentDirectory_m1509324201
YYf:_UTF32Encoding_GetHashCode_m4205784236
mZd:_DateTime_ToUniversalTime_m1815024752
s0b:__Z13RegisterClassI14RenderSettingsEvv
UUb:__ZNK25CameraStackRenderingState25CalculateCameraTargetTypeEv
zCj:_GC_set_on_event
Gph:__Z80RuntimeInvoker_Boolean_t3825574718_Navigation_t1571958496_Navigation_t1571958496PFvvEPK10MethodInfoPvPS4_
$7e:_Collection_1_ConvertItem_m3563206219_gshared
f1f:_TimeSpan_Subtract_m3597791685_AdjustorThunk
bx:__ZN7mecanim12statemachine24CreateStateMachineOutputEPKNS0_20StateMachineConstantEjRNS_6memory9AllocatorE
Tsj:__ZN6il2cpp2vm12GenericClass8GetClassEP18Il2CppGenericClass
Mba:__ZNK9GfxDevice27GetActiveRenderSurfaceWidthEv
I6c:__ZN11UnityEngine15PlatformWrapper28GetCleanGraphicsFixedVersionEv
w:tempBigIntP
Raj:__ZN6il2cpp2vm4Type7GetTypeEPK10Il2CppType
U_b:__ZN16SpriteRenderData28PrepareRenderingDataIfNeededEv
nMd:_AssemblyLoadEventHandler_Invoke_m108373765
zud:_PointerInputModule_ShouldStartDrag_m4163638715
nNi:__ZL24UnresolvedVirtualCall_76P12Il2CppObjectPK10MethodInfo
ula:__ZN6prcoreL17RemapGenericFloatI18TexFormatRGBAFloat17TexFormatRGBAHalfEEvPKNS_9InnerInfoE
hJb:__Z16FindCameraStacksRKNSt3__24listI4PPtrI6CameraENS_9allocatorIS3_EEEERNS_6vectorI11CameraStackNS4_ISA_EEEE
sWa:__ZN10GISettings8TransferI14SafeBinaryReadEEvRT_
zn:FUNCTION_TABLE_vifff
Xjf:_ReadOnlyCollection_1_System_Collections_Generic_ICollectionU3CTU3E_Remove_m2957273994_gshared
dXb:__ZN19CustomRenderTexture12ClearGPUDataEv
prd:_BaseInputModule_ShouldActivateModule_m2899747874
Roh:__Z86RuntimeInvoker_Int32_t2071877448_DateTimeOffset_t1362988906_DateTimeOffset_t1362988906PFvvEPK10MethodInfoPvPS4_
nPa:__ZN13RenderTexture13ApplySettingsEv
iPj:_glVertexAttrib4f__wrapper
Ze:_JS_Sound_SetListenerPosition
rn:FUNCTION_TABLE_fiffi
_Ug:_ModuleBuilderTokenGenerator_GetToken_m3427457873
R1c:__Z55Register_UnityEngine_CanvasGroup_get_ignoreParentGroupsv
Nwh:_Selectable_get_isPointerInside_m3162215687
zfe:_Array_FindIndex_TisRuntimeObject_m4149904176_gshared
ZXe:_List_1_System_Collections_IList_Contains_m149594880_gshared
U5f:_UnauthorizedAccessException__ctor_m3480402128
eue:_BigInteger_op_Modulus_m3788401748
S6h:_ArgInfo_GetInOutArgs_m3184132151
qbb:__ZNK8Material16MarkDependenciesER27GarbageCollectorThreadState
DDc:__ZN15dense_hashtableINSt3__24pairIKNS1_IPK10Collider2DS4_EE11Collision2DEES5_NS2_23ColliderPairHashFunctorEN14dense_hash_mapIS5_S7_S9_NS0_8equal_toIS5_EE13stl_allocatorIS8_L18MemLabelIdentifier67ELi16EEE9SelectKeyESC_SF_E5clearEv
Kqc:__ZL17Transfer_GUIStyleI9JSONWriteLb0EEvRK29SerializationCommandArgumentsR31RuntimeSerializationCommandInfo
XNb:__Z28GetHaloVertexPositionsStereoP8Vector3fRKS_S2_f
jma:__ZN6prcoreL27StretchGenericFloatBilinearI15TexFormatRGHalfEEvPKNS_9InnerInfoE
bVe:_Enumerator_MoveNext_m598197344_AdjustorThunk
iX:__GLOBAL__sub_I_runtime_misc_0_cpp
epd:_String_JoinUnchecked_m1880555587
UGa:__ZNK9ShaderLab7Program21GetMatchingSubProgramEPK6ShaderPKNS_4PassERK16ShaderKeywordSetjPS7_R19ShaderSnippetResult
Bje:_Array_InternalArray__Insert_TisKeyValuePair_2_t1174980068_m2464431954_gshared
ohc:__Z49Register_UnityEngine_Resources_GetBuiltinResourcev
IRc:_tt_cmap10_char_index
LAd:_Dropdown_Awake_m335654827
SJh:_Dictionary_2_U3CCopyToU3Em__0_m1479035402_gshared
rTd:_BitArray_set_Item_m3801461194
TYi:__ZN15dense_hashtableINSt3__24pairIK10KeyWrapperIPK22Il2CppGenericParameterEP11Il2CppClassEES6_N6il2cpp5utils11PointerHashIS4_EEN14dense_hash_mapIS6_S9_SE_NS6_14EqualsComparerINS0_8equal_toIS5_EEEENS0_9allocatorISA_EEE9SelectKeyESJ_SL_E3endEv
Pod:_String_Remove_m3580114465
eCi:_GUIUtility_EndGUIFromException_m3100752188
wP:__ZN11AudioSource24ClearExtensionPropertiesE12PropertyName
Dfb:__ZN9ShaderLab22SerializedBindChannels8TransferI19StreamedBinaryWriteILb0EEEEvRT_
fpb:__ZN15SerializeTraitsI5RectTIiEE8TransferI14SafeBinaryReadEEvRS1_RT_
r9g:__Z82RuntimeInvoker_Int32_t2071877448_RuntimeObject_Int32_t2071877448_Int16_t4041245914PFvvEPK10MethodInfoPvPS4_
smc:__ZN5IMGUI20MoveWindowFromLayoutER8GUIStateiRK5RectTIfE
FNc:_UNITY_FT_Stream_ReadUShort
dHd:_InputField_OnEnable_m3797157569
Afc:__Z51Register_UnityEngine_GUILayer_INTERNAL_CALL_HitTestv
XQa:__ZNSt3__26__treeINS_12__value_typeIN4core12basic_stringIcNS2_20StringStorageDefaultIcEEEES6_EENS_19__map_value_compareIS6_S7_NS_4lessIS6_EELb1EEE13stl_allocatorIS7_L18MemLabelIdentifier1ELi16EEE7destroyEPNS_11__tree_nodeIS7_PvEE
QRi:_Nullable_1__ctor_m796575255_gshared
oyj:__ZN6il2cpp2vm8Profiler7GCEventE13Il2CppGCEvent
C1d:_DateTimeUtils_ToString_m3878360633
xjj:__ZN15dense_hashtableINSt3__24pairIK10KeyWrapperIP11Il2CppClassES4_EES5_N6il2cpp8metadata16SZArrayClassHashEN14dense_hash_mapIS5_S4_SA_NS5_14EqualsComparerINS9_19SZArrayClassCompareEEENS0_9allocatorIS7_EEE9SelectKeyESE_SG_E4findERS6_
Kkj:__ZN6il2cpp6icalls8mscorlib6SystemL16ThrowInvalidCastEPK11Il2CppClassS5_
qha:__Z13IsDepthFormat14GraphicsFormat
x6a:__ZN12AspectRatios8TransferI24GenerateTypeTreeTransferEEvRT_
Eei:_Bounds_GetHashCode_m458298790
nKc:__Z12FormatBufferPciPKcz
Rvd:_TouchInputModule_Process_m1373751353
rUg:_MethodBuilder_Invoke_m1874904900
dZi:__ZN6il2cpp2vm5Class13GetArrayClassEP11Il2CppClassj
JFb:__ZN19RuntimeSceneManager18LoadSceneAsyncIntoER10UnitySceneRKN4core12basic_stringIcNS2_20StringStorageDefaultIcEEEENS_11LoadingModeEb
uRg:_DerivedType_InvokeMember_m4149586013
UAf:_TlsStream_SetLength_m1460039587
zmc:__ZN11IMGUIModule12AddGUIScriptER8ListNodeI13MonoBehaviourE
rb:invoke_difi
c5:__ZL50StaticRegisterSceneLoadedCallback_LightmapSettingsPv
y5g:__Z119RuntimeInvoker_Void_t1841601450_RuntimeObject_RuntimeObject_RuntimeObject_RuntimeObject_Int32_t2071877448_RuntimeObjectPFvvEPK10MethodInfoPvPS4_
Qm:FUNCTION_TABLE_iiffi
ODd:_GridLayoutGroup_get_cellSize_m1061731753
Qga:__ZN21GLESGpuProgramApplier11ApplyVectorERKN20GpuProgramParameters14ValueParameterEPK8Vector4ft
I5c:__ZN22BaseUnityConnectClient17SaveSessionValuesEv
_bi:_Parser_IsIgnoreCase_m4155598997
oAi:_GUILayoutUtility_LayoutSingleGroup_m3024581181
TTc:_cff_size_done
mTb:__ZN29ExtractProjectionPlanesHelperILb1EE5ApplyERK10Matrix4x4fP5Plane
PJb:__ZN22RenderingCommandBuffer13GetAndCheckRTE24BuiltinRenderTextureTypeRKN9ShaderLab16FastPropertyNameEPKcPP13RenderTexture
tXb:__ZN6Camera34UpdatePreviousViewProjectionMatrixEv
uQa:__ZN9ShaderLab11ShaderState25RemoveUnsupportedProgramsEPK6Shader
xgb:__ZL23AddGpuProgramParametersR20GpuProgramParametersRKNSt3__26vectorIN9ShaderLab20SerializedSubProgram15MatrixParameterENS1_9allocatorIS5_EEEERKNS2_INS4_15VectorParameterENS6_ISB_EEEEiP16PropertyNamesSet
xjc:__Z44Register_UnityEngine_Object_DestroyImmediatev
tgg:__ZL62_ConstructorBuilder_t1236878896_CustomAttributesCacheGeneratorP21CustomAttributesCache
eac:__Z26scripting_class_has_parent17ScriptingClassPtrS_
HHe:_Int64_System_IConvertible_ToInt16_m2022633688_AdjustorThunk
sTe:_OrdinalComparer__ctor_m2952942058
Kwi:_Transform_INTERNAL_get_localPosition_m130325652
cQ:__Z71Register_UnityEngine_AudioSource_INTERNAL_CALL_ClearExtensionPropertiesv
MGj:__ZN6il2cpp8metadata25Il2CppGenericClassCompare7CompareEPK18Il2CppGenericClassS4_
nC:__ZNK8Animator20IsInMatchTargetStateEv
oH:__ZN13AudioListener23VirtualRedirectTransferER24GenerateTypeTreeTransfer
Fm:FUNCTION_TABLE_viiifiii
enc:__Z36Register_UnityEngine_GUI_set_changedv
Wyd:_ColorTween_get_startColor_m278546349_AdjustorThunk
ZWf:_Encoding_get_Unicode_m1382741113
zei:_Behaviour_set_enabled_m602406666
d5h:_LifetimeServices_set_SponsorshipTimeout_m1403222216
KQd:_Char_ToString_m1401375624_AdjustorThunk
ihe:_Array_InternalArray__ICollection_Add_TisTableRange_t2011406615_m147373358_gshared
KZd:_Convert_ToDateTime_m1251728572
khe:_Array_InternalArray__ICollection_Add_TisBoolean_t3825574718_m1009318882_gshared
Skf:_ReadOnlyCollection_1_System_Collections_IList_set_Item_m1149349508_gshared
yw:__ZN27AnimationLayerMixerPlayable18SetInputConnectionEP8Playablei
hw:__ZN7mecanim28TransformValueArrayBlendNodeEiiiRKNS_10ValueArrayERKNS_14ValueArrayMaskERS0_RS3_RNS_16ValueArrayWeightEf
VRf:_ObjectReader_ReadObjectContent_m3949770110
Oli:_Mesh_get_colors32_m1054093013
E_i:__ZN6il2cpp2vm5Class40GetInterfaceInvokeDataFromVTableSlowPathEPK12Il2CppObjectPK11Il2CppClassj
HLa:__ZN20TierGraphicsSettings8TransferI18StreamedBinaryReadILb0EEEEvRT_
Dyh:_Text_get_font_m3115501113
Rjj:__GLOBAL__sub_I_Thread_cpp
dRa:__ZN14SafeBinaryRead8TransferINSt3__24pairIN9ShaderLab16FastPropertyNameE10ColorRGBAfEEEEvRT_PKc17TransferMetaFlags
AUi:__ZL9rshift128PyS_
PRf:_ObjectReader_RecordFixup_m1893348030
Qoe:_LayoutGroup_SetProperty_TisRuntimeObject_m1703476175_gshared
oSg:_EnumBuilder_GetElementType_m1228393631
Fhj:__ZN14dense_hash_mapI10KeyWrapperINSt3__24pairIPK12PropertyInfoP11Il2CppClassEEEj17ReflectionMapHashIS8_ENS9_14EqualsComparerINS1_8equal_toIS8_EEEENS1_9allocatorINS2_IKS9_jEEEEE13set_empty_keyERSH_
Rg:_glRenderbufferStorage
ipj:__ZNK15dense_hashtableINSt3__24pairIK10KeyWrapperINS1_IPKcS4_EEEiEES6_24NamespaceAndNamePairHashN14dense_hash_mapIS6_iS9_NS6_14EqualsComparerI26NamespaceAndNamePairEqualsEENS0_9allocatorIS8_EEE9SelectKeyESD_SF_E13find_positionERS7_
egc:__Z45Register_UnityEngine_Input_get_touchSupportedv
M6c:__ZN11UnityEngine15PlatformWrapper28GetTextureFormatSupportFlagsEv
xPc:_UNITY_FT_Create_Class_pshinter_module_class
mod:_String_CompareOrdinalCaseInsensitiveUnchecked_m2002640463
cOd:_Boolean_GetHashCode_m1894638460
vUc:_cf2_setError
mZf:_UTF7Encoding_InternalGetChars_m4157428055
$9a:__Z33InterpolateLightProbeCoefficientsRK17LightProbeContextRK29LightProbeSamplingCoordinatesR20SphericalHarmonicsL2
CCh:_Enumerator_Reset_m3129803197_AdjustorThunk
gIb:__ZZ23InitPlayerLoopCallbacksvEN35PreUpdateSendMouseEventsRegistrator7ForwardEv
qwe:_SmallXmlParser_HandleBufferedContent_m3397096753
efa:__ZNK6Camera25GetNormalizedViewportRectEP13RenderTextureb
ch:_glDisable
lId:_InputField_OnDeselect_m3963675647
IPa:__ZN13RenderTexture8TransferI24GenerateTypeTreeTransferEEvRT_
Dxj:__ZN6il2cpp5utils11StringUtils15StringDuplicateEPKDsj
pJf:_BaseMachine_Scan_m122450399
fv:__ZN17AnimationPlayable17ProcessRootMotionEP35AnimationPlayableEvaluationConstantP32AnimationPlayableEvaluationInputP33AnimationPlayableEvaluationOutput
vRd:_ArrayList_CopyTo_m2353632788
jji:_GameObject_get_activeSelf_m2643917226
V4:__ZNSt3__26vectorINS_4pairIyP17VertexDeclarationEENS_9allocatorIS4_EEE6assignIPS4_EENS_9enable_ifIXaasr21__is_forward_iteratorIT_EE5valuesr16is_constructibleIS4_NS_15iterator_traitsISB_E9referenceEEE5valueEvE4typeESB_SB_
$Wj:b119
dJb:__ZNK8Material12GetPassCountEv
YWd:_Enumerator__cctor_m3784927209
RWj:b110
SWj:b111
TWj:b112
QLj:_bitshift64Ashr
WWj:b114
XWj:b115
YWj:b116
ZWj:b117
xHc:__ZN11Rigidbody2D23VirtualRedirectTransferER14SafeBinaryRead
Iia:__ZN4crnd12crn_unpacker22decode_alpha_endpointsEv
STb:__Z23CullDynamicObjectsUmbraPK4AABBPKN5Umbra15OcclusionBufferER9IndexList
Xx:__ZThn148_NK26AnimatorControllerPlayable41GetStateMachineBehaviourVectorDescriptionEv
xRc:_tt_cmap4_char_next
Vki:_Mathf_Approximately_m1944881077
xfh:__Z444RuntimeInvoker_Boolean_t3825574718_RuntimeObject_RuntimeObject_RuntimeObject_ColorU26_t3402129837_Int32_t2071877448_Single_t2076509932_Single_t2076509932_Int32_t2071877448_SByte_t454417549_SByte_t454417549_Int32_t2071877448_Int32_t2071877448_Int32_t2071877448_Int32_t2071877448_SByte_t454417549_Int32_t2071877448_Single_t2076509932_Single_t2076509932_Single_t2076509932_Single_t2076509932_SByte_t454417549_SByte_t454417549_UInt32U26_t2197289955PFvvEPK10MethodInfoPvPS4_
mni:_GeneralNames_ToString_m800435094
Pwd:_BaseMeshEffect_OnDidApplyAnimationProperties_m2484799839
Tpd:_ASCIIEncoding_GetString_m3931709239
Oyi:_Vector4_Equals_m2166390052
fui:_RectTransform_SetInsetAndSizeFromParentEdge_m2595554673
HW:__GLOBAL__sub_I_runtime_assetbundles_1_cpp
EI:__ZN4FMOD7Channel11setPositionEjj
Wh:_glBindSampler
VAj:_GC_reclaim_block
fmf:_ReadOnlyCollection_1_System_Collections_Generic_ICollectionU3CTU3E_Clear_m964488020_gshared
_h:_glGetVertexAttribiv
ood:_String_IndexOfAny_m2027595557
mhe:_Array_InternalArray__ICollection_Add_TisChar_t3454481338_m422084244_gshared
H_c:__ZN2UI11CanvasGroup23VirtualRedirectTransferER18StreamedBinaryReadILb0EE
Nvi:_Texture__ctor_m1220114221
Ptc:__ZN8JSONRead8TransferIbEEvRT_PKc17TransferMetaFlagsb
wFf:_X509KeyUsageExtension_Decode_m3292847033
Egh:__Z52RuntimeInvoker_RaycastResult_t21186376_RuntimeObjectPFvvEPK10MethodInfoPvPS4_
vXg:_Module_filter_by_type_name_ignore_case_m3574895736
XVa:__ZN26CustomRenderTextureManager19PreAllocateMaterialEP19CustomRenderTexture
vRf:_ObjectReader_ReadObject_m397855326
yzj:_GC_promote_black_lists
PEd:_Image_get_fillAmount_m3354146540
Duc:__Z29Transfer_Blittable_ArrayFieldI8JSONRead8Vector4fEvRT_R9ArrayInfoRK23StaticTransferFieldInfo
Zn:FUNCTION_TABLE_vf
yo:FUNCTION_TABLE_vd
s2f:_Type_GetMethod_m1930231379
Ao:FUNCTION_TABLE_vi
oY:__ZN13RuntimeStaticI37UnityShaderCompilerExtPluginConfigureLb0EE16StaticInitializeEPv
k8c:__ZN11UnityEngine7Connect17DeviceStatusEvent20SetDeviceAspectRatioEf
Gre:_SimpleCollator_GetContraction_m1391584430
fOd:_CultureInfo_get_InvariantCulture_m398972276
HNd:_Boolean_System_IConvertible_ToInt64_m4142756949_AdjustorThunk
TE:__ZNK8Animator17HasBoundPlayablesEv
hIc:__ZN17Physics2DSettings8TransferI24GenerateTypeTreeTransferEEvRT_
coc:__ZN5Unity9rapidjson13GenericReaderINS0_4UTF8IcEES3_13JSONAllocatorE10ParseFalseILj0ENS0_19GenericStringStreamIS3_EENS0_15GenericDocumentIS3_S4_S4_EEEEvRT0_RT1_
aqf:_HMAC_initializePad_m3828610671
bhd:_RSAParameters_t1462703416_marshal_pinvoke_cleanup
W6i:__ZN6il2cpp2vm7Runtime9SetConfigEPKc
Hoc:__ZN5Unity9rapidjson12PrettyWriterI16TempBufferWriterNS0_4UTF8IcEES4_13JSONAllocatorE10StartArrayEv
ua:invoke_iiifiii
mmj:__ZN6il2cpp2vm9Exception11FromNameMsgEPK11Il2CppImagePKcS6_S6_
d2f:_Type_internal_from_name_m1506974323
gn:FUNCTION_TABLE_fiiifii
nE:__ZN10HumanTrait15InitializeClassEv
c7:__Z14GetTimeManagerv
F$b:__ZneRK20SpriteTilingPropertyS1_
Hbd:__ZN19TransportJavaScript7CleanupEv
OCa:__Z12GUIDToStringRK9UnityGUIDPc
SL:__ZN11AudioSource22UnmuteActiveVideoSinksEv
Axj:__ZN4utf88internal20is_overlong_sequenceIiEEbjT_
Ui:_glReadBuffer
CEa:__Z9SetLocalR15TransformAccessRKN4math7_float4Ey
LSd:_SynchronizedArrayListWrapper_get_Count_m4104930530
KPb:__Z30SetupBakedOcclusionForGeometrybRK26SharedLightmapSettingsDataRK15LightmapIndicesR17ShaderPassContext
ckd:_SecurityPermission_IsSubsetOf_m1087302418
cec:__Z41Register_UnityEngine_Cursor_get_lockStatev
Czi:_Event_Internal_GetMousePosition_m2992465246
gPb:__Z14SetupLightmapsRK8Vector4fS1_R17ShaderPassContext
dgj:__ZN14dense_hash_mapI10KeyWrapperIPK14Il2CppAssemblyEPK22Il2CppMonoAssemblyNameN6il2cpp5utils11PointerHashIS2_EENS4_14EqualsComparerINSt3__28equal_toIS3_EEEENSD_9allocatorINSD_4pairIKS4_S7_EEEEE13set_empty_keyERSJ_
bLf:_Interval_get_Empty_m3170923997
EOa:__ZL20InitializeGUIShadersv
T1b:__Z20DestroyObjectDelayedP6Objectf
UV:__ZN20DynamicHeapAllocatorI17LowLevelAllocatorED0Ev
AHd:_InputField_OnDrag_m726194348
wAc:__ZN10ClipperLib11ClipperBase5ResetEv
Ose:_PreviousInfo__ctor_m1442166472_AdjustorThunk
DMb:__ZN9DepthPassD2Ev
RQi:_TextGenerator_get_rectExtents_m954923136
xH:__ZN11AudioFilter6GetDSPEv
Z_:__ZN19RuntimeSceneManager14CanUnloadSceneEP10UnityScene
z8g:__Z50RuntimeInvoker_Single_t2076509932_Int64_t909078037PFvvEPK10MethodInfoPvPS4_
FMb:__Z22ExtractRenderNodeQueueRK11CullResults15ExtractionFlagsR15RenderNodeQueue
ule:_Array_InternalArray__set_Item_TisContentType_t1028629049_m703420360_gshared
j6e:_List_1_set_Item_m1431784996_gshared
EG:__ZN24AudioScriptBufferManagerC2Ev
Lvc:__ZN11UnityEngine9Analytics18SceneLoadTimeEvent12ToJsonStringER9JSONWrite
zMc:__ZNSt3__26vectorIh13stl_allocatorIhL18MemLabelIdentifier1ELi16EEE8__appendEj
n2g:__Z95RuntimeInvoker_Void_t1841601450_RuntimeObject_Int32_t2071877448_Int32_t2071877448_RuntimeObjectPFvvEPK10MethodInfoPvPS4_
Vnc:__ZN8JSONRead32GetValueForKeyWithNameConversionEPKN5Unity9rapidjson12GenericValueINS1_4UTF8IcEE13JSONAllocatorEEPKc
CMc:__ZN20TextRenderingPrivate8FontImpl16ResetPackingDataEv
Zfe:_Array_InternalArray__IndexOf_TisLink_t865133271_m3612939760_gshared
Hji:_Input_get_mousePresent_m1100327283
Cpc:__Z18Transfer_BlittableI9JSONWriteLb0EfEvRK29SerializationCommandArgumentsR31RuntimeSerializationCommandInfo
_ha:__Z21GetAsyncUploadManagerv
Lj:_emscripten_glDetachShader
Nqe:_SafeHandleZeroOrMinusOneIsInvalid_get_IsInvalid_m2033528032
wQd:_Char_IsUpper_m4083577610
Oha:__ZN17GenericDynamicVBO20ReleaseChunkInternalERK21DynamicVBOChunkHandlejj
lZc:__ZL27CleanupModule_TextRenderingv
Mqe:_SafeHandleZeroOrMinusOneIsInvalid__ctor_m3340306667
pIj:_fmodl
VSf:_SerializationInfo_AddValue_m902275108
DIj:_fmodf
rwb:__Z18Transfer_BlittableI18StreamedBinaryReadILb1EELb1E4AABBEvRK29SerializationCommandArgumentsR31RuntimeSerializationCommandInfo
Pva:__ZN12CachedWriter11Align4WriteEv
JNb:__Z20DoDeferredRenderLoopR17RenderLoopContextR13dynamic_arrayI16RenderObjectDataLj4EES4_RK11CullResultsRP13RenderTextureSA_Pb
NFb:__ZN19RuntimeSceneManager11CreateSceneEv
Wxi:_Vector2_op_Implicit_m385881926
JTc:_ps_get_standard_strings
JPb:__Z27SetupBakedOcclusionForLightbRK15SharedLightDataR17ShaderPassContext
$Ej:__ZN6il2cpp2os5Mutex6UnlockEv
Rvh:_ScrollRect_OnScroll_m3346515304
OVe:_Enumerator_System_Collections_IEnumerator_get_Current_m3461301268_gshared
MIh:_Dictionary_2_CopyToCheck_m1638253305_gshared
FJb:__Z18RenderImageFiltersR10RenderLoopb
mW:__Z19free_alloc_internalPv18MemLabelIdentifier
X1c:__Z43CanvasRenderer_Get_Custom_PropMaterialCountP12Il2CppObject
UPb:__ZNSt3__227__insertion_sort_incompleteIR23CompareReflectionProbesP31RuntimeReflectionProbeBlendInfoEEbT0_S5_T_
Ohf:_ReadOnlyCollection_1_System_Collections_Generic_IListU3CTU3E_set_Item_m25653560_gshared
Yuc:__ZN8JSONRead21TransferSTLStyleArrayI13dynamic_arrayI11QuaternionfLj4EEEEvRT_17TransferMetaFlags
cLg:__ZL68Selectable_t1490392188_CustomAttributesCacheGenerator_m_InteractableP21CustomAttributesCache
asf:_CertificateSelectionCallback_Invoke_m2902629105
v4:__ZN10InputEventD2Ev
OYd:_DateTimeFormatInfo_GetAllDateTimePatternsInternal_m1587126173
aGe:_NumberFormatter_Append_m3268121457
Mga:__ZN15dense_hashtableINSt3__24pairIK9TextureIDiEES2_N12TextureIdMap20TextureIDHashFunctorEN14dense_hash_mapIS2_iS6_NS0_8equal_toIS2_EE13stl_allocatorIS4_L18MemLabelIdentifier67ELi16EEE9SelectKeyES9_SC_E12resize_deltaEjj
Tbd:__ZN22UnityWebRequestManagerD2Ev
Mgd:_RSA_ToXmlString_m4145056574
Q6d:_Double_System_IConvertible_ToUInt64_m1318285078_AdjustorThunk
WHj:_isalpha
xuh:_Selectable_FindSelectable_m2739582497
$xc:__ZNK12b2MotorJoint17GetReactionTorqueEf
E1d:_DateTimeUtils_ZeroPad_m86470512
t4g:__Z94RuntimeInvoker_Void_t1841601450_RuntimeObject_Int32_t2071877448_RuntimeObject_SByte_t454417549PFvvEPK10MethodInfoPvPS4_
S4i:__ZN6il2cpp2vmL17IsSocketAsyncCallEP14Il2CppDelegate
yJc:__Z13RegisterClassI11Rigidbody2DEvv
_wj:__ZN6il2cpp2vm6String6NewLenEPKcj
ODb:__ZN17PersistentManager9AddStreamEv
$k:_time
Kli:_Mesh_get_uv_m1990385212
Vqi:_PlayableOutput_Equals_m2167434642_AdjustorThunk
oDd:_Graphic_UnregisterDirtyLayoutCallback_m1724443555
KEa:__ZN14BatchAllocator6CommitE18MemLabelIdentifier
bVc:_cf2_stack_free
Vsd:_ExecuteEvents_get_pointerClickHandler_m713983310
Vtc:__ZN8JSONRead21TransferSTLStyleArrayI13dynamic_arrayIyLj8EEEEvRT_17TransferMetaFlags
Vu:__ZN7mecanim9animation19EvaluateFloatValuesEPKNS0_18ClipMuscleConstantEPKNS_18ValueArrayConstantEPKNS0_12ClipBindingsEPKNS0_10ClipOutputEPNS0_18AnimationNodeStateEfbb
UC:__ZN8Animator31ClearInternalControllerPlayableEv
M6f:_WeakReference_Finalize_m3318354542
_Da:__ZN10GameObject8TransferI24GenerateTypeTreeTransferEEvRT_
rWe:_Enumerator_VerifyState_m3913376581_gshared
Xbj:__ZN15dense_hashtableINSt3__24pairIK10KeyWrapperINS1_IPK9FieldInfoP11Il2CppClassEEEjEES9_17ReflectionMapHashIS8_EN14dense_hash_mapIS9_jSD_NS9_14EqualsComparerINS0_8equal_toIS8_EEEENS0_9allocatorISB_EEE9SelectKeyESI_SK_E4findERSA_
OVj:_glDeleteSync__wrapper
i_d:_Decimal_op_Implicit_m623319612
zFh:_ValueCollection_System_Collections_Generic_ICollectionU3CTValueU3E_Remove_m98888100_gshared
hsd:_EventTrigger_OnPointerExit_m2119176877
u$f:_ThreadAbortException__ctor_m1623816114
R2b:__ZN13ProduceHelperI30RuntimeInitializeOnLoadManagerLb0EE7ProduceE18MemLabelIdentifier18ObjectCreationMode
uVb:__ZN13RenderTexture19SetAutoGenerateMipsEb
qja:__Z20GetTextureFormatInfo13TextureFormat
M4g:__Z119RuntimeInvoker_RuntimeObject_RuntimeObject_RuntimeObject_Int32_t2071877448_Int32_t2071877448_MonoIOErrorU26_t1029615899PFvvEPK10MethodInfoPvPS4_
Ix:__ZN26AnimatorControllerPlayable8GetFloatEiRf
ssh:_Shadow__ctor_m924057531
Xtd:_PointerEventData_set_worldPosition_m192283671
tDj:__ZN6il2cpp5utils10MemoryPool6MallocEj
YF:__ZN11SoundHandle8InstanceD2Ev
E7:__ZN31CanvasBatchIntermediateRenderer13StaticDestroyEPv
oqi:_X509Store_BuildCrlsCollection_m52567568
C0:__ZNSt3__23mapIiP15MonoScriptCacheNS_4lessIiEE13stl_allocatorINS_4pairIKiS2_EEL18MemLabelIdentifier78ELi16EEEixERS7_
wyf:_RecordProtocol_InternalSendRecordCallback_m3984764857
Ype:_Array_InternalArray__get_Item_TisUICharInfo_t3056636800_m3872982785_gshared
Qli:_Mesh_SetNormals_m2780518036
z7d:_Enum_ToString_m662345249
Ddh:__Z150RuntimeInvoker_Single_t2076509932_Single_t2076509932_Single_t2076509932_SingleU26_t4173844468_Single_t2076509932_Single_t2076509932_Single_t2076509932PFvvEPK10MethodInfoPvPS4_
$dc:__Z41Register_UnityEngine_CullingGroup_Disposev
IUa:__ZN7Cubemap23VirtualRedirectTransferER19StreamedBinaryWriteILb0EE
nBa:__ZN25MultiBlocksMemoryFileData5WriteEyyPKv
lzc:__ZNK13b2PulleyJoint16GetReactionForceEf
F1e:_List_1_System_Collections_IList_Add_m4271264217_gshared
$gj:__ZN14dense_hash_mapI10KeyWrapperIPK10Il2CppTypeEjN6il2cpp8metadata14Il2CppTypeHashENS4_14EqualsComparerINS6_26Il2CppTypeEqualityComparerEEENSt3__29allocatorINSB_4pairIKS4_jEEEEE13set_empty_keyERSE_
ana:__ZL17ProgramUniform2fvPK7ApiGLESjiihPKv
sTj:b83
uMc:__ZN20TextRenderingPrivate8FontImpl21HasCharacterInTextureEjijfPj
qJj:_htonl
Aea:__Z20GetBufferManagerGLESv
iAb:__ZN18StreamedBinaryReadILb0EE21TransferSTLStyleArrayI31ArrayOfManagedObjectsTransfererEEvRT_17TransferMetaFlags
xZf:_UTF7Decoder_GetChars_m2790530452
Nsc:__Z18Transfer_BlittableI8JSONReadLb0EtEvRK29SerializationCommandArgumentsR31RuntimeSerializationCommandInfo
Vyh:_Text_set_fontSize_m2101304336
lPc:_pshinter_module_class_pic_free
mKg:__ZL68Navigation_t1571958496_CustomAttributesCacheGenerator_m_SelectOnLeftP21CustomAttributesCache
ry:__ZN34AnimationStateMachineMixerPlayable13EndTransitionEv
fI:__ZN12AudioManager21FixMasterGroupRoutingEv
Lid:_SymmetricAlgorithm_set_Key_m2973350820
NHc:__ZN6b2Body9SetActiveEb
FIg:__ZL58FontData_t2614388407_CustomAttributesCacheGenerator_m_FontP21CustomAttributesCache
GEf:_WebHeaderCollection_IsHeaderValue_m1723393133
ELc:__ZN20TextRenderingPrivate8FontImpl13CharacterInfo8TransferI24GenerateTypeTreeTransferEEvRT_
huj:__ZN6il2cpp2os10ThreadImpl33UnregisterCurrentThreadForCleanupEv
Bw:__ZN27AnimationLayerMixerPlayable22PrepareAnimationEventsEfR13dynamic_arrayI22AnimationClipEventInfoLj4EE
zmb:__Z18Transfer_BlittableI14SafeBinaryReadLb1E4AABBEvRK29SerializationCommandArgumentsR31RuntimeSerializationCommandInfo
qtj:__ZN6il2cpp6icalls8mscorlib6System4Enum12get_hashcodeEP12Il2CppObject
wCj:_GC_set_no_dls
QGj:__ZN6il2cpp8metadata26Il2CppGenericMethodCompare6EqualsEPK19Il2CppGenericMethodS4_
V5:__Z22CreateMutexLockedQueue18MemLabelIdentifier
MG:__ZN9AudioClip7WWWOpenEPKciPjPPvS4_
qmb:__Z18Transfer_BlittableI14SafeBinaryReadLb0E8Vector2fEvRK29SerializationCommandArgumentsR31RuntimeSerializationCommandInfo
qle:_Array_InternalArray__set_Item_TisPlayableBinding_t2498078091_m2071396616_gshared
xOe:_SynchronizedReader_Peek_m282642073
vdb:__ZN15SerializeTraitsIN9ShaderLab20SerializedSubProgram16TextureParameterEE8TransferI14SafeBinaryReadEEvRS2_RT_
IOd:_Byte_System_IConvertible_ToInt16_m1575115635_AdjustorThunk
WWi:_Physics2D_Raycast_m298439588
gyi:_Vector3_set_Item_m2026854946_AdjustorThunk
G5h:_Context_get_HasGlobalDynamicSinks_m3205328884
dse:_SimpleCollator_CompareQuick_m619038530
pAf:_SslStreamBase_EndRead_m1072850679
ld:_SDL_GetTicks
Zze:_X509CertificateEnumerator_System_Collections_IEnumerator_get_Current_m1643583406
joa:__ZN18GfxFramebufferGLES20CleanupFBOMapForRBIDERKj
Qdj:__ZN15dense_hashtableINSt3__24pairIK10KeyWrapperINS1_IPK11Il2CppImageP11Il2CppClassEEEjEES9_17ReflectionMapHashIS8_EN14dense_hash_mapIS9_jSD_NS9_14EqualsComparerINS0_8equal_toIS8_EEEENS0_9allocatorISB_EEE9SelectKeyESI_SK_E6insertERKSB_
xTb:__Z21CreateShadowCullerJobP30CreateUmbraShadowCullerJobData
Uma:__ZL18ProgramUniform2uivPK7ApiGLESjiihPKv
NLi:_AudioConfigurationChangeHandler_BeginInvoke_m1585211075
vQb:__Z33GenerateShadowCasterPartsSortDataRK16ShadowCasterDatajRK15RenderNodeQueueRKNSt3__26vectorI20ShadowCasterPartData13stl_allocatorIS7_L18MemLabelIdentifier2ELi16EEEERK10Matrix4x4fRjP20ShadowCasterSortData
vji:_GUILayer_INTERNAL_CALL_HitTest_m381183969
JXi:_U3CSpawnBombsU3Ec__Iterator0_Reset_m2935103816
iEi:_UnityAction_2_Invoke_m319876726_gshared
upb:__Z29Transfer_Blittable_ArrayFieldI14SafeBinaryRead9BoundsIntEvRT_R9ArrayInfoRK23StaticTransferFieldInfo
CKh:_Dictionary_2_ToTKey_m4209561517_gshared
pUc:_cf2_computeDarkening
Uzj:_GC_expand_hp_inner
mc:invoke_viiiififfi
Xec:__Z25Screen_Get_Custom_PropDpiv
QDd:_GridLayoutGroup_get_spacing_m1909275195
pxj:__ZN4utf812find_invalidIPKcEET_S3_S3_
VIf:_X509ExtensionCollection_System_Collections_ICollection_CopyTo_m3421329346
mzj:_GC_err_printf
$Sg:_FieldBuilder_SetValue_m3109503557
zCd:_Graphic_OnBeforeTransformParentChanged_m1866292273
MGf:_X509Certificate2_Verify_m1574874641
WS:__ZN11UnityEngine15CloudWebService20WebRequestRestClient7PrepareEv
DHg:__ZL58PhysicsRaycaster_t249603239_CustomAttributesCacheGeneratorP21CustomAttributesCache
iMc:__ZN20TextRenderingPrivate19NativeTextGenerator23FixLineHorizontalOffsetEiii
QWd:_SortedList_GetEnumerator_m1318483481
nAi:_GUILayoutUtility_LayoutFreeGroup_m2224160855
cLd:_Array_CreateInstance_m3327690220
Bz:__ZN7mecanim9animation19DestroyAnimationSetEPNS0_12AnimationSetERNS_6memory9AllocatorE
tPj:_emscripten_glDepthRange__wrapper
D1:__ZN14SerializedFile7ReleaseEv
KQi:_TextGenerator__ctor_m1469954680
Fkb:__ZN16MemoryFileSystem4OpenER13FileEntryData14FilePermission16FileAutoBehavior
r7:__ZN13RuntimeStaticI13RendererSceneLb0EE13StaticDestroyEPv
Dsb:__Z18Transfer_BlittableI24GenerateTypeTreeTransferLb1E12PropertyNameEvRK29SerializationCommandArgumentsR31RuntimeSerializationCommandInfo
v5a:__ZN14SafeBinaryRead21TransferSTLStyleArrayI10vector_mapIPKN5Unity4TypeE7Hash128NSt3__24lessIS5_EENS7_9allocatorINS7_4pairIS5_S6_EEEEEEEvRT_17TransferMetaFlags
LG:__ZN9AudioClip18GetQueuedAudioDataEPPvj
$Yc:__ZN20TextRenderingPrivate21TextMeshGeneratorImpl14GarbageCollectEv
C8b:__ZNK9Texture2D17CheckHasPixelDataEv
cHc:__ZN15b2ContactSolver13StoreImpulsesEv
qub:__Z18Transfer_BlittableI19StreamedBinaryWriteILb0EELb0E9BoundsIntEvRK29SerializationCommandArgumentsR31RuntimeSerializationCommandInfo
mMb:__Z18SetShadowsKeywordsR17ShaderPassContext9LightType10ShadowType16ShadowProjectionbb
Ehj:__ZN14dense_hash_mapI10KeyWrapperINSt3__24pairIPK12PropertyInfoP11Il2CppClassEEEj17ReflectionMapHashIS8_ENS9_14EqualsComparerINS1_8equal_toIS8_EEEENS1_9allocatorINS2_IKS9_jEEEEEC2EjRKSB_RKSF_
W4b:__ZN17CollisionMeshDataC2Ev
L7h:_Regex_get_RightToLeft_m529734879
svh:_ScrollRect_SetDirty_m93243192
jWa:__ZN16LightmapSettings23VirtualRedirectTransferER19StreamedBinaryWriteILb0EE
xIb:__ZZ23InitPlayerLoopCallbacksvEN47PostLateUpdateMemoryFrameMaintenanceRegistrator7ForwardEv
Do:FUNCTION_TABLE_viiififii
FAj:_GC_push_next_marked
mab:__ZN18IDCollectorFunctor18GenerateInstanceIDEi17TransferMetaFlags
HMe:_MonoIO__cctor_m2398680849
bHc:__ZN15b2ContactSolver9WarmStartEv
lGe:_NumberFormatter_ToDecHex_m1474793296
Pgh:__Z74RuntimeInvoker_Int32_t2071877448_RaycastHit_t87180320_RaycastHit_t87180320PFvvEPK10MethodInfoPvPS4_
oxa:__ZN14StackAllocatorD0Ev
nkj:__ZN6il2cpp2vm6Thread8SetStateEP12Il2CppThreadNS0_11ThreadStateE
xji:_Input_GetAxis_m948504553
qTe:_OperatingSystem_Clone_m1943707477
_Bd:_FontData_set_richText_m29558601
L$f:_Scheduler_Change_m4063588742
sme:_Array_Resize_TisVector2_t2243707579_m1117258774_gshared
$2:__ZNSt3__27__sort4IRNS_6__lessI14ObjectLoadDataS2_EEPS2_EEjT0_S6_S6_S6_T_
UKb:__ZNK25CameraStackRenderingState16GetCurrentCameraEv
ibc:__Z22PlayableValidityChecksRK9HPlayableb
X6a:__ZN15ResourceManagerD2Ev
n0e:_List_1_Insert_m2532850849_gshared
Qdc:__Z41Register_UnityEngine_Camera_GetAllCamerasv
Qrh:_MaskableGraphic_OnCanvasHierarchyChanged_m2012659245
Cia:__ZN4crnd12crn_unpacker10unpack_dxnEPPhjjjjjj
W8c:__ZN28PerformanceReportingSettings8TransferI14SafeBinaryReadEEvRT_
D_d:_Double_Parse_m2344589511
H7g:__Z78RuntimeInvoker_Boolean_t3825574718_IntPtr_t_Int32_t2071877448_SByte_t454417549PFvvEPK10MethodInfoPvPS4_
Vsc:__Z18Transfer_BlittableI8JSONReadLb1E5RectTIiEEvRK29SerializationCommandArgumentsR31RuntimeSerializationCommandInfo
llj:__ZN6il2cpp2vm22EmbeddedResourceRecordC2ERKS1_
DUa:__ZN9Texture2D13AwakeFromLoadE17AwakeFromLoadMode
wre:_MSCompatUnicodeTableUtil__cctor_m1479836795
Ybi:_PositionAssertion__ctor_m3703837499
nJd:_LayoutGroup_get_minWidth_m4111745491
_Ne:_StreamWriter_Initialize_m1707678624
Ksj:__ZN6il2cpp2vm3RCW14QueryInterfaceILb0EEEP14Il2CppIUnknownP15Il2CppComObjectRK10Il2CppGuid
lvh:_ScrollRect_set_verticalScrollbar_m2903688658
m3a:__ZThn328_N14SpriteRendererD0Ev
Yka:__ZN6prcoreL17RemapGenericFloatI15TexFormatRFloat18TexFormatARGBFloatEEvPKNS_9InnerInfoE
Lgg:__ZL50_Thread_t1894135853_CustomAttributesCacheGeneratorP21CustomAttributesCache
Zki:_Mathf__cctor_m2286160987
dEj:__GLOBAL__sub_I_Runtime_cpp_38944
LUh:_InternalEnumerator_1_get_Current_m1047712960_gshared
$9c:__ZN11UnityEngine15PlatformWrapper20GetPlayerPrefsUInt64ERKN4core12basic_stringIcNS1_20StringStorageDefaultIcEEEEy
XPb:__ZN20ReflectionProbeCacheC2ER13BatchRendererR15RenderLoopStats
f8:__ZN18AssetBundleManagerC2Ev
Djb:__ZNK12HandlerChain6ExistsERK13FileEntryData
Srg:__ZL61ExtensionAttribute_t1840441203_CustomAttributesCacheGeneratorP21CustomAttributesCache
$_d:_Convert_ToInt32_m2734833291
MQb:__Z30FindDirectAttenuationFromProbeP18ForwardLightsBlockbiRK10RenderNodeRK23FindForwardLightsParamsf
A4a:__ZN12InputManager23VirtualRedirectTransferER24GenerateTypeTreeTransfer
Iib:__ZN9Transform23VirtualRedirectTransferER24GenerateTypeTreeTransfer
Ngb:__ZNSt3__26vectorIN9ShaderLab20SerializedSubProgram12UAVParameterENS_9allocatorIS3_EEE21__push_back_slow_pathIKS3_EEvRT_
k4h:_CrossAppDomainChannel_RegisterCrossAppDomainChannel_m43456045
EIf:_X509ChainElement_Count_m228862214
t1f:_TimeZone_IsDaylightSavingTime_m1840774423
SWc:_UNITY_tt_size_ready_bytecode
hii:_InvokableCallList_ClearPersistent_m2011323876
WKc:__ZN13TextRendering4FontD2Ev
P_g:__Z47RuntimeInvoker_Single_t2076509932_RuntimeObjectPFvvEPK10MethodInfoPvPS4_
ONc:_UNITY_FT_Stream_Open
Ftb:__Z29Transfer_Blittable_ArrayFieldI24GenerateTypeTreeTransfer9BoundsIntEvRT_R9ArrayInfoRK23StaticTransferFieldInfo
SBa:__ZN10MemoryFile4ReadEyyPvPy
Ghb:__ZN8keywords18KeywordSetToStringERK16ShaderKeywordSetRN4core12basic_stringIcNS3_20StringStorageDefaultIcEEEE
taa:__ZN13GfxDeviceGLES26UpdateViewProjectionMatrixEv
Xei:_Bounds_op_Inequality_m1440807554
lF:__ZN4FMOD3DSP12setParameterEif
jEb:__ZN13MemoryManager16StaticInitializeEv
rcg:__ZL53StackFrame_t2050294881_CustomAttributesCacheGeneratorP21CustomAttributesCache
qf:___cxa_free_exception
glf:_ReadOnlyCollection_1_System_Collections_ICollection_CopyTo_m4126742951_gshared
mJ:__ZN4FMOD22FakeModChannelCallbackEPv
wf:_emscripten_glValidateProgram
_La:__ZN4Mesh10CreateMeshEv
Yej:__ZN6il2cpp2gc19AppendOnlyGCHashMapINSt3__24pairIPK9EventInfoP11Il2CppClassEEP21Il2CppReflectionEvent17ReflectionMapHashIS9_ENS2_8equal_toIS9_EEE3AddERKS9_SB_
cG:__ZN4FMOD7SystemI11createSoundEPKcjP22FMOD_CREATESOUNDEXINFOPPNS_5SoundE
IQf:_ArrayFixupRecord_FixupImpl_m2377725358
MUc:_cf2_stack_clear
q6d:_Double_System_IConvertible_ToBoolean_m4251806534_AdjustorThunk
_Ch:_ShimEnumerator_Reset_m2247049027_gshared
vAc:__ZN10ClipperLib11ClipperBase5ClearEv
vVb:__ZN7Texture13SetAnisoLevelEi
iR:__ZNSt3__26__treeINS_12__value_typeIN4core12basic_stringIcNS2_20StringStorageDefaultIcEEEEjEENS_19__map_value_compareIS6_S7_NS_4lessIS6_EELb1EEE13stl_allocatorIS7_L18MemLabelIdentifier88ELi16EEE7destroyEPNS_11__tree_nodeIS7_PvEE
XGf:_X509Chain_Process_m2508784250
c5e:_List_1_RemoveAt_m2929488689_gshared
Avc:__ZN27PerformanceReportingManager23VirtualRedirectTransferER24GenerateTypeTreeTransfer
CYc:_raccess_guess_vfat
c3c:__Z44Canvas_CUSTOM_GetETC1SupportedCanvasMaterialv
$Ka:__ZN11HaloManager10UpdateHaloEiR9Transform11ColorRGBA32fjP6Object
OY:__ZN33InstancedMeshIntermediateRenderer13StaticDestroyEPv
VEe:_Int16_Parse_m3012618547
Qnj:__ZN14dense_hash_mapI10KeyWrapperIP14Il2CppIUnknownEjN6il2cpp5utils11PointerHashIS1_EENS3_14EqualsComparerINSt3__28equal_toIS2_EEEENS9_9allocatorINS9_4pairIKS3_jEEEEE13set_empty_keyERSF_
g5g:__Z50RuntimeInvoker_Void_t1841601450_OpCode_t2247480392PFvvEPK10MethodInfoPvPS4_
UJa:__Z21DestroyShadowMapCacheP14ShadowMapCache
ax:__ZN7mecanim9animation25CreateControllerWorkspaceEPKNS0_18ControllerConstantERNS_6memory9AllocatorE
WUe:_Enumerator_VerifyState_m739025304_gshared
fAd:_Graphic_RegisterDirtyVerticesCallback_m4169445219
chj:__ZN15dense_hashtableINSt3__24pairIK10KeyWrapperIPK10Il2CppTypeEjEES6_N6il2cpp8metadata14Il2CppTypeHashEN14dense_hash_mapIS6_jSB_NS6_14EqualsComparerINSA_26Il2CppTypeEqualityComparerEEENS0_9allocatorIS8_EEE9SelectKeyESF_SH_E14squash_deletedEv
mnj:__ZN6il2cpp2vm13LivenessState5ResetEv
Kih:__Z138RuntimeInvoker_Void_t1841601450_RuntimeObject_Color32_t874517518_Int32_t2071877448_Int32_t2071877448_Single_t2076509932_Single_t2076509932PFvvEPK10MethodInfoPvPS4_
dpc:__ZN9JSONWrite8TransferI11KeyframeTplIfEEEvRT_PKc17TransferMetaFlags
Ayh:_Text_get_cachedTextGenerator_m224335893
voj:__ZN6il2cpp2vm3RCW23GetOrCreateFromIUnknownEP14Il2CppIUnknownP11Il2CppClass
aHb:__ZN24BuiltinShaderParamValuesC2Ev
spc:__ZL41CreateJSONTransferFunctionScriptingTraitsv
cLe:_FileStream_get_CanWrite_m775322953
kCb:__Z23GetLateBehaviourManagerv
Rsd:_ExecuteEvents_Execute_m2863348178
x1:__ZN10MemoryPool10DeallocateEPv
zlc:__ZN8GUIState8SetEventERK10InputEvent
PBe:_NumberFormatInfo__ctor_m2752806684
Fwd:_CanvasUpdateRegistry_get_instance_m862315367
coa:__ZN14GfxDeviceStats10ResetFrameEv
I8h:_PatternCompiler_EmitFastRepeat_m1175707353
ipe:_Array_InternalArray__get_Item_TisKeyValuePair_2_t3716250094_m3120861630_gshared
oPc:_cff_driver_class_pic_free
Q3f:_UInt32_TryParse_m3987111861
wNj:dynCall_vif
xNj:dynCall_vid
Y_e:_List_1_System_Collections_IList_get_Item_m3989815218_gshared
zNj:dynCall_vii
kZd:_DateTime__ctor_m3604679583
Zzb:__Z18Transfer_BlittableI18StreamedBinaryReadILb0EELb0EdEvRK29SerializationCommandArgumentsR31RuntimeSerializationCommandInfo
Z7h:_Enumerator_System_Collections_IEnumerator_MoveNext_m3313126804
qMb:__ZNK17InstancedPropInfo14IsInstanceableERK19ShaderPropertySheet
Nua:__ZN5Unity9Component16CheckConsistencyEv
Cwd:_LayoutRebuilder_ValidController_m2595049322
Mna:__ZN7ApiGLES11CheckShaderERjb
JHa:__ZN19ShaderPropertySheet37CreateTextureAuxPropertyUninitializedEN9ShaderLab16FastPropertyNameES1_PKc
Uub:__ZL26Transfer_SimpleNativeClassI19StreamedBinaryWriteILb0EE10RectOffsetLb1EEvRK29SerializationCommandArgumentsR31RuntimeSerializationCommandInfo
hpe:_Array_InternalArray__get_Item_TisKeyValuePair_2_t1174980068_m964958642_gshared
b8c:__ZN11UnityEngine7Connect17DeviceStatusEventD2Ev
Ccj:__ZN15dense_hashtableINSt3__24pairIK10KeyWrapperIPK10Il2CppTypeEjEES6_N6il2cpp8metadata14Il2CppTypeHashEN14dense_hash_mapIS6_jSB_NS6_14EqualsComparerINSA_26Il2CppTypeEqualityComparerEEENS0_9allocatorIS8_EEE9SelectKeyESF_SH_E3endEv
OQb:__Z28GetNonInterpolatedLightProbeRK17LightProbeContextjR20SphericalHarmonicsL2
xhe:_Array_InternalArray__ICollection_Add_TisDateTime_t693205669_m3559987213_gshared
kda:__ZN13GfxDeviceGLES17SetGpuProgramNameEP10GpuProgramPKc
hT:__ZNK11UnityEngine15CloudWebService25WebRequestDownloadHandler11GetProgressEv
FTi:_CanvasGroup_IsRaycastLocationValid_m2290612432
Z3i:__ZN6il2cpp2vm13MetadataCache28GetMethodDefinitionFromIndexEi
xvj:__ZN6il2cpp2os20FileErrnoToErrorCodeEi
_Qa:__ZN14SafeBinaryRead19TransferSTLStyleMapINSt3__23mapI39DeprecatedFastPropertyNameSerialization10ColorRGBAfNS1_4lessIS3_EENS1_9allocatorINS1_4pairIKS3_S4_EEEEEEEEvRT_17TransferMetaFlags
UXg:_MonoEventInfo_GetEventInfo_m2331957186
dgi:_Component_get_transform_m3374354972
ZGc:__ZN24b2PositionSolverManifold10InitializeEP27b2ContactPositionConstraintRK11b2TransformS4_i
eh:_atexit
DTd:_BitArrayEnumerator_Reset_m3218489242
VOd:_Byte_System_IConvertible_ToUInt16_m2275325191
zti:_RectTransform_INTERNAL_get_anchorMin_m3722367822
Ffj:__ZN6il2cpp2vmL31GetObjectForMissingDefaultValueEj
_bd:__ZN16UploadHandlerRawD0Ev
Z5c:__ZN11UnityEngine15PlatformWrapper30GetVRPlayAreaBoundaryDimensionEv
E1i:__ZNK15dense_hashtableINSt3__24pairIK10KeyWrapperIN6il2cpp5utils13dynamic_arrayIPK10Il2CppTypeLj4EEEEPFvvEEESA_NS3_8metadata19Il2CppSignatureHashEN14dense_hash_mapISA_SD_SG_NSA_14EqualsComparerINSF_22Il2CppSignatureCompareEEENS0_9allocatorISE_EEE9SelectKeyESK_SM_E10test_emptyEj
eeb:__ZN9ShaderLab14SerializedPassC2ERKS0_
ASh:_InternalEnumerator_1_System_Collections_IEnumerator_get_Current_m3088751576_AdjustorThunk
Nba:__ZNK9GfxDevice28GetActiveRenderSurfaceHeightEv
l:STACKTOP
qWc:_cff_get_name_index
_Pe:_Math_Cos_m43596019
AWa:__ZN21EnlightenSceneMapping16BuildRemapTablesEv
E7b:__ZN17TransformInternal27UpdateDeepChildCountUpwardsER18TransformHierarchyii
sZh:_InternalEnumerator_1_System_Collections_IEnumerator_get_Current_m1533037706_AdjustorThunk
$Kj:__ZNK10__cxxabiv117__class_type_info16search_above_dstEPNS_19__dynamic_cast_infoEPKvS4_ib
A:tempBigIntD
$md:_Single_Equals_m3359827399_AdjustorThunk
msd:_EventTrigger_OnPointerClick_m413999043
z:tempBigIntI
hpf:_PrimalityTests_RabinMillerTest_m2029846965
y:tempBigIntR
x:tempBigIntS
vvi:_Sprite_INTERNAL_get_border_m3953160722
wn:FUNCTION_TABLE_viffi
lNc:_open_face_PS_from_sfnt_stream
iQf:_ServerIdentity_CreateObjRef_m1056204803
d3:__ZN6Object18RegisterInstanceIDEPS_
isb:__Z18Transfer_BlittableI24GenerateTypeTreeTransferLb1EsEvRK29SerializationCommandArgumentsR31RuntimeSerializationCommandInfo
Xrj:__ZN15dense_hashtableINSt3__24pairIK10KeyWrapperIP12Il2CppObjectEN6il2cpp2gc9CachedCCWEEES5_NS7_5utils11PointerHashIS3_EEN14dense_hash_mapIS5_S9_SD_NS5_14EqualsComparerINS0_8equal_toIS4_EEEENS0_9allocatorISA_EEE9SelectKeyESI_SK_E11set_deletedER30dense_hashtable_const_iteratorISA_S5_SD_SM_SI_SK_E
Daa:__ZNK9GfxDevice18GetWorldViewMatrixEv
h$e:_List_1_Contains_m3819542652_gshared
iuf:_TlsServerKeyExchange__ctor_m247733406
uif:_ReadOnlyCollection_1_System_Collections_IList_Add_m3065652010_gshared
myj:__ZN6il2cpp6icalls8mscorlib6System7Convert17Base64ToByteArrayEPDsib
EFi:_IndexedSet_1_Clear_m2776064367_gshared
Dph:__Z82RuntimeInvoker_Boolean_t3825574718_RaycastResult_t21186376_RaycastResult_t21186376PFvvEPK10MethodInfoPvPS4_
j1i:__ZNSt3__218__insertion_sort_3IRN6il2cpp5utils11collections13ArrayValueMapIPK10Il2CppType17Il2CppInteropData26InteropDataToTypeConverterNS1_8metadata14Il2CppTypeLessENSA_26Il2CppTypeEqualityComparerEE12SortComparerEPS8_EEvT0_SH_T_
Haa:__ZNK9GfxDevice25GetDeviceProjectionMatrixEv
lDf:_HttpWebRequest__ctor_m1248252412
na:invoke_iidiii
osb:__Z18Transfer_BlittableI24GenerateTypeTreeTransferLb1EtEvRK29SerializationCommandArgumentsR31RuntimeSerializationCommandInfo
$Ng:_RankException__ctor_m2119191472
pP:__ZN12AudioManager33GetCurrentAmbisonicDefinitionNameE31UnityAudioEffectDefinitionFlags
hac:__ZN10systeminfo24GetRuntimePlatformStringEv
Src:__ZN9JSONWrite8TransferI13dynamic_arrayI4AABBLj4EEEEvRT_PKc17TransferMetaFlags
h5g:__Z64RuntimeInvoker_Void_t1841601450_OpCode_t2247480392_RuntimeObjectPFvvEPK10MethodInfoPvPS4_
Zsi:_Rect_GetHashCode_m2708838453
Hwa:__ZN10SpookyHash5ShortEPKvjPyS2_
ILi:_AudioSettings_InvokeOnAudioManagerUpdate_m667489537
zEf:_SPKey_Equals_m1112627532
pNe:_Stream_Close_m1499612649
R6h:_ArgInfo__ctor_m3787931268
Fpi:_X509Chain_Build_m175470596
Bfi:_Camera_INTERNAL_CALL_RaycastTry2D_m268676834
LHa:__ZN9ShaderLab6TexEnvC2ERKNS_25SerializedTexturePropertyE
B$b:__Z28IntersectLineSegmentWithLineRK8Vector2fS1_S1_S1_RS_
zEa:__ZN9Transform32SetLocalScaleWithoutNotificationERKN4math7_float3Ey
gMc:__ZN20TextRenderingPrivate19NativeTextGeneratorD2Ev
C4i:__ZN6il2cpp2vm19SocketPollingThread14DequeueRequestEv
nvj:__ZL10RevealLinkPv
fle:_Array_InternalArray__set_Item_TisSingle_t2076509932_m4273663642_gshared
Ji:___cxa_end_catch
CUg:_MethodBuilder_MakeGenericMethod_m303913412
ROg:_AssemblyName_InternalGetPublicKeyToken_m3706025887
GNj:dynCall_viffffii
zsd:_ExecuteEvents_Execute_m4235029535
bgi:_Color32_ToString_m685380321_AdjustorThunk
k3c:__Z43Register_UnityEngine_Canvas_set_scaleFactorv
DYc:_raccess_guess_linux_cap
HP:__Z36AudioSource_Get_Custom_PropIsPlayingP12Il2CppObject
qyf:_ReceiveRecordAsyncResult_get_AsyncWaitHandle_m1602093076
xih:__Z113RuntimeInvoker_Boolean_t3825574718_Ray_t2469606224_RaycastHitU26_t1969197280_Single_t2076509932_Int32_t2071877448PFvvEPK10MethodInfoPvPS4_
jAb:__Z19TransferField_ArrayI18StreamedBinaryReadILb0EE27Converter_UnityEngineObjectEvRK23StaticTransferFieldInfoR31RuntimeSerializationCommandInfoRT0_
C9g:__Z221RuntimeInvoker_Void_t1841601450_Int32_t2071877448_Int16_t4041245914_Int16_t4041245914_SByte_t454417549_SByte_t454417549_SByte_t454417549_SByte_t454417549_SByte_t454417549_SByte_t454417549_SByte_t454417549_SByte_t454417549PFvvEPK10MethodInfoPvPS4_
Aoc:__ZNK5Unity9rapidjson12GenericValueINS0_4UTF8IcEE13JSONAllocatorE6AcceptINS0_12PrettyWriterI16TempBufferWriterS3_S3_S4_EEEEbRT_
HZ:__Z33InitializeBuiltinShaderParamNamesv
sWi:_CustomEventData_Add_m4217898735
mva:__ZNK16TypeTreeIterator4TypeEv
qyi:_Vector3_get_sqrMagnitude_m1445517847
P6h:_LeaseManager__ctor_m2166901364
wHb:__ZN10FileSystem25MountDataFolderFileSystemERKN4core12basic_stringIcNS0_20StringStorageDefaultIcEEEES6_
aLg:__ZL67Selectable_t1490392188_CustomAttributesCacheGenerator_m_SpriteStateP21CustomAttributesCache
rj:_glGetUniformLocation
Vba:__ZN13GfxDeviceGLES32CreateColorRenderSurfacePlatformEP17RenderSurfaceBase19RenderTextureFormat
sG:__ZN12AudioManager24CreateFMODSoundFromMovieEP9AudioClip
Fvi:_StackTraceUtility_ExtractStackTrace_m2375126700
Y2i:__ZN6il2cpp2vm13MetadataCache24GetGenericInstanceMethodEPK10MethodInfoPK20Il2CppGenericContext
h0a:__ZNK9Texture3D12GetDimensionEv
yre:_SimpleCollator_SetCJKTable_m1356471502
XGe:_Int32_System_IConvertible_ToUInt64_m2888588559_AdjustorThunk
t2:__Z24ConvertSeparatorsToUnityPc
O4a:__ZNSt3__213__vector_baseI9InputAxisNS_9allocatorIS1_EEED2Ev
Xjj:__ZN6il2cpp2vm6Thread20FreeThreadStaticDataEP12Il2CppThread
z_g:__Z28RuntimeInvoker_RuntimeObjectPFvvEPK10MethodInfoPvPS4_
B8d:_Exception_get_ClassName_m2189012117
PJe:_IOException__ctor_m613517077
b3h:_MarshalDirectiveException__ctor_m3894820706
$Uc:_cf2_glyphpath_finalize
gXd:_Stack__ctor_m521896492
jLb:__Z20LookRotationToMatrixRK8Vector3fS1_P10Matrix3x3f
XNj:dynCall_viififi
hRc:_UNITY_FT_Stream_Free
P1f:_Type_GetTypeFromHandle_m432505302
axi:_Transform_SetParent_m1020583764
Kjj:__ZN15dense_hashtableINSt3__24pairIK10KeyWrapperINS1_IP11Il2CppClassjEEES4_EES6_N6il2cpp8metadata14ArrayClassHashEN14dense_hash_mapIS6_S4_SB_NS6_14EqualsComparerINSA_17ArrayClassCompareEEENS0_9allocatorIS8_EEE9SelectKeyESF_SH_E12maybe_shrinkEv
yDe:_GuidParser_ParseHex_m3163482281
O2h:_GCHandle_FreeHandle_m2466807271
CCd:_GraphicRegistry_get_instance_m2112667631
qR:__ZN11UnityEngine15CloudWebService14DataDispatcher25OnDataBlockConsumedStaticEPv
Esd:_ExecuteEvents_Execute_m2476343313
Egg:__ZL54_MethodInfo_t3642518830_CustomAttributesCacheGeneratorP21CustomAttributesCache
Lxd:_CanvasUpdateRegistry_CleanInvalidItems_m1402635291
xyb:__Z29Transfer_Blittable_ArrayFieldI18StreamedBinaryReadILb1EE11QuaternionfEvRT_R9ArrayInfoRK23StaticTransferFieldInfo
Qhe:_Array_InternalArray__ICollection_Add_TisSByte_t454417549_m46595441_gshared
Zsd:_ExecuteEvents_get_endDragHandler_m56074740
OHd:_InputField_IsValidChar_m3929866302
Wcb:__Z14resize_trimmedINSt3__26vectorIN9ShaderLab20SerializedSubProgram16SamplerParameterENS0_9allocatorIS4_EEEEEvRT_j
ZQd:_ArrayList__cctor_m2090802806
KKj:__ZNSt3__212basic_stringIcNS_11char_traitsIcEENS_9allocatorIcEEE6insertEjPKcj
upc:__Z44InitializeTransferFunctionScriptingTraitsForI8JSONReadEvR31TransferFunctionScriptingTraits
sGb:__ZNSt3__27__sort4IRNS_4lessIN22BuiltinResourceManager8ResourceEEEPS3_EEjT0_S7_S7_S7_T_
sJc:__ZN15dense_hashtableINSt3__24pairIKiiEEi21InstanceIDHashFunctorN14dense_hash_mapIiiS4_NS0_8equal_toIiEE13stl_allocatorIS3_L18MemLabelIdentifier37ELi16EEE9SelectKeyES7_SA_E14squash_deletedEv
Aia:__ZN4crnd12crn_unpacker11unpack_dxt5EPPhjjjjjj
z4f:_UInt32_System_IConvertible_ToUInt64_m4083788326_AdjustorThunk
JXc:_UNITY_tt_face_get_location
BVf:_DESTransform_Permutation_m4174035780
XJe:_Path_IsDsc_m1314465747
ZKe:_MonoIO_Seek_m3461199288
jWb:__ZN10GameObject34AddFirstTransformComponentInternalEP9Transform
bec:__Z31Cursor_Get_Custom_PropLockStatev
WX:__ZNSt3__26__treeINS_12__value_typeINS_4pairIPcS3_EENS_3setIS3_15compare_tstringIPKcENS_9allocatorIS3_EEEEEENS_19__map_value_compareIS4_SD_20smaller_tstring_pairIS8_ELb1EEENSA_ISD_EEE7destroyEPNS_11__tree_nodeISD_PvEE
EM:__ZN12AudioManager29GetCurrentAmbisonicDefinitionE31UnityAudioEffectDefinitionFlags
XYi:__ZN15dense_hashtableINSt3__24pairIK10KeyWrapperIPK22Il2CppGenericParameterEP11Il2CppClassEES6_N6il2cpp5utils11PointerHashIS4_EEN14dense_hash_mapIS6_S9_SE_NS6_14EqualsComparerINS0_8equal_toIS5_EEEENS0_9allocatorISA_EEE9SelectKeyESJ_SL_E15insert_noresizeERKSA_
Dec:__Z52Register_UnityEngine_GameObject_GetComponentInParentv
G5a:__ZN15SerializeTraitsINSt3__24pairIPKN5Unity4TypeE7Hash128EEE8TransferI14SafeBinaryReadEEvRS7_RT_
wTb:__Z37GenerateCombinedDynamicVisibleListJobP11CullResults
EZa:__ZNK13ScreenManager21GetCursorInsideWindowEv
Kuj:__ZN6il2cpp2vmL22RaiseOverflowExceptionEv
xHe:_Int64_System_IConvertible_ToByte_m3027162116_AdjustorThunk
H7h:_Match_get_Empty_m3581361913
uQb:__Z20IntersectAABBFrustumRK4AABBPK5Planej
bpd:_String_Concat_m626692867
Bji:_Input_GetMouseButtonDown_m2313448302
C5b:__ZN13RenderManager15InitializeClassEv
Yob:__ZN15SerializeTraitsI12PropertyNameE8TransferI14SafeBinaryReadEEvRS0_RT_
gde:_PlayableHandle_IsPlayableOfType_TisAnimationOffsetPlayable_t1019600543_m3217464196_AdjustorThunk
Zzi:_GUIUtility_GetDefaultSkin_m3585053327
JW:__GLOBAL__sub_I_runtime_baseclasses_2_cpp
Brc:__ZN9JSONWrite8TransferI11ColorRGBA32EEvRT_PKc17TransferMetaFlags
huc:__Z22TransferField_NonArrayI8JSONRead27Converter_SimpleNativeClassI8GradientEEvRK23StaticTransferFieldInfoR31RuntimeSerializationCommandInfoRT0_
ikf:_ReadOnlyCollection_1_System_Collections_IList_RemoveAt_m2372993063_gshared
sna:__ZNSt3__26vectorI15ComputeShaderCBNS_9allocatorIS1_EEE21__push_back_slow_pathIKS1_EEvRT_
nDb:__ZN10MonoScript13AwakeFromLoadE17AwakeFromLoadMode
c1b:__ZN13ProduceHelperI11MonoManagerLb0EE7ProduceE18MemLabelIdentifier18ObjectCreationMode
lqa:__ZNK18GfxFramebufferGLES15DiscardContentsER12ObjectHandleI17RenderSurface_TagP17RenderSurfaceBaseE
bwe:_KeyPairPersistence_IsUserProtected_m37342608
Iqc:__Z18Transfer_BlittableI9JSONWriteLb1EdEvRK29SerializationCommandArgumentsR31RuntimeSerializationCommandInfo
cSj:_glGetIntegerv__wrapper
mFe:_NumberFormatter_ResetCharBuf_m3823516989
H:Math_pow
_va:__ZN10GameObject28FinalizeAddComponentInternalEPN5Unity9ComponentE
dSd:_ArrayListWrapper_CopyTo_m735618473
EVa:__ZN9Texture2DD2Ev
iMa:__ZNK17InstancedPropInfo15RenderInstancesERK15RenderNodeQueuePK17BatchInstanceDataj17ShaderChannelMaskPFbPvS6_iR11MeshBuffersR16DrawBuffersRangeRiSC_E
sRd:_ArrayList_Remove_m3941780739
S8g:__Z69RuntimeInvoker_Void_t1841601450_SByte_t454417549_TimeSpan_t3430258949PFvvEPK10MethodInfoPvPS4_
bAi:_GUIUtility_Internal_GetDefaultSkin_m2938938210
UHc:__ZN16PhysicsManager2D43RegisterTransformChangeInterestForRigidbodyEP11Rigidbody2D
BQg:_ConstructorBuilder_not_created_m2150488017
nEi:_UnityAction_2_BeginInvoke_m2906232794_gshared
aF:__ZNSt3__26vectorIiNS_9allocatorIiEEE6insertENS_11__wrap_iterIPKiEERS5_
mdi:_Uri_AppendQueryAndFragment_m2358658590
Uq:__ZN13dynamic_arrayIhLj1EE18resize_initializedEjRKh12ResizePolicy
G5:__ZN27IntermediateRendererManagerD2Ev
vab:__ZN17PersistentManager27GetLoadErrorMessageFromPathERKN4core12basic_stringIcNS0_20StringStorageDefaultIcEEEE
QVf:_DecoderReplacementFallbackBuffer_Fallback_m1790184670
dm:_glGenRenderbuffers
Plj:__ZN6il2cpp6icalls8mscorlib6System2IO6MonoIO19GetCurrentDirectoryEPi
iRb:__Z21IntersectSegmentPlaneRK8Vector3fS1_RK5PlanePS_
ipd:_String_GetHashCode_m931956593
f6a:__ZN14PlayerSettings23VirtualRedirectTransferER17RemapPPtrTransfer
sSj:_emscripten_glGetIntegerv__wrapper
uM:__ZN12AudioManager31GetCurrentSpatializerDefinitionEv
n2a:__ZN12MeshRenderer16UpdateCachedMeshEv
Eob:__Z19TransferField_ArrayI14SafeBinaryRead27Converter_SimpleNativeClassI8GradientEEvRK23StaticTransferFieldInfoR31RuntimeSerializationCommandInfoRT0_
s$b:__ZN15dense_hashtableINSt3__24pairIKN4core12basic_stringIcNS2_20StringStorageDefaultIcEEEE10vector_setI4PPtrI11SpriteAtlasENS0_4lessISB_EE13stl_allocatorISB_L18MemLabelIdentifier81ELi16EEEEES6_20StringHash32FunctionIS6_EN14dense_hash_mapIS6_SH_SK_NS0_8equal_toIS6_EESE_ISI_LSF_81ELi16EEE9SelectKeyESN_SO_E15insert_noresizeERKSI_
Yoj:__ZN6il2cpp2vm5Image9GetCorlibEv
yy:__ZNK27StateMachineBehaviourPlayer25FireStateMachineBehaviourEiiN7mecanim12statemachine19StateMachineMessageE
Puh:_ScrollRectEvent__ctor_m2283981448
x8g:__Z52RuntimeInvoker_Single_t2076509932_Single_t2076509932PFvvEPK10MethodInfoPvPS4_
xXi:_PlayerScript__ctor_m2337956147
wih:__Z109RuntimeInvoker_Single_t2076509932_RuntimeObject_RuntimeObject_Single_t2076509932_ILayoutElementU26_t440254879PFvvEPK10MethodInfoPvPS4_
wWe:_Enumerator_VerifyState_m3913376581_AdjustorThunk
$Bf:_NameObjectCollectionBase_System_Collections_ICollection_CopyTo_m810189168
Isd:_ExecuteEvents_Execute_m171612015
QVb:__ZN6Camera15SetOrthographicEb
Dxc:__ZN6b2Body13ResetMassDataEv
KQc:_UNITY_FT_Stream_GetUShort
Oaa:__ZN13GfxDeviceGLES14DisableScissorEv
Lfg:__ZL71ReliabilityContractAttribute_t1625655220_CustomAttributesCacheGeneratorP21CustomAttributesCache
c0d:_Decimal_op_Explicit_m1986696267
gKh:_Dictionary_2_System_Collections_ICollection_CopyTo_m3578539931_gshared
LFe:_NumberFormatter_AppendDecimalString_m3532330813
Ic:_glVertexAttrib4f
UQg:_ILGenerator__ctor_m3365621387
l8d:_Environment_GetFolderPath_m1849163024
Fue:_ASN1_Add_m2540239672
iHc:__ZN12b2BroadPhase13QueryCallbackEi
jce:_Array_InternalArray__ICollection_Remove_TisInt16_t4041245914_m3380378727_gshared
iNf:_MethodDictionary_CopyTo_m1721788774
a4c:__ZN21UnityAnalyticsManagerD0Ev
x4h:_SinkProviderData__ctor_m1828480392
Zud:_RaycastResult_ToString_m2233441736_AdjustorThunk
bBj:_GC_set_hdr_marks
oMa:__Z17SetupObjectMatrixRK10Matrix4x4fi
emd:_SecurityFrame_ToString_m1282306399
use:_SimpleCollator_MatchesBackwardCore_m1884994267
X0f:_TimeSpan_From_m1249538749
J2c:__Z84Register_UnityEngine_RectTransformUtility_INTERNAL_CALL_RectangleContainsScreenPointv
Qre:_SimpleCollator_GetSortKey_m1317491197
ZX:__ZN13RuntimeStaticINSt3__23mapINS0_4pairIPcS3_EEPFbPvR14SafeBinaryReadE20smaller_tstring_pairIPKcENS0_9allocatorINS2_IKS4_S9_EEEEEELb0EE13StaticDestroyES5_
aYg:_MonoEvent_GetCustomAttributes_m3899596098
C$d:_Convert_ToSByte_m3295168715
Lt:__ZN7mecanim9animation16CreateClipMemoryEPKNS0_4ClipEiRNS_6memory9AllocatorE
iNc:_open_face
j4b:__ZZL31RegisterOtherRendererPropertiesR22GenericPropertyBindingEN30Wrapper_RendererReceiveShadows13SetFloatValueEPvf
E1c:__Z17RegisterModule_UIv
HPe:_UnmanagedMemoryStream_Flush_m3305300000
SFb:__ZL11LoadManagerRKN4core12basic_stringIcNS_20StringStorageDefaultIcEEEEi
fBj:_GC_printf
Bba:__ZN9GfxDevice24CreateRenderDepthSurfaceE9TextureIDiiii16TextureDimension17DepthBufferFormat18SurfaceCreateFlags
lSf:_ObjectManager_DoFixups_m835924385
LPf:_RemotingServices_CreateWellKnownServerIdentity_m3390048085
kG:__ZN4FMOD5Sound11setUserDataEPv
dcb:__ZN14SafeBinaryRead21TransferSTLStyleArrayINSt3__26vectorIN9ShaderLab19SerializedSubShaderENS1_9allocatorIS4_EEEEEEvRT_17TransferMetaFlags
tw:__ZN27AnimationLayerMixerPlayable13SetInputCountEi
Mpf:_ARC4Managed_KeySetup_m73384687
hCa:__ZNK25SingleBlockMemoryFileData4SizeEv
u2d:_DateTime_Equals_m2562884703
XA:__ZN9BlobWrite8TransferIN7mecanim12statemachine18StateMachineMemoryEEEvRT_PKc17TransferMetaFlags
fK:__ZL50UnityAudioEffect_InternalSetFloatParameterCallbackP14FMOD_DSP_STATEif
urj:__ZNK15dense_hashtableINSt3__24pairIK10KeyWrapperIP12Il2CppObjectEN6il2cpp2gc9CachedCCWEEES5_NS7_5utils11PointerHashIS3_EEN14dense_hash_mapIS5_S9_SD_NS5_14EqualsComparerINS0_8equal_toIS4_EEEENS0_9allocatorISA_EEE9SelectKeyESI_SK_E3endEv
EV:__ZN17LowLevelAllocator4FreeEPvj
ZVd:_KeyMarker__cctor_m2057880225
AYi:__ZN15dense_hashtableINSt3__24pairIK10KeyWrapperIPK22Il2CppGenericParameterEP11Il2CppClassEES6_N6il2cpp5utils11PointerHashIS4_EEN14dense_hash_mapIS6_S9_SE_NS6_14EqualsComparerINS0_8equal_toIS5_EEEENS0_9allocatorISA_EEE9SelectKeyESJ_SL_E9copy_fromERKSO_j
dDe:_TextInfo_get_ListSeparator_m3426465394
GLe:_FileStream_BeginWrite_m3895959548
Nvf:_Context_set_RecordProtocol_m1968834768
X3:__ZL19StaticCleanupPlayerPv
NHf:_X509Certificate2Enumerator_MoveNext_m1861665712
Q6b:__ZN13PlayableGraph4StopEv
O1g:__Z87RuntimeInvoker_RuntimeObject_RuntimeObject_RuntimeObject_RuntimeObject_SByte_t454417549PFvvEPK10MethodInfoPvPS4_
d8:__ZN15dense_hashtableINSt3__24pairIKN4core12basic_stringIcNS2_20StringStorageDefaultIcEEEEP11AssetBundleEES6_20StringHash32FunctionIS6_EN14dense_hash_mapIS6_S9_SC_NS0_8equal_toIS6_EENS0_9allocatorISA_EEE9SelectKeyESF_SH_ED2Ev
cJb:__Z24HandleRoundedCornerPropsP19ShaderPropertySheetRK5RectTIfERK8Vector4ff
gqd:_DecoderExceptionFallbackBuffer_Fallback_m3457210607
fzi:_WaitForSecondsRealtime__ctor_m3561981695
XK:__ZN12AudioManager37RebindAudioSourcesAndSubMixersToMixerEP10AudioMixer
Sua:__ZN9Behaviour10DeactivateE19DeactivateOperation
rdf:_Collection_1_System_Collections_IList_get_Item_m2836259259_gshared
cUa:__ZN13StreamingInfo8TransferI14SafeBinaryReadEEvRT_
Ccb:__ZN15dense_hashtableINSt3__24pairIKiN4core17string_with_labelILi1EEEEEi18SInt32HashFunctionN14dense_hash_mapIiS5_S7_NS0_8equal_toIiEE13stl_allocatorIS6_L18MemLabelIdentifier1ELi16EEE9SelectKeyESA_SD_E15insert_noresizeERKS6_
Xp:__Z23CalculateGlobalRotation23TransformAccessReadOnly
BQa:__ZNK9ShaderLab7Program11IsSupportedEPK6Shader
RHf:_X509Store_Close_m2412711366
g4b:__Z43InitializeRendererAnimationBindingInterfacev
q3:__ZL26DestroyGameObjectRecursiveR10GameObjectR11BatchDelete
urh:_CullStateChangedEvent__ctor_m4025397477
sBj:_GC_allochblk_nth
J_f:_Mutex_ReleaseMutex_m2143813124
q4f:_UInt32_System_IConvertible_ToSByte_m604037412_AdjustorThunk
C0c:__ZZN2UI6Canvas15InitializeClassEvEN33FunctorImpl_1523kTransformChanged4CallEPviR11MessageData
u3b:__Z7HaloTexP9Texture2DPhiiii
IOj:dynCall_i
uie:_Array_InternalArray__ICollection_CopyTo_TisKeyValuePair_2_t3749587448_m2750720485_gshared
Goi:_X509Certificate__cctor_m2984068893
roe:_Component_GetComponents_TisRuntimeObject_m1186222966_gshared
UNj:dynCall_f
Psb:__Z35Transfer_Blittable_FixedBufferFieldI24GenerateTypeTreeTransferjEvRK29SerializationCommandArgumentsR31RuntimeSerializationCommandInfo
JSa:__ZN8Playable13SetInputCountEi
kNj:dynCall_v
hNe:_Path__cctor_m3685888661
o4d:_Decimal_System_IConvertible_ToDateTime_m4247760250_AdjustorThunk
$ue:_BitConverterLE_ULongFromBytes_m2583105400
Uoa:__ZN7ApiGLES14TextureSamplerEjjRK24GfxTextureSamplingParams17TextureColorSpace
_Ih:_Dictionary_2_ToTKey_m965425080_gshared
pIa:__ZN6Camera23VirtualRedirectTransferER14SafeBinaryRead
R_e:_List_1_System_Collections_IList_Insert_m2838947798_gshared
IFj:__ZNSt3__26vectorINS_12basic_stringIDsNS_11char_traitsIDsEENS_9allocatorIDsEEEENS4_IS6_EEE8__appendEj
W0f:_TimeSpan_FromDays_m2859053398
y7c:__ZN11UnityEngine7Connect13ConnectConfig11ConfigValueD2Ev
mfa:__ZNSt3__26__treeINS_12__value_typeIjP14DataBufferGLESEENS_19__map_value_compareIjS4_NS_4lessIjEELb1EEENS_9allocatorIS4_EEE7destroyEPNS_11__tree_nodeIS4_PvEE
V6b:__ZN13PlayableGraph15SetPrepareStageE13DirectorStage
Bb:invoke_viiiiiiii
lQe:_MissingMemberException__ctor_m2869542203
upa:__ZN18GfxFramebufferGLES24UpdateDefaultFramebufferEP17RenderSurfaceBaseS1_N2gl6HandleILNS2_10ObjectTypeE9EEE
fLi:_AudioSource_AddAmbisonicExtension_m312887346
T4e:_List_1_Find_m160737912_gshared
Mci:_Uri_EnsureAbsoluteUri_m1892758054
hWa:__ZN16LightmapSettings5ResetEv
wza:__ZN12FileAccessor4ReadEyPvPy
_mc:__Z42Register_UnityEngine_Event_get_commandNamev
XQd:_ArrayList_ThrowNewArgumentOutOfRangeException_m3795973535
Boc:__ZN5Unity9rapidjson12PrettyWriterI16TempBufferWriterNS0_4UTF8IcEES4_13JSONAllocatorE12PrettyPrefixENS0_4TypeE
g9h:_Regex_Init_m1873144192
dve:_BitConverterLE_ToDouble_m516016818
_2:__ZNK15FileSystemEntry6ExistsEv
O2a:__ZNK9Transform21GetLocalToWorldMatrixER10Matrix4x4f
$Qi:_TextGenerator_ValidatedSettings_m647349856
Zqf:_EncryptedPrivateKeyInfo__ctor_m3398795484
$wi:_Transform_SetParent_m3603514159
lH:__ZN13AudioListener23VirtualRedirectTransferER19StreamedBinaryWriteILb0EE
qca:__ZN13GfxDeviceGLES11CopyTextureE9TextureIDS0_
mRj:_emscripten_glViewport__wrapper
Yfh:__Z47RuntimeInvoker_RuntimeObject_Single_t2076509932PFvvEPK10MethodInfoPvPS4_
m5h:_Context__cctor_m3895126354
MWc:_tt_size_select
IR:__ZN11UnityEngine15CloudWebService17SessionEventQueue15RestoreFromFileER12FileAccessorPvy
Y5a:__ZN14PlayerSettingsD2Ev
zIc:__ZN23ColliderTilingExtensionC2Ev
eLe:_FileStream_get_Length_m2265080501
i2f:_Type_type_is_assignable_from_m1620694099
gAj:_GC_reclaim_all
TAc:__ZN10ClipperLib15FirstIsBottomPtEPKNS_5OutPtES2_
h6:__ZN13PlayableGraph14DestroyOutputsEv
l6h:_ContextAttribute_GetPropertiesForNewContext_m4007241045
pf:___syscall122
Ixi:_Vector2_set_Item_m985527261_AdjustorThunk
Bof:_Kernel_Subtract_m2224959291
K1h:_ResourceSet__ctor_m2566914412
Axc:__ZN19CompositeCollider2D22AddColliderToCompositeEP10Collider2DRK13dynamic_arrayIP7b2ShapeLj4EE
Fpf:_ASN1Convert_ToDateTime_m2305963290
Did:_SymmetricAlgorithm_Finalize_m1665128997
Lnf:_BigInteger__ctor_m2991182310
w_i:__ZN6il2cpp2vm5Class6IsEnumEPK11Il2CppClass
Rdc:__Z52Register_UnityEngine_Camera_INTERNAL_CALL_RaycastTryv
zJj:_mkdir
uYd:_Convert_ToByte_m791636053
M_h:_InternalEnumerator_1_get_Current_m2986222582_AdjustorThunk
gui:_Vector2_set_Item_m985527261
lOj:dynCall_iifi
bcc:__ZN18ScriptingArguments13CopyFromOtherERKS_
bTc:_ps_hints_close
Q5b:__Z16CreateRenderLoopR6Camera
oW:_tlsf_create
O$h:_DefaultComparer_Compare_m4039941311_gshared
hFh:_Enumerator_MoveNext_m2534596951_AdjustorThunk
g7a:__ZN14SafeBinaryRead21TransferSTLStyleArrayINSt3__26vectorIN15ResourceManager10DependencyE13stl_allocatorIS4_L18MemLabelIdentifier52ELi16EEEEEEvRT_17TransferMetaFlags
kAc:__ZN10ClipperLib7ClipperC1Ei
PBb:__ZN13MonoBehaviour23VirtualRedirectTransferER18StreamedBinaryReadILb0EE
Ndb:__ZN9ShaderLab20SerializedSubProgramC2ERKS0_
Phd:_SHA256Managed_ProcessBlock_m1064908669
CLj:__ZNK10__cxxabiv121__vmi_class_type_info27has_unambiguous_public_baseEPNS_19__dynamic_cast_infoEPvi
C0d:_Convert_ToUInt64_m2215781574
$oi:_X509Certificate_VerifySignature_m4020723406
K9d:_CompareInfo_LastIndexOf_m2978196696
zve:_DSAManaged_Generate_m3166917081
IBh:_Enumerator_VerifyCurrent_m3330382363_AdjustorThunk
VEh:_Enumerator_System_Collections_IEnumerator_Reset_m2909592833_AdjustorThunk
FYa:__ZN15QualitySettings23VirtualRedirectTransferER19StreamedBinaryWriteILb0EE
tOb:__Z20RenderFullScreenQuadR9GfxDeviceRK6Camera17ShaderChannelMaskRK5RectTIfEf21MonoOrStereoscopicEye
kgf:_ReadOnlyCollection_1_System_Collections_IList_Contains_m2320811592_gshared
Uea:__ZN16RenderTextureMap5QueryEPK17RenderSurfaceBase
tPe:_UnexceptionalStreamWriter_Write_m186237617
Dvh:_ScrollRect_UpdateScrollbars_m3921404746
UUj:_emscripten_glUniform4iv__wrapper
$Nd:_Boolean_CompareTo_m1086129598_AdjustorThunk
t4b:__ZN8Material8GetFloatEN9ShaderLab16FastPropertyNameE
mPc:_psnames_module_class_pic_free
ilc:__Z11GetGUIStatev
pg:_pthread_key_create
kRd:_ArrayList_Clear_m3834604134
wg:_emscripten_glGetObjectParameterivARB
BIa:__ZN15SerializeTraitsI10ColorRGBAfE8TransferI14SafeBinaryReadEEvRS0_RT_
T3i:__ZN6il2cpp2vm13MetadataCache27GetEventDefinitionFromIndexEi
b4:__ZN22BuiltinResourceManager13StaticDestroyEPv
gme:_Array_Resize_TisCustomAttributeTypedArgument_t1498197914_m3055365808_gshared
oxc:__ZNK14b2CapsuleShape11ComputeMassEP10b2MassDataf
h3:__ZN10GameObject17GetComponentIndexEPN5Unity9ComponentE
h_a:__ZN14SafeBinaryRead21TransferSTLStyleArrayI13dynamic_arrayI7SubMeshLj4EEEEvRT_17TransferMetaFlags
Tmd:_Single_IsNegativeInfinity_m2615809279
tHe:_Int32_GetTypeCode_m3811463295_AdjustorThunk
Htf:_CipherSuiteFactory_GetSsl3SupportedCiphers_m2476597368
GDf:_IPv6Address_Fill_m1824197512
mOc:__ZNK13TextRendering4Font11GetMaterialEv
TJ:__ZN29AudioEffectInternalDefinition9CreateDSPEPN4FMOD6SystemEPvPfP23UnityAudioAmbisonicDataPP25UnityAudioSpatializerData
kYc:_UNITY_tt_face_vary_cvt
zkc:__GLOBAL__sub_I_Grid_cpp
I5i:__ZNK6il2cpp5utils10functional6FilterINSt3__212basic_stringIcNS3_11char_traitsIcEENS3_9allocatorIcEEEENS0_13VmStringUtils21CaseSensitiveComparerEEclIPKcEEbRKT_
ulc:__Z28DidLoadAllAssembliesCallbackv
LXb:__ZN35RegisterRuntimeInitializeAndCleanup22ExecuteInitializationsEv
kEc:__Z14b2TimeOfImpactP11b2TOIOutputPK10b2TOIInput
iya:__ZN23PreloadManagerOperation14SetFinalTimingEffff
i:DYNAMICTOP_PTR
Txi:_Vector2_op_Division_m1216397880
VAd:_Dropdown_SetupTemplate_m1416189897
XJb:__Z11CopyTextureP7TextureiiS0_ii
I5a:__ZN13BuildSettings8TransferI18StreamedBinaryReadILb0EEEEvRT_
Ash:_PositionAsUV1__ctor_m412270210
H5b:__ZN10GameObject15InitializeClassEv
XSf:_SerializationInfo_GetInt16_m3549836657
Tec:__Z38Renderer_Get_Custom_PropSortingLayerIDP12Il2CppObject
ALg:__ZL90StencilMaterial_t1630303189_CustomAttributesCacheGenerator_StencilMaterial_Add_m1745413071P21CustomAttributesCache
Pbe:_Array_InternalArray__ICollection_Contains_TisWorkRequest_t1154022482_m865286315_gshared
X6d:_Double_Equals_m920556135_AdjustorThunk
Rya:__ZN14AsyncOperationD0Ev
Csf:_CipherSuite_get_ExpandedKeyMaterialSize_m296573450
uXd:_Stack_Push_m284336154
tbc:__Z25scripting_raise_exception21ScriptingExceptionPtr
jGd:_InputField_set_caretBlinkRate_m3521089516
f2d:_DateTime_Add_m4237489122
p7a:__ZN15ResourceManager10Dependency8TransferI14SafeBinaryReadEEvRT_
Kzj:_GC_extend_size_map
P0h:_Comparer_1_System_Collections_IComparer_Compare_m637596782_gshared
vK:__ZN4FMOD6System9setDriverEi
Tqj:__ZN6il2cpp8metadataL24RecursiveGenericDepthForEPK17Il2CppGenericInst
dGa:__ZNK9Transform11GetRotationEv
EGf:_X509Certificate2_Find_m833446211
dP:__ZN12AudioManager15DidReloadDomainEv
xTc:_pshinter_get_globals_funcs
Qsb:__Z18Transfer_BlittableI24GenerateTypeTreeTransferLb0EyEvRK29SerializationCommandArgumentsR31RuntimeSerializationCommandInfo
EQa:__ZN8Material14CreateMaterialER6ShaderN6Object9HideFlagsEb
kwe:_KeyPairPersistence_FromXml_m2310151202
U3d:_DBNull_System_IConvertible_ToUInt64_m2919804476
JJj:_fread
mSc:_tt_cmap12_char_map_binary
e8g:__Z51RuntimeInvoker_Double_t4078015681_Int16_t4041245914PFvvEPK10MethodInfoPvPS4_
SOc:_ft_outline_glyph_transform
pqa:__Z25GetBuiltinResourceManagerv
qXh:_InternalEnumerator_1_System_Collections_IEnumerator_get_Current_m439366097_AdjustorThunk
crj:__ZN6il2cpp2gc8GCHandle15GetTargetHandleEP12Il2CppObjectii
Nh:_llvm_trap
MZ:__ZNSt3__27__sort5IRNS_6__lessIN12_GLOBAL__N_114ParamNameIndexES3_EEPS3_EEjT0_S7_S7_S7_S7_T_
HJe:_Directory_CreateDirectory_m3561886598
ehd:_RSAPKCS1KeyExchangeFormatter_CreateKeyExchange_m1122286094
fAj:_get_index
gJa:__Z26scripting_method_get_class18ScriptingMethodPtr
Tuf:_ClientSessionInfo_get_Valid_m3589823308
jxe:_PKCS1_Sign_v15_m2137018891
jde:_SetPropertyUtility_SetClass_TisRuntimeObject_m3524554928_gshared
TMa:__ZN17CollisionMeshData20VertexDataHasChangedEv
O4i:__ZN6il2cpp2vm21ThreadPoolCompartment12DetachThreadEP12Il2CppThread
Rba:__ZN13GfxDeviceGLES30SetBackBufferColorDepthSurfaceEP17RenderSurfaceBaseS1_
BXf:_Latin1Encoding_GetBytes_m1067304501
Onc:__Z52Register_UnityEngine_GUIUtility_get_systemCopyBufferv
k7b:__ZN16StreamedResource8TransferI18StreamedBinaryReadILb0EEEEvRT_
fgc:__Z49Register_UnityEngine_Input_get_imeCompositionModev
Bcb:__ZN15dense_hashtableINSt3__24pairIKiN4core17string_with_labelILi1EEEEEi18SInt32HashFunctionN14dense_hash_mapIiS5_S7_NS0_8equal_toIiEE13stl_allocatorIS6_L18MemLabelIdentifier1ELi16EEE9SelectKeyESA_SD_E12resize_deltaEjj
LUb:__ZNK20OcclusionCullingData22GetStaticRendererCountEv
xQc:_UNITY_tt_face_free_ps_names
tvc:__GLOBAL__sub_I_runtime_particlesystem_modules_5_cpp
wOb:__ZNK6Camera17GetSkyboxMaterialEv
aWj:_emscripten_glDisableVertexAttribArray__wrapper
KTh:_InternalEnumerator_1_get_Current_m3259181373_AdjustorThunk
$Vh:_InternalEnumerator_1_get_Current_m789289033_gshared
Zpe:_Array_InternalArray__get_Item_TisUILineInfo_t3621277874_m1432166059_gshared
p2a:__ZN12MeshRenderer18CalculateLocalAABBER4AABBRKS_RK4Mesh
QWi:_ContactFilter2D_CheckConsistency_m4046727088_AdjustorThunk
$ni:_X509CertificateCollection_GetEnumerator_m3994741635
h9g:__Z242RuntimeInvoker_Boolean_t3825574718_RuntimeObject_RuntimeObject_RuntimeObject_SByte_t454417549_DateTimeU26_t3448131235_DateTimeOffsetU26_t3212986406_RuntimeObject_Int32_t2071877448_SByte_t454417549_BooleanU26_t3168250738_BooleanU26_t3168250738PFvvEPK10MethodInfoPvPS4_
YDe:_Guid_ToString_m3927110175
hV:__ZN21UnityDefaultAllocatorI17LowLevelAllocatorE8AllocateEji
VZh:_InternalEnumerator_1_get_Current_m889125315_gshared
yFd:_Image_get_preferredHeight_m1045199335
s$c:__ZL28InitializeUIScriptingClassesv
whi:_Display_RecreateDisplayList_m1746695619
EFb:__ZN10UnityScene10ClearRootsEv
yjb:__ZN12HandlerChain10AtomicMoveER13FileEntryDataS1_
kde:_SetPropertyUtility_SetStruct_TisBoolean_t3825574718_m752301298_gshared
J6:__ZZN15DirectorManager15InitializeClassEvEN48PreLateUpdateDirectorDeferredEvaluateRegistrator7ForwardEv
SKc:__ZN20SpeedTreeWindManager6UpdateEf
Obi:_Literal_GetWidth_m1285678191
ZZd:_Decimal_ThrowAtPos_m3318712794
VBi:_GUITargetAttribute_GetGUITargetAttrValue_m3706077059
b0g:__Z63RuntimeInvoker_Char_t3454481338_Int16_t4041245914_RuntimeObjectPFvvEPK10MethodInfoPvPS4_
Lxe:_RSAManaged_GetPaddedValue_m4394397
HC:__ZN7mecanim9animation20CreateAvatarConstantEPNS_8skeleton8SkeletonEPNS1_13SkeletonPoseTIN4math4trsXEEES8_PNS_5human5HumanES3_iRKS6_RNS_6memory9AllocatorE
rPe:_UnexceptionalStreamWriter__ctor_m2209699189
d1e:_List_1_Find_m970100220_gshared
Vce:_Array_InternalArray__ICollection_Remove_TisVector2_t2243707579_m3881494282_gshared
M1a:__ZN14CompressedMesh8TransferI19StreamedBinaryWriteILb0EEEEvRT_
KOg:_AssemblyFileVersionAttribute__ctor_m2026149866
mje:_Array_InternalArray__ICollection_CopyTo_TisUILineInfo_t3621277874_m2142954044_gshared
QUg:_TypeBuilder_SetParent_m387557893
Yxi:_Vector2_get_up_m1721661564
stf:_CipherSuiteCollection_cultureAwareCompare_m1825407448
J1d:_DateTimeFormatInfo_GetEraName_m1437894363
Sje:_Array_InternalArray__Insert_TisLabelFixup_t4090909514_m3927736182_gshared
bJf:_X509KeyUsageExtension_Encode_m3100824560
zLa:__ZN24GenerateTypeTreeTransfer8TransferI21PlatformShaderDefinesEEvRT_PKc17TransferMetaFlags
Z6a:__ZNK15ResourceManager22GetTypeVirtualInternalEv
eLh:_DefaultComparer_GetHashCode_m1728348656_gshared
BHd:_InputField_MouseDragOutsideRect_m3758282095
Pmi:_Object__cctor_m3758199678
tsh:_Outline_ModifyMesh_m3796381413
cLc:__ZN13TextRendering4Font23VirtualRedirectTransferER24GenerateTypeTreeTransfer
hKf:_Interpreter_PopulateGroup_m4098755954
jrf:_PrivateKeyInfo_DecodeRSA_m919734506
ngc:__ZNSt3__27__sort4IRNS_6__lessI11KeyframeTplIfES3_EEPS3_EEjT0_S7_S7_S7_T_
rDe:_GuidParser_Reset_m3389485794
SO:__ZN11AudioSource15InitializeClassEv
b7e:_Enumerator_System_Collections_IEnumerator_get_Current_m1270503615_gshared
aTh:_InternalEnumerator_1_System_Collections_IEnumerator_get_Current_m3315293493_gshared
lCi:_TextEditor__ctor_m1435332308
VNb:__ZN11HaloManager17RenderGeometryJobEP25DynamicVBOGeometryJobDataj
iWh:_InternalEnumerator_1_System_Collections_IEnumerator_get_Current_m4023948615_gshared
GE:__ZNSt3__227__insertion_sort_incompleteIRPFbN7mecanim9animation13MuscleIndexIdES3_EPS3_EEbT0_S8_T_
Mqd:_BaseInput_get_mousePresent_m3571192771
mWj:_emscripten_glBlendEquation__wrapper
djj:__ZN15dense_hashtableINSt3__24pairIK10KeyWrapperIP11Il2CppClassES4_EES5_N6il2cpp8metadata16SZArrayClassHashEN14dense_hash_mapIS5_S4_SA_NS5_14EqualsComparerINS9_19SZArrayClassCompareEEENS0_9allocatorIS7_EEE9SelectKeyESE_SG_E13set_empty_keyERKS7_
vKj:__ZNSt3__212basic_stringIcNS_11char_traitsIcEENS_9allocatorIcEEE6__initEPKcj
Sj:_emscripten_set_fullscreenchange_callback
Wwe:_KeyPairPersistence__IsUserProtected_m3417764903
EJf:_CategoryUtils_CategoryFromName_m226887453
r5d:_Decimal_op_Division_m1099836590
tU:__ZN11UnityEngine15CloudWebService14DataDispatcher22ResetNetworkRetryIndexEv
Xj:_emscripten_glDrawArrays
VHb:__ZZ23InitPlayerLoopCallbacksvEN43EarlyUpdateExecuteMainThreadJobsRegistrator7ForwardEv
WT:__ZN11UnityEngine15CloudWebService19SessionEventManagerC2Ev
AKe:_File_Open_m1543461971
EVd:_Hashtable_KeyEquals_m1433874944
_yi:_Vector4__cctor_m1770725722
b9h:_QuickSearch_GetShiftDistance_m2364008966
Acd:__ZN13RuntimeStaticI14dynamic_bitsetLb0EE16StaticInitializeEPv
Y8:__ZNSt3__222__merge_move_constructIRNS_4lessIN4core12basic_stringIcNS2_20StringStorageDefaultIcEEEEEENS_11__wrap_iterIPS6_EESB_EEvT0_SC_T1_SD_PNS_15iterator_traitsISC_E10value_typeET_
Hdc:__Z41Register_UnityEngine_Camera_get_eventMaskv
iP:__ZL19CleanupModule_Audiov
SIi:_GenericComparer_1_Compare_m2516380588_gshared
l9i:__ZN6il2cpp2os4File10DeleteFileERKNSt3__212basic_stringIcNS2_11char_traitsIcEENS2_9allocatorIcEEEEPi
IJe:_File_Exists_m1685968367
bTi:_Canvas_get_scaleFactor_m1899077319
Upb:__Z29Transfer_Blittable_ArrayFieldI14SafeBinaryReadiEvRT_R9ArrayInfoRK23StaticTransferFieldInfo
E5i:__ZN6il2cpp6icalls8mscorlib6System8MonoType8GetFieldEP20Il2CppReflectionTypeP12Il2CppStringi
N1i:__ZN15dense_hashtableINSt3__24pairIK10KeyWrapperIN6il2cpp5utils13dynamic_arrayIPK10Il2CppTypeLj4EEEEPFvvEEESA_NS3_8metadata19Il2CppSignatureHashEN14dense_hash_mapISA_SD_SG_NSA_14EqualsComparerINSF_22Il2CppSignatureCompareEEENS0_9allocatorISE_EEE9SelectKeyESK_SM_E5clearEv
HSj:_emscripten_glVertexAttrib3fv__wrapper
Vmf:_Comparison_1_BeginInvoke_m1549337842_gshared
_pi:_X509Crl_VerifySignature_m25189948
z1a:__ZN18StreamedBinaryReadILb0EE21TransferSTLStyleArrayI13dynamic_arrayI10Matrix4x4fLj16EEEEvRT_17TransferMetaFlags
m1b:__ZNK28MonoBehaviourPropertyBinding13GetFloatValueERKN11UnityEngine9Animation10BoundCurveE
nTf:_RuntimeFieldHandle_Equals_m1202966418_AdjustorThunk
XBj:_GC_generic_malloc
IEh:_Enumerator_System_Collections_IEnumerator_get_Current_m2160496972_AdjustorThunk
Wba:__ZN13GfxDeviceGLES32CreateDepthRenderSurfacePlatformEP17RenderSurfaceBase17DepthBufferFormat
ofi:_Camera_INTERNAL_CALL_ScreenToViewportPoint_m2554844623
z_a:__ZN24GenerateTypeTreeTransfer8TransferINSt3__26vectorI13dynamic_arrayI8Vector2fLj4EENS1_9allocatorIS5_EEEEEEvRT_PKc17TransferMetaFlags
$Ah:_Enumerator_System_Collections_IDictionaryEnumerator_get_Value_m120250090_gshared
Q7h:_MatchCollection_TryToGet_m2938913145
EWj:_emscripten_glIsTexture__wrapper
$dd:_KeyedHashAlgorithm_get_Key_m3672929432
tba:__ZN9GfxDevice25ReleaseAsyncCommandHeaderEPN21GfxDeviceAsyncCommand3ArgE
Gli:_Mesh_SetSizedArrayForChannel_m3453069292
lqf:_MD2Managed_HashCore_m248147901
HJc:__ZN17Physics2DSettings15InitializeClassEv
cra:__ZN21UniformBufferTFMethod20IsBoneCountSupportedEi
wuh:_Selectable_FindSelectableOnLeft_m3706572906
mMe:_MemoryStream__ctor_m4073175573
wQa:__ZN6Shader27MarkShaderStateNotSupportedEPKS_
lne:_Array_Sort_TisVector4_t2243707581_TisVector4_t2243707581_m917148421_gshared
b3f:_UInt16_System_IConvertible_ToBoolean_m887616848_AdjustorThunk
QHg:__ZL81AnimationTriggers_t3244928895_CustomAttributesCacheGenerator_m_HighlightedTriggerP21CustomAttributesCache
Dqa:__ZN25TransformFeedbackSkinning8SkinMeshERK18VertexStreamSourceP9GfxBufferP17GPUSkinPoseBufferS4_ii17ShaderChannelMaskb
moj:__ZN15dense_hashtableINSt3__24pairIK10KeyWrapperIP14Il2CppIUnknownEjEES5_N6il2cpp5utils11PointerHashIS3_EEN14dense_hash_mapIS5_jSB_NS5_14EqualsComparerINS0_8equal_toIS4_EEEENS0_9allocatorIS7_EEE9SelectKeyESG_SI_E12resize_deltaEjj
BYf:_UnicodeEncoding_GetCharCount_m3719064538
XNd:_Boolean_CompareTo_m3691698947
fLh:_DefaultComparer_Equals_m3262686272_gshared
tvb:__Z22TransferField_NonArrayI19StreamedBinaryWriteILb0EE27Converter_SimpleNativeClassI8GUIStyleEEvRK23StaticTransferFieldInfoR31RuntimeSerializationCommandInfoRT0_
RNe:_StreamReader_ReadToEnd_m3871366821
Mwh:_Selectable_set_interactable_m63718297
Puc:__ZN8JSONRead8TransferIN4math12int3_storageEEEvRT_PKc17TransferMetaFlagsb
QIb:__ZN27IntermediateRendererManager29ClearAllIntermediateRenderersEv
lje:_Array_InternalArray__ICollection_CopyTo_TisUICharInfo_t3056636800_m2132994790_gshared
Yp:__Z17CalculateGlobalSM23TransformAccessReadOnlyRKN4math7_float4E
Wl:_emscripten_glLoadIdentity
ZXb:__ZNSt3__26vectorINS_4pairIN4core12basic_stringIcNS2_20StringStorageDefaultIcEEEEPK17MessageIdentifierEENS_9allocatorISA_EEE26__swap_out_circular_bufferERNS_14__split_bufferISA_RSC_EEPSA_
dYd:_Decimal_op_GreaterThan_m1625379433
gTb:__Z29CullShadowCastersWithoutUmbraR9IndexListRK17CullingParametersPK4AABBjj
nhb:__ZN6Shader16GetDefaultOrNullEv
zp:__ZN4AABB8TransferI14SafeBinaryReadEEvRT_
H9g:__Z79RuntimeInvoker_RuntimeObject_SByte_t454417549_SByte_t454417549_SByte_t454417549PFvvEPK10MethodInfoPvPS4_
YCc:__ZN16PhysicsManager2D26GetGameObjectForRaycastHitERK12RaycastHit2D
pEe:_Int16_System_IConvertible_ToDecimal_m2010889121_AdjustorThunk
Mce:_Array_InternalArray__ICollection_Remove_TisPlayableBinding_t2498078091_m2632165671_gshared
QWa:__ZN18StreamedBinaryReadILb0EE21TransferSTLStyleArrayI13dynamic_arrayI12LightmapDataLj4EEEEvRT_17TransferMetaFlags
PZb:__Z11MD5ToStringPh
xVe:_Enumerator_MoveNext_m2625246500_AdjustorThunk
Sfc:__Z38Input_Get_Custom_PropCompositionStringv
UZf:_UTF8Encoding_GetPreamble_m4179999478
o_i:__ZN6il2cpp2vm5Class19GetArrayElementSizeEPK11Il2CppClass
CVd:_SyncHashtable__ctor_m3750218498
cS:__ZN9JSONWrite8TransferIN4core12basic_stringIcNS1_20StringStorageDefaultIcEEEEEEvRT_PKc17TransferMetaFlags
lni:_GeneralNames_get_IPAddresses_m1712556836
hZf:_UTF7Encoding_GetByteCount_m253528135
sud:_PointerInputModule_CopyFromTo_m2185451090
zEc:__ZN24b2ChainAndPolygonContact6CreateEP9b2FixtureiS1_iP16b2BlockAllocator
EKj:__ZNSt3__212basic_stringIcNS_11char_traitsIcEENS_9allocatorIcEEE6resizeEjc
tge:_Array_InternalArray__IndexOf_TisMonoResource_t3127387157_m1933788179_gshared
$5a:__ZN14PlayerSettings16CheckConsistencyEv
UN:__ZN11AudioModule30GetOrCreateDSPFromCustomFilterEP17AudioCustomFilter
LJa:__ZN19AtomicPageAllocatorD2Ev
Cn:FUNCTION_TABLE_viiiiiiiiiiiiii
Ooj:__ZN6il2cpp6icalls8mscorlib6System13GlobalizationL20culture_lcid_locatorEPKvS5_
Caf:_Collection_1_Add_m3182287887_gshared
Ftd:_PointerEventData_set_useDragThreshold_m2778439880
STa:__ZNK12CubemapArray16ExtractImageImplEP14ImageReferenceNS0_8BlitModeEbi
Kgc:__Z63Register_UnityEngine_MonoBehaviour_StartCoroutine_Auto_Internalv
nac:__ZN10systeminfo24GetSystemLanguageCultureEi
fYf:_StringBuilder_Append_m3618697540
rCc:__ZN16CircleCollider2D5ResetEv
awh:_ScrollRect_get_normalizedPosition_m1640825682
jkd:_SecurityElement_IsValidAttributeName_m2201790420
l6a:__ZN10VRSettings8TransferI14SafeBinaryReadEEvRT_
j3f:_UInt16_System_IConvertible_ToDecimal_m984067306_AdjustorThunk
vUb:__Z18AddGroupToWorkloadR26BlockRangeBalancedWorkloadjR13dynamic_arrayI10BlockRangeLj4EERS1_IjLj4EE
VOc:_UNITY_FT_Outline_Get_CBox
Vhe:_Array_InternalArray__ICollection_Add_TisUInt16_t986882611_m2791161149_gshared
sX:__GLOBAL__sub_I_runtime_gfxdevice_0_cpp
rBh:_Enumerator_Reset_m3115320746_gshared
vFe:_NumberFormatter_FormatDecimal_m1435371940
Ire:_SimpleCollator_GetTailContraction_m1037943844
wfd:_RC2CryptoServiceProvider_CreateEncryptor_m252199767
RFi:_U3CStartU3Ec__Iterator0_MoveNext_m2339115502_gshared
Yad:__ZN20UnityWebRequestProtoI24UnityWebRequestTransport16AtomicRefCounter14RedirectHelper14ResponseHelper15DownloadHandler13UploadHandler12HeaderHelper14AsyncOperationE8FinalizeEv
Sfh:__Z165RuntimeInvoker_Void_t1841601450_RuntimeObject_Int32_t2071877448_Int32_t2071877448_RuntimeObject_Int32_t2071877448_Single_t2076509932_Single_t2076509932_RuntimeObjectPFvvEPK10MethodInfoPvPS4_
EGa:__ZN22PerThreadPageAllocator14AcquireNewPageEj
eP:__ZN24AudioScriptBufferManager15DidReloadDomainEv
gsb:__Z18Transfer_BlittableI24GenerateTypeTreeTransferLb1E9BoundsIntEvRK29SerializationCommandArgumentsR31RuntimeSerializationCommandInfo
hPb:__ZN6Camera13ClearNoSkyboxEb
LHe:_Int64_System_IConvertible_ToInt64_m989981560_AdjustorThunk
m0e:_List_1_CheckIndex_m2576265846_gshared
Lgh:__Z110RuntimeInvoker_Boolean_t3825574718_Vector2_t2243707579_Vector2_t2243707579_Single_t2076509932_SByte_t454417549PFvvEPK10MethodInfoPvPS4_
Lzi:_Event_get_mousePosition_m1191943012
NLd:_Array_combsort_m2486643569
Tli:_Mesh_SetUVs_m3637760384
w5:__ZNSt3__27__sort5IR17CompareInstanceIDPP6ObjectEEjT0_S6_S6_S6_S6_T_
SXb:__ZN13sorted_vectorINSt3__24pairIN4core12basic_stringIcNS2_20StringStorageDefaultIcEEEEPK17MessageIdentifierEEN10vector_mapIS6_S9_NS0_4lessIS6_EENS0_9allocatorISA_EEE13value_compareESF_E4findIS6_EENS0_11__wrap_iterIPSA_EERKT_
rLh:_DefaultComparer_Equals_m145577182_gshared
Hea:__ZN18GfxFramebufferGLES10InvalidateEv
qAe:_SmallXmlParser_SkipWhitespaces_m2923234398
B4d:_Decimal_System_IConvertible_ToSingle_m1736019752_AdjustorThunk
xia:__ZN4crnd11crnd_deleteINS_13prefix_coding14decoder_tablesEEEvPT_
RY:__ZN10MemoryPoolD2Ev
H2h:_GCHandle__ctor_m2952050298_AdjustorThunk
gmc:__ZNSt3__26__treeINS_12__value_typeIN4core12basic_stringIcNS2_20StringStorageDefaultIcEEEEN5IMGUI12NamedControlEEENS_19__map_value_compareIS6_S9_NS_4lessIS6_EELb1EEENS_9allocatorIS9_EEE7destroyEPNS_11__tree_nodeIS9_PvEE
$yf:_SslClientStream_get_SelectedClientCertificate_m1580018944
cZd:_DateTime_FromTicks_m75527956
Cve:_KeyGeneratedEventHandler_Invoke_m4220935979
b_f:_CompressedStack_Capture_m179370023
$na:__ZN14GfxDeviceStats19EndClientFrameStatsEv
R5d:_DebuggerTypeProxyAttribute__ctor_m3082078467
Wce:_Array_InternalArray__ICollection_Remove_TisVector3_t2243707580_m3881497481_gshared
lJj:___mmap
jbc:__ZN9Scripting26RaiseArgumentNullExceptionEPKc
aXj:b120
BW:__ZL18InternalLogConsolePKcz
fIj:_lseek
W$e:_List_1_System_Collections_IList_set_Item_m2267202349_gshared
QWe:_Enumerator_System_Collections_IEnumerator_get_Current_m3866069145_AdjustorThunk
Uaf:_Collection_1_ConvertItem_m2972284337_gshared
W0:__Z37scripting_method_get_nth_argumenttype18ScriptingMethodPtri
xM:__ZN11AudioSource16UpdatePauseStateEv
d5:__ZL52StaticUnregisterSceneLoadedCallback_LightmapSettingsPv
Pw:__ZN7mecanim5human25HumanPoseAddAdditiveLayerERNS0_9HumanPoseERKS1_fRKNS_6bitsetILj70EEE
y8:__ZN13RuntimeStaticI18SpriteAtlasManagerLb0EE16StaticInitializeEPv
fDf:_RemoteCertificateValidationCallback_Invoke_m2237177542
tEd:_HorizontalOrVerticalLayoutGroup_set_childForceExpandWidth_m1140293254
UFj:__ZN6il2cpp5utils25NativeDelegateMethodCache17AddNativeDelegateEPFvvEPK10MethodInfo
gCf:_NameObjectCollectionBase_BaseAdd_m964300824
Xae:_Array_InternalArray__ICollection_Contains_TisKeyValuePair_2_t1174980068_m650645929_gshared
sOb:__ZN27DeviceViewProjMatricesStateD2Ev
Bgd:_RNGCryptoServiceProvider_RngOpen_m2238023214
HPg:_CustomAttributeData_GetCustomAttributes_m4124612360
Trb:__Z18Transfer_BlittableI24GenerateTypeTreeTransferLb0E8Vector3fEvRK29SerializationCommandArgumentsR31RuntimeSerializationCommandInfo
Lpj:__ZN15dense_hashtableINSt3__24pairIK10KeyWrapperINS1_IPKcS4_EEEiEES6_24NamespaceAndNamePairHashN14dense_hash_mapIS6_iS9_NS6_14EqualsComparerI26NamespaceAndNamePairEqualsEENS0_9allocatorIS8_EEE9SelectKeyESD_SF_E14squash_deletedEv
_Kc:__ZNK13TextRendering4Font22GetTypeVirtualInternalEv
dkj:__ZN6il2cpp2vm6Thread16RequestInterruptEP12Il2CppThread
I7a:__ZN19StreamedBinaryWriteILb0EE21TransferSTLStyleArrayINSt3__26vectorIN15ResourceManager10DependencyE13stl_allocatorIS5_L18MemLabelIdentifier52ELi16EEEEEEvRT_17TransferMetaFlags
QAf:_TlsStream_get_Position_m3551173234
g5h:_LeaseManager_SetPollTime_m3137304074
PUd:_Hashtable_CalcPrime_m1835281409
uLc:__ZNSt3__26vectorINS_4pairINS1_IttEEfEENS_9allocatorIS3_EEE8__appendEj
rja:__ZN6prcoreL10inner_flipILj2EEEvPhS1_j
SUg:_TypeBuilder_has_ctor_method_m3449702467
M$a:__ZNK14Texture2DArray16ExtractImageImplEP14ImageReferenceNS0_8BlitModeEbi
crc:__ZN9JSONWrite8TransferIbEEvRT_PKc17TransferMetaFlags
hLd:_Array_CreateInstance_m679102425
Fxa:__ZN12TLSAllocatorI14StackAllocatorED0Ev
K2h:_GCHandle_GetTarget_m2056570211
_4a:__ZN11TimeManager16CheckConsistencyEv
NLb:__ZN21GfxDeviceAsyncCommand10ArgScratch15ThreadedCleanupEv
kBc:__ZN10ClipperLib14IntersectPointERNS_5TEdgeES1_RNS_8IntPointE
$ai:_CapturingGroup_get_IsNamed_m561983186
sre:_MSCompatUnicodeTable_IsJapaneseSmallLetter_m2541532635
Tnf:_BigInteger_GenerateRandom_m1878468830
srb:__ZN12NativeBufferI27Converter_UnityEngineObjectE15SetupForWritingER9ArrayInfo
WCd:_Graphic_UpdateGeometry_m2431537946
nTe:_ObsoleteAttribute__ctor_m834417715
ue:_glTexImage3D
fP:__Z20RegisterModule_Audiov
Btf:_TlsCipherSuite__ctor_m2983563913
VQa:__ZNSt3__26vectorINS_4pairI11ShaderTagIDS2_EENS_9allocatorIS3_EEE6insertENS_11__wrap_iterIPKS3_EERS8_
De:_JS_SystemInfo_GetCurrentCanvasWidth
Hbc:__ZL34GetComponentsImplementationRecurseILb1ELi0ELi1EEbR10GameObjectbRK17CompareParametersRK39GetComponentsImplementation_ReturnValue
Smj:__ZN6il2cpp2vm14PlatformInvoke30MarshalCSharpStringToCppStringEP12Il2CppString
vsj:__ZN6il2cpp2vm5Field10IsInstanceEP9FieldInfo
H6a:__ZN10VRSettings8TransferI18StreamedBinaryReadILb0EEEEvRT_
Sv:__ZN22AnimationMixerPlayable12MixerProcessEP35AnimationPlayableEvaluationConstantP32AnimationPlayableEvaluationInputP33AnimationPlayableEvaluationOutputM17AnimationPlayableFvS1_S3_S5_EPFvS1_S3_S5_ESA_PFvS5_S1_S3_S5_PN7mecanim16ValueArrayWeightEfEPFvS1_S3_S5_SD_fE
CUh:_InternalEnumerator_1_System_Collections_IEnumerator_get_Current_m1322273508_AdjustorThunk
Ijb:__ZN22LocalFileSystemHandler4NameEv
kIe:_Int64_TryParse_m3093198325
Abh:__Z145RuntimeInvoker_Void_t1841601450_RuntimeObject_RuntimeObject_RuntimeObject_Int32_t2071877448_Int32_t2071877448_Int32_t2071877448_Int32_t2071877448PFvvEPK10MethodInfoPvPS4_
i5i:__ZN6il2cpp2vm10ThreadPool5QueueEP14Il2CppDelegatePPvS3_P12Il2CppObject
zvb:__Z19TransferField_ArrayI19StreamedBinaryWriteILb0EE27Converter_SimpleNativeClassI8GradientEEvRK23StaticTransferFieldInfoR31RuntimeSerializationCommandInfoRT0_
QKe:_FileLoadException_ToString_m319701103
dNe:_NullStream_Seek_m1809916110
Vyc:__ZNK12b2WheelJoint16GetReactionForceEf
w5d:_Delegate_SetMulticastInvoke_m361277268
Oqd:_BaseInput_GetMouseButtonUp_m32571233
rWf:_EncoderReplacementFallbackBuffer_get_Remaining_m2777488845
J_a:__ZN7SubMesh8TransferI18StreamedBinaryReadILb0EEEEvRT_
MZf:_UTF8Encoding_GetCharCount_m3557355060
gUh:_InternalEnumerator_1_System_Collections_IEnumerator_get_Current_m127456009_gshared
Ckc:__ZNK19RectangleCellLayout9CellRoundERKN4Grid9GridStateERKN4math7_float3E
hf:_emscripten_glIsEnabled
Bxb:__ZN18StreamedBinaryReadILb1EE21TransferSTLStyleArrayI13dynamic_arrayIdLj8EEEEvRT_17TransferMetaFlags
Fec:__Z45Register_UnityEngine_GameObject_get_transformv
b0:__Z29scripting_class_instance_size17ScriptingClassPtr
xuc:__Z29Transfer_Blittable_ArrayFieldI8JSONRead5RectTIiEEvRT_R9ArrayInfoRK23StaticTransferFieldInfo
Qxc:__ZN7b2World12DestroyJointEP7b2Joint
pRi:_Func_2_Invoke_m2929712329_gshared
Bzf:_SslHandshakeHash_initializePad_m4132246594
aIf:_X509CertificateCollection_get_Item_m848456018
wU:__ZN11UnityEngine15CloudWebService19SessionEventManager26ProcessEventQueueJobStaticEPv
Dai:_AnchorInfo_get_IsUnknownWidth_m3747592836
Q3a:__ZL19SpriteMeshExtractorPv17ShaderChannelMaskiR11MeshBuffersR16DrawBuffersRangeRiS5_
bjh:__Z99RuntimeInvoker_Void_t1841601450_Int32_t2071877448_Int32_t2071877448_Int32_t2071877448_RuntimeObjectPFvvEPK10MethodInfoPvPS4_
QU:__ZN11UnityEngine15CloudWebService19SessionEventManager37OnTimerExpiredPerformArchiveJobStaticEPv
Wpc:__Z18Transfer_BlittableI9JSONWriteLb1E9BoundsIntEvRK29SerializationCommandArgumentsR31RuntimeSerializationCommandInfo
ihi:_DebugLogHandler_Internal_LogException_m4229368478
gOa:__ZN10builtintex15GetWhiteTextureEv
WGj:__ZN6il2cpp6icalls8mscorlib6System10Reflection4Emit11DerivedType21create_unmanaged_typeEP20Il2CppReflectionType
_Qf:_FormatterConverter_ToInt32_m1004171952
t7:__Z29GetOcclusionPortalManagerListv
mKd:_Array_System_Collections_IList_set_Item_m4290470392
HPf:_RemotingConfiguration_RegisterActivatedServiceType_m4003543022
Vhc:__Z39Register_UnityEngine_Sprite_get_texturev
$4h:_ConfigHandler_GetNotNull_m2454680251
xUi:__ZL10rescale128PyS_Piiiii
PG:__ZN9AudioClip7WWWSeekEPvjS0_
CKb:__ZN8GUILayer14RenderGUILayerE5RectTIfEjR17ShaderPassContext
hY:__ZL32StaticInitializeIUnityInterfacesPv
qLb:__Z13CameraProjectRK8Vector3fRK10Matrix4x4fS4_RK5RectTIiERS_b
B8a:__ZN30RuntimeInitializeOnLoadManager15ClassMethodInfo8TransferI19StreamedBinaryWriteILb0EEEEvRT_
p4:__Z22CreateMutexLockedStackv
z1d:_DateTime_System_IConvertible_ToType_m3821835592
wLf:_IntervalCollection_get_Item_m1667788970
tGb:__ZNSt3__27__sort5IRNS_4lessIN22BuiltinResourceManager8ResourceEEEPS3_EEjT0_S7_S7_S7_S7_T_
xXf:_Latin1Encoding_GetByteCount_m2812921286
hgb:__ZN9ShaderLab11ShaderStateD2Ev
j4d:_Decimal_System_IConvertible_ToByte_m3432160840
qXf:_UTF7Encoding__ctor_m1941256679
bDb:__Z23TransferScriptingObjectI24GenerateTypeTreeTransferEvRT_18ScriptingObjectPtr17ScriptingClassPtrPK15MonoScriptCache
bRf:_BinaryCommon__cctor_m3619690968
hOc:_UNITY_FT_Set_Pixel_Sizes
Hpi:_X509Chain_FindCertificateRoot_m589250107
C6f:_Version_GetHashCode_m880841176
kA:__ZN8Animator24SortJobsBasedOnHierarchyERK13dynamic_arrayINS_11AnimatorJobELj8EERS0_IS2_Lj4EE
fvb:__ZL17Transfer_GUIStyleI19StreamedBinaryWriteILb0EELb0EEvRK29SerializationCommandArgumentsR31RuntimeSerializationCommandInfo
vjb:__ZNK12HandlerChain6TargetERK13FileEntryDataR15FileSystemEntry
xWf:_Encoding__ctor_m3985582722
XRf:_ObjectManager_RaiseOnDeserializingEvent_m1841526046
lpd:_String_CreateString_m560359261
bQc:_UNITY_FT_Init_Class_tt_service_get_cmap_info
bdd:_DSA_ToXmlString_m1014346120
Nhd:_SHA256Managed__ctor_m1410575277
Gxc:__ZN16b2BlockAllocator4FreeEPvi
Tmi:_Plane_Raycast_m3246912889_AdjustorThunk
F9d:_CompareInfo_internal_index_managed_m859405335
rNd:_Boolean_System_IConvertible_ToDateTime_m2613818037_AdjustorThunk
k4i:__ZNSt3__211__tree_nextIPNS_16__tree_node_baseIPvEEEET_S5_
Bjf:_ReadOnlyCollection_1_System_Collections_IList_Clear_m2240307498_gshared
oqj:__ZN15dense_hashtableI10KeyWrapperIP18Il2CppGenericClassES3_N6il2cpp8metadata22Il2CppGenericClassHashEN14dense_hash_setIS3_S6_NS3_14EqualsComparerINS5_25Il2CppGenericClassCompareEEENSt3__29allocatorIS3_EEE8IdentityESA_SD_E14squash_deletedEv
Zsj:__ZN6il2cpp2vm11MethodStack17GetStackFramesRawEv
Sla:__ZN6prcoreL17RemapGenericFloatI17TexFormatRGBAHalf17TexFormatRGBFloatEEvPKNS_9InnerInfoE
nRf:_BinaryFormatter_NoCheckDeserialize_m1968202401
mDd:_Graphic_CrossFadeAlpha_m4067047552
ihh:__Z92RuntimeInvoker_Void_t1841601450_RuntimeObject_RuntimeObject_Color32_t874517518_RuntimeObjectPFvvEPK10MethodInfoPvPS4_
Jhc:__Z35Sprite_Get_Custom_PropPixelsPerUnitP12Il2CppObject
e1i:__ZNSt3__26__sortIRN6il2cpp5utils11collections13ArrayValueMapIPK10Il2CppType17Il2CppInteropData26InteropDataToTypeConverterNS1_8metadata14Il2CppTypeLessENSA_26Il2CppTypeEqualityComparerEE12SortComparerEPS8_EEvT0_SH_T_
Eab:__ZN11PreloadDataD2Ev
Rbd:__ZN15DownloadHandler14ProcessHeadersERK9HeaderMap
pLc:__ZNSt3__26vectorINS_4pairIifEE13stl_allocatorIS2_L18MemLabelIdentifier35ELi16EEE6assignINS_11__wrap_iterIPS2_EEEENS_9enable_ifIXaasr21__is_forward_iteratorIT_EE5valuesr16is_constructibleIS2_NS_15iterator_traitsISC_E9referenceEEE5valueEvE4typeESC_SC_
bc:invoke_iifi
ami:_MonoBehaviour_StopCoroutineViaEnumerator_Auto_m2222980381
Sbg:__ZL79Hashtable_t909839986_CustomAttributesCacheGenerator_Hashtable__ctor_m3742489710P21CustomAttributesCache
Fzc:__ZNK16b2PrismaticJoint16GetReactionForceEf
dkc:__ZN18CrashReportHandler10SendReportER16CrashReportEvent
gAh:_VertexHelper_AddUIVertexStream_m3599763288
RMh:_EqualityComparer_1_System_Collections_IEqualityComparer_Equals_m1565968086_gshared
Kke:_Array_InternalArray__set_Item_TisSlot_t2022531261_m3811041838_gshared
KKa:__ZN15SharedLightData15UpdateTransformERK9Transform
Sfd:_RijndaelTransform__cctor_m1393306207
JCd:_Graphic_get_defaultMaterial_m1022773737
DTc:_UNITY_FT_Init_Class_pscmaps_interface
Vxh:_Slider_OnDidApplyAnimationProperties_m3202463395
gRi:_TextGenerator_PopulateAlways_m817480435
mfh:__Z146RuntimeInvoker_Void_t1841601450_Vector2_t2243707579_Vector2_t2243707579_Single_t2076509932_ContactFilter2D_t1672660996_RaycastHit2DU26_t4207306570PFvvEPK10MethodInfoPvPS4_
TVf:_EncoderExceptionFallback__ctor_m3203614411
fEd:_GridLayoutGroup_SetLayoutVertical_m3233681648
zfc:__Z44Register_UnityEngine_RectOffset_get_verticalv
M2f:_Type_MakeGenericType_m973683242
xFj:__ZN6il2cpp2vm9LastError31InitializeLastErrorThreadStaticEv
W2b:__ZN13ProduceHelperI13RenderTextureLb0EE7ProduceE18MemLabelIdentifier18ObjectCreationMode
tIe:_Int64_ToString_m2785525583
oK:__ZN4FMOD6System17setSoftwareFormatEi17FMOD_SOUND_FORMATii18FMOD_DSP_RESAMPLER
XSg:_FieldBuilder_GetCustomAttributes_m291168515
Qza:__ZN15dense_hashtableINSt3__24pairIKN4core12basic_stringIcNS2_20StringStorageDefaultIcEEEEP20ArchiveStorageReaderEES6_20StringHash32FunctionIS6_EN14dense_hash_mapIS6_S9_SC_NS0_8equal_toIS6_EE13stl_allocatorISA_L18MemLabelIdentifier55ELi16EEE9SelectKeyESF_SI_E12expand_arrayEjN21dense_hash_map_traits17integral_constantIbLb0EEE
yYg:_MonoGenericCMethod__ctor_m2520666358
$hi:_InvokableCall_remove_Delegate_m3232269751
jh:_JS_SystemInfo_GetCurrentCanvasHeight
MRh:_InternalEnumerator_1_System_Collections_IEnumerator_get_Current_m1313308902_gshared
$Nf:_ReturnMessage_get_OutArgs_m299904174
LQa:__ZNK8Material22GetTypeVirtualInternalEv
pnc:__Z34GUIStyle_Get_Custom_PropFixedWidthP12Il2CppObject
Jxe:_RSAManaged_get_PublicOnly_m2603845138
z4d:_Decimal_System_IConvertible_ToSByte_m3745141000_AdjustorThunk
mvj:__ZN6il2cpp2gc16GarbageCollector11GetWeakLinkEPPv
CRe:_MonoType_GetMethods_m353342170
V_g:__Z108RuntimeInvoker_Boolean_t3825574718_SByte_t454417549_RuntimeObject_Int32_t2071877448_ExceptionU26_t1467204777PFvvEPK10MethodInfoPvPS4_
Ktj:__GLOBAL__sub_I_Console_cpp
Ila:__ZN6prcoreL17RemapGenericFloatI14TexFormatRHalf17TexFormatRGBAHalfEEvPKNS_9InnerInfoE
g7i:__ZN6il2cpp2vm7Runtime11InvokeArrayEPK10MethodInfoPvP11Il2CppArrayPP15Il2CppException
GBe:_GregorianCalendar_get_Eras_m4010603022
H7d:_Enum_System_IConvertible_ToUInt16_m1001858842
NIh:_Dictionary_2_make_pair_m394533803_gshared
CXc:_Dual_Project
LF:__ZN9AudioClip23VirtualRedirectTransferER14SafeBinaryRead
lei:_AsyncOperation_t3814632279_marshal_pinvoke_back
Qoa:__ZN4gles20EnsureTextureCreatedEP7ApiGLESP17RenderSurfaceGLES
$Jd:_LayoutRebuilder_U3CRebuildU3Em__2_m3239837417
bMb:__ZN15ReplacementPass13PrepareSubsetEjRK10RenderNodeifRK17ShaderReplaceData
KBc:__ZN15dense_hashtableINSt3__24pairIKiiEEi21InstanceIDHashFunctorN14dense_hash_mapIiiS4_NS0_8equal_toIiEE13stl_allocatorIS3_L18MemLabelIdentifier37ELi16EEE9SelectKeyES7_SA_E9copy_fromERKSD_j
eL:__Z32AudioMeasurement_GetTimeConstantff
bwj:__ZN6il2cpp8metadata11FieldLayout12LayoutFieldsEjjjRKNSt3__26vectorIPK10Il2CppTypeNS2_9allocatorIS6_EEEERNS1_15FieldLayoutDataE
Gxg:__ZL54ContextMenu_t2283362202_CustomAttributesCacheGeneratorP21CustomAttributesCache
KTb:__ZL27PrepareSceneNodesJobCombineP25ScheduleSceneNodesJobData
OLe:_Stream_EndWrite_m263497992
AQd:_Char_Parse_m2121403806
P9:__ZN13GfxDeviceGLESD2Ev
P5:__ZN18AsyncUploadManager13StaticDestroyEPv
gSg:_EnumBuilder_GetConstructorImpl_m331611313
Qbb:__ZN6Shader7SetNameEPKc
Nzd:_DefaultControls_SetParentAndAlign_m3048898502
fXb:__ZN19CustomRenderTexture22HandleBoundaryWrappingERKNS_14UpdateZoneInfoEj
cXi:_Physics2D_Internal_RaycastNonAlloc_m2519397231
NAc:__ZN10ClipperLib7Clipper16DoSimplePolygonsEv
g4i:__ZN6il2cpp2vm13MetadataCache32GenerateCustomAttributeTypeCacheEi
pIf:_X509Chain__cctor_m826131835
Cdf:_Collection_1_InsertItem_m1073626529_gshared
lmi:_PlayerConnection_CreateInstance_m2419948763
ixi:_Transform_GetEnumerator_m1156558734
Fz:__ZNK11UnityEngine9Animation30GenericBindingValueArrayUniqueclERKNS0_14GenericBindingES4_
kMd:_ArrayTypeMismatchException__ctor_m1923871345
fVf:_CspParameters__ctor_m3051314030
Gwa:__ZNK15dense_hashtableINSt3__24pairIKNS1_I9UnityGUIDxEE15SpriteAtlasDataEES3_23SpriteRenderDataKeyHashN14dense_hash_mapIS3_S5_S7_NS0_8equal_toIS3_EE13stl_allocatorIS6_L18MemLabelIdentifier81ELi16EEE9SelectKeyESA_SD_E23find_position_with_hashERS4_j
PAi:_GUILayoutEntry_set_style_m864176480
Uwi:_Transform_INTERNAL_set_localRotation_m1514748659
HXc:_Direct_Move_Y
FXc:_Direct_Move_X
yHf:_X509ChainElement_Set_m2634474339
nNd:_Boolean_System_IConvertible_ToByte_m1443044213_AdjustorThunk
qkc:__ZN18CrashReportHandlerC2ERKN4core12basic_stringIcNS0_20StringStorageDefaultIcEEEES6_y
Fi:_glClearDepthf
K2b:__ZN19SkinnedMeshRenderer7GetMeshEv
Aib:__ZN19RuntimeSceneManager14GetActiveSceneEv
uGb:__ZNSt3__218__insertion_sort_3IRNS_4lessIN22BuiltinResourceManager8ResourceEEEPS3_EEvT0_S7_T_
F6i:__ZN6il2cpp6icalls8mscorlib6SystemL8IsStaticEPK9EventInfo
ifc:__Z29RectOffset_Set_Custom_PropTopP12Il2CppObjecti
Xic:__Z57Register_UnityEngine_Transform_INTERNAL_get_localPositionv
ZRb:__ZNSt3__27__sort4IR15ReflProbeSorterPP15ReflectionProbeEEjT0_S6_S6_S6_T_
ste:_BigInteger_op_Equality_m366854173
lKa:__ZN16GraphicsSettings10SmartResetEv
e5c:__Z55Register_UnityEngine_Analytics_CustomEventData_AddInt16v
Arh:_MaskableGraphic_Cull_m3130802047
kyf:_RecordProtocol_MapV2CipherCode_m4064211604
Ede:_Enumerable_Where_TisRuntimeObject_m1140705402_gshared
Jpd:_ASCIIEncoding_GetByteCount_m2696039881
Zxf:_ReceiveRecordAsyncResult_SetComplete_m2441107665
tNa:__ZN20SphericalHarmonicsL28TransferI19StreamedBinaryWriteILb0EEEEvRT_
Zxd:_CanvasUpdateRegistry_InternalUnRegisterCanvasElementForLayoutRebuild_m3740187734
DHc:__ZN16PhysicsManager2D45UnregisterTransformChangeInterestForRigidbodyEP11Rigidbody2D
CRg:_DerivedType_get_AssemblyQualifiedName_m2010127631
Y1a:__ZN4Mesh14UploadMeshDataEb
Uje:_Array_InternalArray__Insert_TisMonoResource_t3127387157_m2580914422_gshared
kWh:_InternalEnumerator_1_System_Collections_IEnumerator_get_Current_m4023948615_AdjustorThunk
rSb:__ZN14qsort_internal5QSortIP16RenderObjectDatai25RenderPrePassObjectSorterEEvT_S4_T0_T1_
jBe:_ArgIterator_Equals_m2415994310
tch:__Z85RuntimeInvoker_Char_t3454481338_RuntimeObject_Int32U26_t455636984_CharU26_t1894467670PFvvEPK10MethodInfoPvPS4_
_2b:__ZN14RenderSettings12CleanupClassEv
Rhc:__Z43DataUtility_CUSTOM_INTERNAL_CALL_GetPaddingP12Il2CppObjectR8Vector4f
CN:__ZN21AudioScriptingClasses26InvokeOnAudioManagerUpdateEP21ScriptingExceptionPtr
Via:__ZN18AsyncUploadManager15DoDeCruncherJobEP26FileAssetUploadInstruction
Nca:__ZN9GfxDevice15ImmediateNormalEfff
vWf:_EncoderReplacementFallbackBuffer_GetNextChar_m1811006007
itb:__ZN13GUIStyleState8TransferI24GenerateTypeTreeTransferEEvRT_
d2:__ZN20dynamic_block_vectorI14FileIdentifierE22push_back_no_constructEv
c0a:__ZN9Texture3D23VirtualRedirectTransferER14SafeBinaryRead
hYf:_StringBuilder_Append_m1462406979
ydb:__ZNSt3__26vectorIN9ShaderLab20SerializedSubProgram16TextureParameterENS_9allocatorIS3_EEE8__appendEj
PVa:__ZN9Texture2D13UploadTextureEi
aXf:_Type_GetType_m773255995
Bli:_Mesh_ClearImpl_m2894829935
Sna:__ZN7ApiGLES9MapBufferEjN2gl12BufferTargetEllj
FKi:_PCMSetPositionCallback_Invoke_m1437833149
Fsh:_RawImage__ctor_m527845386
pK:__ZN4FMOD6System19setSoftwareChannelsEi
vua:__ZN9GfxDevice19SetSinglePassStereoE16SinglePassStereo
ale:_Array_InternalArray__set_Item_TisResourceCacheItem_t333236149_m2074358118_gshared
xCh:_Enumerator_MoveNext_m3349738440_gshared
aGf:_X500DistinguishedName_DecodeRawData_m3640767187
E_f:_Monitor_Monitor_wait_m3813798368
dbe:_Array_InternalArray__ICollection_Contains_TisDouble_t4078015681_m2262383923_gshared
UNd:_Boolean_System_IConvertible_ToUInt64_m3594533761
Njh:__Z85RuntimeInvoker_Boolean_t3825574718_SpriteStateU26_t1330646292_SpriteState_t1353336012PFvvEPK10MethodInfoPvPS4_
jgc:__Z60Register_UnityEngine_Input_INTERNAL_set_compositionCursorPosv
NDg:__ZL51Collider_t3497673348_CustomAttributesCacheGeneratorP21CustomAttributesCache
Yse:_BigInteger_get_Rng_m1268152318
uNj:dynCall_viiiii
E3g:__Z90RuntimeInvoker_Boolean_t3825574718_RuntimeObject_RuntimeObject_RuntimeObject_RuntimeObjectPFvvEPK10MethodInfoPvPS4_
ANj:dynCall_viiiif
_Xg:_MonoEvent_IsDefined_m3151861274
$Cc:__ZN16PhysicsManager2D19ApplyParticleForcesER13dynamic_arrayI21BatchedColliderResultLj4EE
BVg:_PropertyBuilder_GetCustomAttributes_m1029078269
OSc:_Cubic_To
euf:_TlsStream_WriteInt24_m1660453494
Edc:__Z44Register_UnityEngine_Camera_get_farClipPlanev
Qq:__Z25InverseTransformDirection23TransformAccessReadOnlyRKN4math7_float3Eb
xO:__ZNK12AudioManager15GetDSPBlockSizeEv
X5a:__ZNK17IAnimationBinding30CurveAttributeToSerializedPathERKN11UnityEngine9Animation10BoundCurveE
leh:__Z87RuntimeInvoker_Color_t2020392075_Color_t2020392075_Color_t2020392075_Single_t2076509932PFvvEPK10MethodInfoPvPS4_
Prj:__ZN6il2cpp2gc16GarbageCollector14GetOrCreateCCWEP12Il2CppObjectRK10Il2CppGuid
Tpj:__ZN6il2cpp2vm5Image21FromTypeNameParseInfoEPK11Il2CppImageRKNS0_17TypeNameParseInfoEb
xga:__ZN17BufferManagerGLES13AcquireBufferEjN14DataBufferGLES11BufferUsageEb
BXd:_Console_OpenStandardError_m3676373108
GPe:_UnmanagedMemoryStream_SetLength_m1805321486
ivf:_Context_get_ProtocolNegotiated_m624488778
eMd:_SimpleEnumerator_MoveNext_m1696906961
r9c:__ZN16UnityAdsSettingsD0Ev
Xvf:_Context_StartSwitchingSecurityParameters_m373522596
Bha:__ZNK7ApiGLES10DebugLabelEN2gl10ObjectTypeEjPKc
jge:_Array_InternalArray__IndexOf_TisInt16_t4041245914_m1619355230_gshared
cfe:__ZN21InterfaceFuncInvoker2Ii18Color32_t874517518S0_E6InvokeEjP11Il2CppClassP12Il2CppObjectS0_S0_
BLj:__ZNK10__cxxabiv121__vmi_class_type_info16search_below_dstEPNS_19__dynamic_cast_infoEPKvib
AHe:_Int64_System_IConvertible_ToDateTime_m1002280174
Sga:__ZN19ConstantBuffersGLES13SetCBConstantEiiPKvi
vYd:_Convert_ToByte_m9159597
Bpi:_X509Store_BuildCertificatesCollection_m4224672591
Shc:__Z38DataUtility_CUSTOM_Internal_GetMinSizeP12Il2CppObjectP13Vector2fIcall
L6b:__ZN8PlayableC2E17ScriptingClassPtr18DirectorPlayerType
B1h:_ResourceEnumerator_get_Key_m1012797265
AFe:_NumberFormatter_FormatPercent_m776769918
_7i:_il2cpp_class_has_attribute
U$f:_Scheduler_ShrinkIfNeeded_m2186823111
Zrf:_Alert_get_IsCloseNotify_m577852330
y0:__Z27FindOrCreateMonoScriptCache17ScriptingClassPtr22InitScriptingCacheTypeP6Objecti
iJc:__Z23CleanupPhysicsManager2Dv
_yb:__Z18Transfer_BlittableI18StreamedBinaryReadILb0EELb1E8Vector3fEvRK29SerializationCommandArgumentsR31RuntimeSerializationCommandInfo
x0c:__ZN2UI14CanvasRenderer13SyncVertexPtrER8JobFenceNS0_8SyncFlagE
Q0:__Z35scripting_method_get_argument_count18ScriptingMethodPtr
Cya:__ZN18AssetBundleManager18SortPreloadObjectsER13dynamic_arrayIiLj4EEb
f3f:_UInt16_System_IConvertible_ToChar_m4055364664_AdjustorThunk
pyi:_Vector3_SqrMagnitude_m3835019255
Pec:__Z20Gradient_CUSTOM_InitP12Il2CppObject
Rnc:__Z48Register_UnityEngine_GUIUtility_Internal_ExitGUIv
Ohj:__ZN14dense_hash_mapI10KeyWrapperINSt3__24pairIPK9FieldInfoP11Il2CppClassEEEj17ReflectionMapHashIS8_ENS9_14EqualsComparerINS1_8equal_toIS8_EEEENS1_9allocatorINS2_IKS9_jEEEEE15set_deleted_keyERSH_
Roi:_X509Certificate_get_RawData_m1262574599
DOd:_Byte_System_IConvertible_ToDouble_m4224320007
OTb:__ZL21CullDynamicObjectsJobP14CullingJobDataj
A_c:__ZN2UI15ClearCanvasDataER8JobFenceRNS_10CanvasDataE
SDf:_IPAddress_ToString_m1462985652
SWg:_MethodBase_GetMethodFromHandleNoGenericCheck_m4274264088
LFh:_ValueCollection_System_Collections_Generic_ICollectionU3CTValueU3E_Clear_m3471385195_gshared
bCh:_Enumerator_get_CurrentKey_m1408186928_AdjustorThunk
QXb:__ZN14ManagerContext17InitializeClassesEv
Wrh:_MaskUtilities_GetRectMasksForClip_m1540508301
dya:__ZN19StreamedBinaryWriteILb0EE21TransferSTLStyleArrayINSt3__26vectorI14ConstantStringNS2_9allocatorIS4_EEEEEEvRT_17TransferMetaFlags
eu:__ZN7mecanim5human20MaskHasRightFootGoalERKNS_6bitsetILj70EEE
pxb:__ZN18StreamedBinaryReadILb1EE21TransferSTLStyleArrayI31ArrayOfManagedObjectsTransfererEEvRT_17TransferMetaFlags
_Xe:_List_1_System_Collections_IList_IndexOf_m406088260_gshared
L6f:_WeakReference_get_Target_m1672141897
Dte:_Kernel_DwordDivMod_m4066997639
pTc:_t1_hints_open
e6c:__ZN11UnityEngine15PlatformWrapper24GetVRTrackedAreaGeometryER13dynamic_arrayI8Vector3fLj4EE
mah:__Z68RuntimeInvoker_Boolean_t3825574718_DateTime_t693205669_RuntimeObjectPFvvEPK10MethodInfoPvPS4_
wjd:_X509Certificate_GetCertHash_m2299453268
Xed:_MD5CryptoServiceProvider__ctor_m457716966
Wae:_Array_InternalArray__ICollection_Contains_TisKeyValuePair_2_t888819835_m3819112676_gshared
O_d:_Decimal_s64_m2965457432
Z8b:__Z18TransformPoints3x4RK10Matrix4x4fPK8Vector3fjPS2_ji
mcd:__ZN22UnityWebRequestManager21CreateUnityWebRequestEv
jJ:__ZN4FMOD7Channel11getUserDataEPPv
Fti:_RectTransform_INTERNAL_set_anchorMax_m4173108796
sQc:_UNITY_tt_face_load_gasp
cih:__Z150RuntimeInvoker_RuntimeObject_RuntimeObject_Int32_t2071877448_Int32_t2071877448_Int32_t2071877448_Int32_t2071877448_Int32_t2071877448_Int32_t2071877448PFvvEPK10MethodInfoPvPS4_
ajf:_ReadOnlyCollection_1_System_Collections_IList_Insert_m3650067527_gshared
QNc:_ft_ansi_stream_close
im:_JS_Sound_SetPitch
tJg:__ZL69InputField_t1631627530_CustomAttributesCacheGenerator_m_TextComponentP21CustomAttributesCache
O8i:_il2cpp_runtime_invoke_convert_args
cuc:__Z19TransferField_ArrayI8JSONRead27Converter_SimpleNativeClassI10RectOffsetEEvRK23StaticTransferFieldInfoR31RuntimeSerializationCommandInfoRT0_
HAh:_Enumerator_get_CurrentKey_m447338908_AdjustorThunk
fuf:_Context_get_SecurityProtocol_m1600902905
Rlj:__ZN6il2cpp6icalls8mscorlib6System2IO6MonoIO11GetFileStatEP12Il2CppStringPNS3_8FileStatEPi
wda:__ZN9GfxDevice33InsertCustomMarkerCallbackAndDataEPFviPvEiS0_j
Y9c:__ZN11UnityEngine15PlatformWrapper16GenerateRandomIdEv
dMb:__ZNK9ShaderLab9IntShader6GetTagE11ShaderTagIDb
jRb:__Z25CalculateShadowCasterCullbPK5PlaneRK10Matrix4x4fRK8Vector3fff9LightTypeS7_R16ShadowCasterCullPKb
uIc:__Z13RegisterClassI13BoxCollider2DEvv
u7i:_il2cpp_get_corlib
ied:_HMAC_HashCore_m1869699062
qOg:_Assembly_GetTypes_m1317253146
DEe:_Int16_System_IConvertible_ToType_m2901377575_AdjustorThunk
NHe:_Int64_System_IConvertible_ToSByte_m253213816_AdjustorThunk
n1c:__ZN2UI14CanvasRenderer11SetMaterialEP8Materiali
xud:_MouseState_SetButtonState_m2329922363
CKe:_FileStream__ctor_m3815606687
Yzj:_GC_freehblk
gFe:_NumberFormatter_NumberToString_m668979517
tmf:_ReadOnlyCollection_1_System_Collections_IList_Remove_m2507730234_gshared
rHb:__Z36GiveDebuggerChanceToAttachIfRequiredv
oFh:_Enumerator_System_Collections_IEnumerator_Reset_m2482663638_gshared
Pbc:__ZN9Scripting35DestroyObjectFromScriptingImmediateEP6Objectb
DUb:__ZNK6Camera48AreVRStereoViewMatricesWithinSingleCullToleranceEv
EAg:__ZL53Rigidbody2D_t502193897_CustomAttributesCacheGeneratorP21CustomAttributesCache
aPf:_RemotingServices_GetRemoteObject_m3663391550
dUj:_glGetRenderbufferParameteriv__wrapper
X6e:_Queue_1_Peek_m1224538505_gshared
v5g:__Z105RuntimeInvoker_RuntimeObject_Int32_t2071877448_RuntimeObject_RuntimeObject_RuntimeObject_SByte_t454417549PFvvEPK10MethodInfoPvPS4_
nge:_Array_InternalArray__IndexOf_TisRuntimeObject_m2440219229_gshared
fOi:__ZL25UnresolvedVirtualCall_122P12Il2CppObject23PropertyName_t217228410fPK10MethodInfo
wc:invoke_iiiiiiiiiiiiiii
$vj:__ZN6il2cpp2os6Thread33UnregisterCurrentThreadForCleanupEv
GWj:_emscripten_glIsRenderbuffer__wrapper
Y_i:__ZN15dense_hashtableINSt3__24pairIK10KeyWrapperIPK11Il2CppClassEPKcEES6_N6il2cpp5utils11PointerHashIS3_EEN14dense_hash_mapIS6_S9_SE_NS6_14EqualsComparerINS0_8equal_toIS5_EEEENS0_9allocatorISA_EEE9SelectKeyESJ_SL_E9copy_fromERKSO_j
Q_c:__ZN2UI11CanvasGroup8TransferI19StreamedBinaryWriteILb0EEEEvRT_
ayb:__Z29Transfer_Blittable_ArrayFieldI18StreamedBinaryReadILb1EE5RectTIiEEvRT_R9ArrayInfoRK23StaticTransferFieldInfo
YVi:_CustomEventData_AddSByte_m3234416135
ULa:__ZNK20IntermediateRenderer8GetLayerEv
fWi:_CustomEventData_Add_m3051097773
Z6i:__ZN6il2cpp5utils9PathUtils7CombineIcEENSt3__212basic_stringIT_NS3_11char_traitsIS5_EENS3_9allocatorIS5_EEEERKSA_RKNS0_10StringViewIS5_EE
KYa:__ZN15QualitySettings8TransferI14SafeBinaryReadEEvRT_
Q_i:__ZN14dense_hash_mapI10KeyWrapperIPK11Il2CppClassEPKcN6il2cpp5utils11PointerHashIS1_EENS4_14EqualsComparerINSt3__28equal_toIS3_EEEENSC_9allocatorINSC_4pairIKS4_S6_EEEEE13set_empty_keyERSI_
Xui:_SendMouseEvents_SendEvents_m1854997939
mpb:__ZN14SafeBinaryRead21TransferSTLStyleArrayI13dynamic_arrayIxLj8EEEEvRT_17TransferMetaFlags
rOe:_StringReader_CheckObjectDisposedException_m3099453260
zBf:_ListDictionary_System_Collections_IEnumerable_GetEnumerator_m2244736244
cqj:__ZNSt3__26vectorIN6il2cpp2vm5Image20EmbeddedResourceDataENS_9allocatorIS4_EEE21__push_back_slow_pathIS4_EEvOT_
pX:__GLOBAL__sub_I_runtime_utilities_0_cpp
cFj:__ZN6il2cpp2os9FastMutexD2Ev
Mhh:__Z97RuntimeInvoker_Void_t1841601450_SByte_t454417549_SByte_t454417549_Int32_t2071877448_RuntimeObjectPFvvEPK10MethodInfoPvPS4_
Jfe:_Array_IndexOf_TisCustomAttributeTypedArgument_t1498197914_m3666284377_gshared
due:_Kernel_AddSameSign_m2332657679
Pgi:_Cursor_get_lockState_m300851107
J$:__ZN14SerializedFile10ReadObjectEx18ObjectCreationModebPPK8TypeTreePbR6Object
j8e:_Collection_1_System_Collections_IList_IndexOf_m3460849589_gshared
W8b:__ZN4Mesh12SetIndexDataEiiPKv16GfxPrimitiveTypei
xGb:__ZN14dynamic_bitset6resizeEjb
grd:_BaseInputModule_FindCommonRoot_m2696088443
AS:__ZN11UnityEngine15CloudWebService10RestClientINS0_23WebRequestRestHeaderMapEE7SetDataEPKhj
fB:__ZN7mecanim8skeleton16SkeletonPoseCopyIN4math4trsXES3_EEvPKNS0_13SkeletonPoseTIT_EEPNS4_IT0_EE
R_i:__ZN14dense_hash_mapI10KeyWrapperIPK11Il2CppClassEPKcN6il2cpp5utils11PointerHashIS1_EENS4_14EqualsComparerINSt3__28equal_toIS3_EEEENSC_9allocatorINSC_4pairIKS4_S6_EEEEE15set_deleted_keyERSI_
iaa:__ZN9GfxDevice34SetStencilRefWhenStencilWasSkippedEi
n7c:__ZN11UnityEngine7Connect13ConnectConfig20RestoreTimeoutConfigERK13dynamic_arrayIiLj4EEjRS3_
vc:invoke_fi
_Dj:__ZN6il2cpp6icalls8mscorlib6System10Reflection4Emit11TypeBuilder20create_runtime_classEP27Il2CppReflectionTypeBuilderS7_
AW:__ZL21InternalAssertConsolePKcz
U5:__ZN18AsyncUploadManagerC2E18MemLabelIdentifier
tc:invoke_ff
Ed:_emscripten_glVertexAttrib3f
hej:__ZN30dense_hashtable_const_iteratorINSt3__24pairIK10KeyWrapperINS1_IPK11Il2CppImageP11Il2CppClassEEEjEES9_17ReflectionMapHashIS8_EN14dense_hash_mapIS9_jSD_NS9_14EqualsComparerINS0_8equal_toIS8_EEEENS0_9allocatorISB_EEE9SelectKeyESI_SK_EppEv
Nsi:_Rect_set_yMax_m1836907767_AdjustorThunk
hQd:_Char_CompareTo_m3044885427
K0e:_List_1_System_Collections_IList_IndexOf_m2887559165_gshared
XFh:_ValueCollection__ctor_m1825701219_gshared
ZLc:__ZN20TextRenderingPrivate8TextMesh11ApplyToMeshEv
BAf:_SslStreamBase_get_CanRead_m3061866682
dth:_GetRaycastNonAllocCallback_Invoke_m106496059
WPj:_emscripten_glDrawRangeElements__wrapper
TTi:_CanvasRenderer_set_popMaterialCount_m3475132987
hJa:__Z28scripting_class_is_valuetype17ScriptingClassPtr
f_b:__ZNSt3__25dequeI10InputEventNS_9allocatorIS1_EEE19__add_back_capacityEv
CVe:_Enumerator_System_Collections_IEnumerator_Reset_m336811426_AdjustorThunk
rqa:__ZN13ComputeShader13SetValueParamERKN9ShaderLab16FastPropertyNameEiPKv
b2a:__ZN14BlendShapeDataD2Ev
b4i:__ZN6il2cpp2vm13MetadataCache25GetIndexForTypeDefinitionEPK11Il2CppClass
Vma:__ZL18ProgramUniform3uivPK7ApiGLESjiihPKv
CMd:_Attribute_IsDefined_m1350918959
W1c:__Z47CanvasRenderer_Set_Custom_PropHasPopInstructionP12Il2CppObjecth
qZg:_MonoProperty_get_DeclaringType_m4236036432
Dma:__ZN5Image8SetImageEii13TextureFormatb
g1:__ZN17MessageIdentifier21GetRegisteredMessagesEv
fPh:_U3CGetEnumeratorU3Ec__Iterator0_System_Collections_IEnumerator_get_Current_m480171694_gshared
Lbe:_Array_InternalArray__ICollection_Contains_TisContentType_t1028629049_m2321684690_gshared
_U:__Z13RegisterClassI23CloudWebServicesManagerEvv
Voj:__GLOBAL__sub_I_Image_cpp
ZPe:_Math_Sin_m2320256962
Elf:_ReadOnlyCollection_1_System_Collections_Generic_IListU3CTU3E_Insert_m2409570138_gshared
X$e:_List_1_Add_m2123823603_gshared
iSa:__ZNSt3__27__sort5IRPFbRKNS_4pairIN9ShaderLab16FastPropertyNameEfEES6_EPS4_EEjT0_SB_SB_SB_SB_T_
Hwd:_CanvasUpdateRegistry__ctor_m4037208045
Kzi:_Event_Finalize_m270300156
lwj:__ZN14dense_hash_mapI10KeyWrapperIPK19Il2CppGenericMethodEP10MethodInfoN6il2cpp8metadata23Il2CppGenericMethodHashENS4_14EqualsComparerINS8_26Il2CppGenericMethodCompareEEENSt3__29allocatorINSD_4pairIKS4_S6_EEEEE15set_deleted_keyERSG_
ypb:__Z29Transfer_Blittable_ArrayFieldI14SafeBinaryRead4AABBEvRT_R9ArrayInfoRK23StaticTransferFieldInfo
cjf:_ReadOnlyCollection_1_System_Collections_IList_RemoveAt_m2396335261_gshared
ADh:_Transform_1_Invoke_m2675095773_gshared
AAd:_Dropdown_set_captionImage_m1952025570
zFg:__ZL56g_UnityEngine_UI_Assembly_CustomAttributesCacheGeneratorP21CustomAttributesCache
Exe:_RSAManaged_remove_KeyGenerated_m452989252
yfc:__Z46Register_UnityEngine_RectOffset_get_horizontalv
uTa:__ZN18DelayedCallManager8ClearAllEv
jYb:__ZN17PersistentManagerC2E18MemLabelIdentifierii
wgc:__Z22Mesh_CUSTOM_HasChannelP12Il2CppObject30InternalScriptingShaderChannel
mlj:__ZN6il2cpp2os8AutoLockD2Ev
DSb:__ZNK25RenderPrePassObjectSorterclERK16RenderObjectDataS2_
Axb:__Z22TransferField_NonArrayI18StreamedBinaryReadILb1EE27Converter_SimpleNativeClassI8GUIStyleEEvRK23StaticTransferFieldInfoR31RuntimeSerializationCommandInfoRT0_
re:_Mix_LoadWAV_RW
nBi:_GUIStyle_set_stretchWidth_m281327581
IP:__Z45AudioSource_Get_Custom_PropSpatializeInternalP12Il2CppObject
apa:__Z13IsFloatFormat14GraphicsFormat
nr:__ZNSt3__27__sort4IRNS_6__lessIN11UnityEngine9Animation13CachedBindingES4_EEPS4_EEjT0_S8_S8_S8_T_
vWi:_CustomEventData_Add_m950533532
RTj:_emscripten_glGetAttribLocation__wrapper
Jxd:_CanvasScaler_HandleConstantPhysicalSize_m687057631
J8i:_il2cpp_object_get_virtual_method
SSb:__Z13InitIndexListR9IndexListj
yze:_PKCS12_Encrypt_m1401341763
g2:__ZL16ReadTypeTreeImplILb1EEbR8TypeTreeRK16TypeTreeIteratorRPKhS6_i
Je:_glBlendEquationSeparate
Vhd:_SHA384_Create_m1970724783
sm:_emscripten_glDeleteVertexArrays
Qda:__ZN13GfxDeviceGLES17SetComputeUniformE12ObjectHandleI18ComputeProgram_TagPvER18ComputeShaderParamjPKv
gVj:b95
UVj:_emscripten_glValidateProgram__wrapper
d9b:__ZN13MeshScripting27PrintErrorCantAccessChannelEPK4Mesh30InternalScriptingShaderChannel
Cwe:_SmallXmlParser_ReadComment_m1117342068
Qe:_emscripten_glUniform3fv
AQa:__ZN9ShaderLab7Program14RemoveVariantsERK13dynamic_arrayI16ShaderKeywordSetLj4EE
ymj:__ZN6il2cpp2vm9Exception20GetArgumentExceptionEPKcS3_
Ebe:_Array_InternalArray__ICollection_Contains_TisContactPoint2D_t3659330976_m474619266_gshared
pvc:__Z29Transfer_Blittable_ArrayFieldI8JSONReadiEvRT_R9ArrayInfoRK23StaticTransferFieldInfo
cUj:_glDrawArrays__wrapper
iO:__ZN9AudioClip27IsFormatSupportedByPlatformERKN4core12basic_stringIcNS0_20StringStorageDefaultIcEEEE
iUa:__ZN29SerializeTraitsForStringTypesIN4core12basic_stringIcNS0_20StringStorageDefaultIcEEEEE8TransferI24GenerateTypeTreeTransferEEvRS4_RT_
Feb:__ZN9ShaderLab26SerializedShaderDependency8TransferI24GenerateTypeTreeTransferEEvRT_
H0g:__Z92RuntimeInvoker_RuntimeObject_RuntimeObject_Int32_t2071877448_Int32_t2071877448_RuntimeObjectPFvvEPK10MethodInfoPvPS4_
MQc:_UNITY_FT_Match_Size
yyd:_ColorBlock_Equals_m738243050
yv:__ZN7mecanim20CreateValueArrayMaskEPKNS_18ValueArrayConstantERNS_6memory9AllocatorE
aKj:_free
cCf:_NameObjectCollectionBase_GetEnumerator_m646294968
Pei:_Bounds_set_size_m4260584766_AdjustorThunk
f6c:__ZN11UnityEngine7Connect14AppUpdateEventC2Ev
SIa:__ZN12ImageFilters17RemoveImageFilterERK11ImageFilter
GLi:_AudioSettings_InvokeOnAudioConfigurationChanged_m4035594278
xda:__ZN9GfxDevice31InsertCustomBlitCallbackAndDataEPFviPvER33UnityRenderingExtCustomBlitParams
uHb:__Z32AddPathRemapsForBuiltinResourcesRKN4core12basic_stringIcNS_20StringStorageDefaultIcEEEE
dvi:_HitInfo_SendMessage_m3395411273_AdjustorThunk
xve:_DSAManaged_remove_KeyGenerated_m61544860
Sqb:__ZL26Transfer_SimpleNativeClassI17RemapPPtrTransfer17AnimationCurveTplIfELb0EEvRK29SerializationCommandArgumentsR31RuntimeSerializationCommandInfo
oni:_KeyUsageExtension_Decode_m4115739726
um:_glDeleteTransformFeedbacks
vf:_JS_WebRequest_Send
czj:__ZN6il2cpp2os4Time31GetTicks100NanosecondsMonotonicEv
Duj:__ZNSt3__26__treeINS_12basic_stringIcNS_11char_traitsIcEENS_9allocatorIcEEEENS_4lessIS6_EENS4_IS6_EEE16__construct_nodeIJRKS6_EEENS_10unique_ptrINS_11__tree_nodeIS6_PvEENS_22__tree_node_destructorINS4_ISH_EEEEEEDpOT_
nXd:_Stack_Clear_m771767447
SHe:_Int64_System_IConvertible_ToUInt16_m2638682734
Tgg:__ZL102ChannelServices_t2007814595_CustomAttributesCacheGenerator_ChannelServices_RegisterChannel_m3832858065P21CustomAttributesCache
_7c:__ZN18UnityConnectClient32OnVrControllerStateChangedStaticEPS_13dynamic_arrayIN4core12basic_stringIcNS2_20StringStorageDefaultIcEEEELj4EE
cLj:__ZNK10__cxxabiv117__class_type_info24process_found_base_classEPNS_19__dynamic_cast_infoEPvi
_Ri:_Nullable_1_Equals_m1889119397_AdjustorThunk
HTi:_CanvasRenderer_INTERNAL_CALL_SetColor_m1064368306
i4i:__ZN6il2cpp2vm13MetadataCache21GetFieldInfoFromIndexEj
qth:_Raycast2DCallback_BeginInvoke_m4219004388
Wwj:__GLOBAL__sub_I_String_cpp
jQ:__ZN5physx14PxLightCpuTaskD2Ev
vq:__ZNSt3__26vectorIN4core12basic_stringIcNS1_20StringStorageDefaultIcEEEENS_9allocatorIS5_EEE6assignINS_11__wrap_iterIPS5_EEEENS_9enable_ifIXaasr21__is_forward_iteratorIT_EE5valuesr16is_constructibleIS5_NS_15iterator_traitsISE_E9referenceEEE5valueEvE4typeESE_SE_
p7i:_il2cpp_init
e_c:__ZNSt3__26__treeIPN2UI14CanvasRendererENS_4lessIS3_EENS_9allocatorIS3_EEE7destroyEPNS_11__tree_nodeIS3_PvEE
KCc:__Z20b2TestSegmentSegmentRK6b2Vec2S1_S1_S1_RS_Rf
n3g:__Z176RuntimeInvoker_Boolean_t3825574718_RuntimeObject_Int32U26_t455636984_Int32_t2071877448_Int32_t2071877448_Int32_t2071877448_RuntimeObject_SByte_t454417549_ContextU26_t3131521781PFvvEPK10MethodInfoPvPS4_
jca:__ZN13GfxDeviceGLES22UploadTextureSubData2DE9TextureIDPKhiiiiii14GraphicsFormat
xAi:_GUILayoutEntry__ctor_m3585399294
afc:__Z35Register_UnityEngine_Screen_get_dpiv
qgj:__ZNK15dense_hashtableINSt3__24pairIK10KeyWrapperIPK14Il2CppAssemblyEPK22Il2CppMonoAssemblyNameEES6_N6il2cpp5utils11PointerHashIS4_EEN14dense_hash_mapIS6_SA_SF_NS6_14EqualsComparerINS0_8equal_toIS5_EEEENS0_9allocatorISB_EEE9SelectKeyESK_SM_E5beginEv
Htc:__ZN8JSONRead8TransferIxEEvRT_PKc17TransferMetaFlagsb
UKc:__ZN13SpeedTreeWind7AdvanceEbd
kHe:_Int32_TryParse_m2941352213
fga:__ZN18GlslGpuProgramGLES19ApplyGpuProgramGLESERK20GpuProgramParametersPKh
Fac:__ZN9Transform16SetLocalPositionERK8Vector3f
DEd:_LayoutGroup_GetTotalMinSize_m2600700952
C_b:__ZN10BootConfig4Data12InitFromFileEPPKcjS2_
Xyb:__Z15Transfer_StringI18StreamedBinaryReadILb0EELb0EEvRK29SerializationCommandArgumentsR31RuntimeSerializationCommandInfo
XJ:__ZN12SoundManagerC2Ev
qQc:_UNITY_tt_face_free_name
A7b:__ZN17TransformInternal24AddTransformSubhierarchyER18TransformHierarchyjS1_RjS2_yb
_me:_Array_Sort_TisUICharInfo_t3056636800_m37864585_gshared
o9:__ZN15dense_hashtableINSt3__24pairIKN4core12basic_stringIcNS2_20StringStorageDefaultIcEEEE10vector_setI4PPtrI11SpriteAtlasENS0_4lessISB_EE13stl_allocatorISB_L18MemLabelIdentifier81ELi16EEEEES6_20StringHash32FunctionIS6_EN14dense_hash_mapIS6_SH_SK_NS0_8equal_toIS6_EESE_ISI_LSF_81ELi16EEE9SelectKeyESN_SO_E4swapERSR_
LUj:_emscripten_glGetUniformfv__wrapper
Pna:__ZN14DataBufferGLES3MapEjjj
SXh:_InternalEnumerator_1_System_Collections_IEnumerator_get_Current_m771161214_gshared
Mo:FUNCTION_TABLE_fidi
Z2a:__ZN14SpriteRenderer23VirtualRedirectTransferER19StreamedBinaryWriteILb0EE
ZUj:_emscripten_glGetShaderiv__wrapper
H0b:__Z13RegisterClassI9TransformEvv
WRa:__ZN18UnityPropertySheet11UnityTexEnv8TransferI19StreamedBinaryWriteILb0EEEEvRT_
fGa:__ZNK6Camera33CalculateFarPlaneWorldSpaceLengthEv
H1h:_ResourceInfo_t3933049236_marshal_pinvoke_back
Tfi:_Color_Lerp_m527444458
fej:__ZNK15dense_hashtableINSt3__24pairIK10KeyWrapperINS1_IPK11Il2CppImageP11Il2CppClassEEEjEES9_17ReflectionMapHashIS8_EN14dense_hash_mapIS9_jSD_NS9_14EqualsComparerINS0_8equal_toIS8_EEEENS0_9allocatorISB_EEE9SelectKeyESI_SK_E5beginEv
z7i:_il2cpp_array_new
nhe:_Array_InternalArray__ICollection_Add_TisDictionaryEntry_t3048875398_m279246399_gshared
Y3h:_ChannelServices_GetCurrentChannelInfo_m4080942430
mI:__ZN4FMOD3DSP8getInputEiPPS0_PPNS_13DSPConnectionE
STe:_KeyValuePair_2_ToString_m2882821022_AdjustorThunk
RM:__ZN11SoundHandle8Instance13CreateChannelERS_b
j2a:__ZN10MeshFilter23VirtualRedirectTransferER17RemapPPtrTransfer
TOc:_ft_outline_glyph_bbox
OFi:_IndexedSet_1_RemoveAll_m2736534958_gshared
gH:__ZN13AudioListenerD2Ev
IYc:_UNITY_FT_Done_Library
hAh:_VertexHelper__cctor_m1150948588
N0c:__ZN2UI13CanvasManager17EmitDataForCameraEP6Camera
vFc:__Z16b2CollideCirclesP10b2ManifoldPK13b2CircleShapeRK11b2TransformS3_S6_
IDh:_Transform_1_Invoke_m1111426439_gshared
_he:_Array_InternalArray__ICollection_Add_TisContactPoint2D_t3659330976_m1781705858_gshared
yhc:__Z44Register_UnityEngine_Material_GetTextureImplv
tUj:_glUniform3uiv__wrapper
wEb:__ZL8MainLoopv
gPg:_Binder_ConvertArgs_m2999223281
NSg:_TypeBuilder_IsDefined_m3186251655
s2c:__Z47Register_UnityEngine_CanvasRenderer_SetMaterialv
I4h:_ConfigHandler_ValidatePath_m3188987489
Wvc:__ZN11UnityEngine9Analytics16StartupTimeEvent23SetAssembliesTimingInfoEyy
Dpa:__ZN15dense_hashtableINSt3__24pairIKPK17RenderSurfaceBaseP13RenderTextureEES4_19PointerHashFunctionIS4_EN14dense_hash_mapIS4_S7_SA_NS0_8equal_toIS4_EE13stl_allocatorIS8_L18MemLabelIdentifier67ELi16EEE9SelectKeyESD_SG_E12resize_deltaEjj
zxc:__ZN19CompositeCollider2D22QueryCompositeColliderEPK10Collider2DPK11Rigidbody2D
o4c:__ZN11UnityEngine9Analytics23CustomLimitReachedEvent12ToJsonStringER9JSONWrite
JSe:_NumberFormatter_get_IntegerDigits_m3972411141
G2a:__ZThn32_N12MeshRendererD1Ev
iPa:__ZN13RenderTexture23VirtualRedirectTransferER19StreamedBinaryWriteILb0EE
aDh:_ShimEnumerator_MoveNext_m2728191736_gshared
f5f:_UInt64_System_IConvertible_ToInt32_m930227577_AdjustorThunk
Qxj:__ZN6il2cpp2vm13ComObjectBase17GetMarshalSizeMaxERK10Il2CppGuidPvjS5_jPj
d4b:__ZN9TransformC2E18MemLabelIdentifier18ObjectCreationMode
_Jj:_truncate
rfb:__ZN9ShaderLab27SerializedShaderVectorValue8TransferI18StreamedBinaryReadILb0EEEEvRT_
mXa:__ZN8Renderer21RendererBecameVisibleEv
xkf:_ReadOnlyCollection_1_System_Collections_Generic_ICollectionU3CTU3E_Clear_m2503787861_gshared
tJj:___stpncpy
paf:_Collection_1_System_Collections_IList_Add_m669232520_gshared
i3e:_List_1_RemoveAt_m1843849279_gshared
iZ:__ZN10MemoryPool16StaticInitializeEPv
N7:__ZN11TypeManager21CleanupGlobalInstanceEv
yAi:_LayoutCache__ctor_m3175562018
X2f:_TypedReference_GetHashCode_m3498861551_AdjustorThunk
N3c:__ZN11UnityEngine9Analytics15UserCustomEvent3AddEPKcRKN4core12basic_stringIcNS4_20StringStorageDefaultIcEEEE
N:Math_atan
Taj:__ZNSt3__212basic_stringIcNS_11char_traitsIcEENS_9allocatorIcEEE6__initIPKcEENS_9enable_ifIXsr21__is_forward_iteratorIT_EE5valueEvE4typeESA_SA_
RG:__ZNK10SampleClip11GetResourceEv
xBa:__ZN4core12basic_stringIcNS_20StringStorageDefaultIcEEE6resizeEj
bnc:__Z43Register_UnityEngine_Event_set_displayIndexv
e_h:_InternalEnumerator_1_System_Collections_IEnumerator_get_Current_m2821735692_AdjustorThunk
ZJc:__GLOBAL__sub_I_CmEventProfiler_cpp
gpf:_PrimalityTests_GetSPPRounds_m873706010
iYf:_StringBuilder_AppendLine_m1686706871
gmf:_ReadOnlyCollection_1_System_Collections_Generic_IListU3CTU3E_Insert_m584948331_gshared
DDa:__ZN17GlobalGameManager23VirtualRedirectTransferER24GenerateTypeTreeTransfer
EMe:_MemoryStream_ToArray_m547789004
G8c:__ZN19UnityConnectServiceD0Ev
hde:_PlayableHandle_IsPlayableOfType_TisAnimatorControllerPlayable_t1744083903_m1628500864_gshared
SLe:_MonoIO_SetLength_m1019790894
_Hb:__ZZ23InitPlayerLoopCallbacksvEN46EarlyUpdateUpdateAllUnityWebStreamsRegistrator7ForwardEv
R5f:_UIntPtr_ToString_m387842486
hKa:__ZNSt3__26vectorIfNS_9allocatorIfEEE8__appendEjRKf
Q6c:__ZN11UnityEngine15PlatformWrapper21GetCopyTextureSupportEv
HCd:_Graphic_get_depth_m3526566553
TN:__ZN11AudioModule27IsFormatSupportedByPlatformEPKc
TTd:_CollectionBase_get_InnerList_m44314156
I7d:_Enum_System_IConvertible_ToUInt32_m3575456858
iFa:__ZNSt3__26vectorI17SortingLayerEntryNS_9allocatorIS1_EEE6assignINS_11__wrap_iterIPS1_EEEENS_9enable_ifIXaasr21__is_forward_iteratorIT_EE5valuesr16is_constructibleIS1_NS_15iterator_traitsISA_E9referenceEEE5valueEvE4typeESA_SA_
eHc:__Z14b2PairLessThanRK6b2PairS1_
K1:__ZN14SerializedFile14SerializedTypeD2Ev
hvc:__Z19TransferField_ArrayI8JSONRead16Converter_StringEvRK23StaticTransferFieldInfoR31RuntimeSerializationCommandInfoRT0_
Txc:__ZN15b2WheelJointDef10InitializeEP6b2BodyS1_RK6b2Vec2S4_
LSb:__Z19SetupShadowCullDataRK27ScriptableCullingParametersRK17ShaderReplaceDataPK22SceneCullingParametersf16ShadowProjectionR14ShadowCullData
Bxa:__ZNK25ThreadsafeLinearAllocator22GetAllocatedMemorySizeEv
ZTc:_cff_size_request
_Sa:__ZN15DirectorManager14ConnectionPool12SwitchBucketEP14ConnectionList
b2f:_Type_EqualsInternal_m266086934
s_c:__ZN2UI11CompareFuncEPNS_6CanvasES1_
bJ:__ZN4FMOD7Channel11set3DSpreadEf
rFj:__ZN6il2cpp2os6Memory14AlignedReAllocEPvjj
W:Math_fround
fUa:__ZN24GenerateTypeTreeTransfer16TransferTypelessEPjPKc17TransferMetaFlags
DLc:__ZN20TextRenderingPrivate8FontImpl8TransferI24GenerateTypeTreeTransferEEvRT_
ned:_HMACMD5__ctor_m3425004426
hye:_SymmetricTransform_InternalTransformBlock_m55428483
Wma:__ZL18ProgramUniform4uivPK7ApiGLESjiihPKv
gRe:_LongComparer_Compare_m398047722
oNh:_EqualityComparer_1_System_Collections_IEqualityComparer_Equals_m2170611288_gshared
vMd:_Attribute_CheckParameters_m1754681684
uYf:_UnicodeEncoding_GetByteCount_m2761661599
fdj:__ZN6il2cpp2gc19AppendOnlyGCHashMapINSt3__24pairIPK10MethodInfoP11Il2CppClassEEP22Il2CppReflectionMethod17ReflectionMapHashIS9_ENS2_8equal_toIS9_EEE3AddERKS9_SB_
eOa:__ZN10builtintex21GetAttenuationTextureEv
ln:FUNCTION_TABLE_viiiiiiiiiiiiiii
Lei:_Bounds_set_center_m1010418458_AdjustorThunk
cxh:_Selectable_TriggerAnimation_m3096883407
L8b:__ZNK4Mesh19CanAccessFromScriptEv
UY:__Z15GetGraphicsCapsv
Iea:__ZN7ApiGLES15BindVertexArrayEN2gl6HandleILNS0_10ObjectTypeE3EEE
FDi:_UnityAction_1_BeginInvoke_m2825236457_gshared
hv:__ZN17AnimationPlayable17GetAnimationClipsER13dynamic_arrayIP13AnimationClipLj4EE
VPb:__Z20IntersectionAABBAABBRK10MinMaxAABBS1_PS_
tfj:__ZN30dense_hashtable_const_iteratorINSt3__24pairIK10KeyWrapperINS1_IPK9EventInfoP11Il2CppClassEEEjEES9_17ReflectionMapHashIS8_EN14dense_hash_mapIS9_jSD_NS9_14EqualsComparerINS0_8equal_toIS8_EEEENS0_9allocatorISB_EEE9SelectKeyESI_SK_EppEv
k1f:_TimeSpan_op_GreaterThan_m2202243191
L$b:__ZN18BackgroundJobQueue29ScheduleMainThreadJobInternalEPFvPvES0_
aHf:_X509Chain_IsSelfIssued_m2009755967
J_c:__ZN2UI11CanvasGroup23VirtualRedirectTransferER24GenerateTypeTreeTransfer
fmb:__Z18Transfer_BlittableI14SafeBinaryReadLb1EhEvRK29SerializationCommandArgumentsR31RuntimeSerializationCommandInfo
_1d:_DateTime_GetTimeMonotonic_m4135038456
T8:__ZNSt3__224__buffered_inplace_mergeIRNS_4lessIN4core12basic_stringIcNS2_20StringStorageDefaultIcEEEEEENS_11__wrap_iterIPS6_EEEEvT0_SC_SC_T_NS_15iterator_traitsISC_E15difference_typeESG_PNSF_10value_typeE
bYf:_StringBuilder_Append_m3636508479
pqf:_MD4_Create_m3565183915
gc:invoke_viifff
b$:__Z22DestroyObjectHighLevelP6Objectb
Nzc:__ZNK12b2MouseJoint10GetAnchorBEv
fNb:__Z26BeginRenderQueueExtractionR15RenderNodeQueuePK16RendererCullDataRK13CullingOutputPK12LODDataArray15ExtractionFlagsP18JobBatchDispatcher
SLc:__ZNK13TextRendering4Font10GetTextureEv
qfd:_SymmetricAlgorithm_set_KeySize_m270664177
qj:_emscripten_glVertexAttrib3fv
wNg:__ZL49Shadow_t4269599528_CustomAttributesCacheGeneratorP21CustomAttributesCache
rlj:__ZN6il2cpp6icalls8mscorlib6System9Threading6Thread16SetName_internalEP12Il2CppThreadP12Il2CppString
uj:_glBeginTransformFeedback
YKa:__ZN18JobBatchDispatcherC2E11JobPriorityi
rxc:__ZN23ColliderTilingExtension10IsTilingOnEv
$kc:__ZN8GUIStyle14GetBuiltinFontEv
bda:__ZN9GfxDevice13EndFrameStatsEv
B3b:__Z7Empty2DP9Texture2DPhiiii
QIe:_IntPtr_ToString_m1500137303_AdjustorThunk
Qud:_RaycasterManager__cctor_m3713028899
ukj:__ZN6il2cpp6icalls8mscorlib6System7Runtime15InteropServices7Marshal19copy_from_unmanagedEiiP11Il2CppArrayi
r$e:_List_1_CheckCollection_m1228076404_gshared
lHi:_SymmetricTransform_ThrowBadPaddingException_m2553969731
fH:__ZL34StaticDestroyAudioCustomFilterRootPv
JBc:__ZN15dense_hashtableINSt3__24pairIKiiEEi21InstanceIDHashFunctorN14dense_hash_mapIiiS4_NS0_8equal_toIiEE13stl_allocatorIS3_L18MemLabelIdentifier37ELi16EEE9SelectKeyES7_SA_E12maybe_shrinkEv
zqa:__ZN19ComputeShaderKernelD2Ev
I_b:__ZN10systeminfo21GetTemporaryCachePathEv
vXf:_Encoding_GetBytes_m3820493744
_cf:_Collection_1_IsValidItem_m2164075061_gshared
Qvf:_Context_DecodeProtocolCode_m4051353560
iRi:_TextGenerator_GetPreferredHeight_m2983948849
whb:__ZN12ScriptMapper8TransferI14SafeBinaryReadEEvRT_
Ivf:_Context_set_ClientWriteKey_m1137238126
xsb:__Z18Transfer_BlittableI24GenerateTypeTreeTransferLb1E10Matrix4x4fEvRK29SerializationCommandArgumentsR31RuntimeSerializationCommandInfo
gbi:_Expression_GetFixedWidth_m2900825908
zJi:_GenericEqualityComparer_1_Equals_m1663005117_gshared
aRg:_ILGenerator_Mono_GetCurrentOffset_m3553856682
Erc:__ZN9JSONWrite8TransferI10Matrix4x4fEEvRT_PKc17TransferMetaFlags
Y7f:__ZL58Decimal_t724701077_CustomAttributesCacheGenerator_MinValueP21CustomAttributesCache
pVc:_cf2_hintmap_map
HWe:_Enumerator_VerifyState_m3639069574_AdjustorThunk
Fgg:__ZL50_Module_t2144668161_CustomAttributesCacheGeneratorP21CustomAttributesCache
ipb:__ZN15SerializeTraitsI5RectTIfEE8TransferI14SafeBinaryReadEEvRS1_RT_
Wxa:__ZNK14SerializedFile15GetTypeIfExistsEx
mic:__Z41Register_UnityEngine_Texture_get_wrapModev
DNc:_UNITY_FT_Raccess_Get_DataOffsets
UIf:_X509Extension_CopyFrom_m2644634650
X6b:__ZN14PlayableOutputC2EjP13PlayableGraph
AXa:__ZThn32_NK8Renderer11GetMaterialEi
Cfb:__ZN9ShaderLab20SerializedSubProgram8TransferI19StreamedBinaryWriteILb0EEEEvRT_
C4c:__Z13RegisterClassI21UnityAnalyticsManagerEvv
Lkg:__ZL118SecurityManager_t3191249573_CustomAttributesCacheGenerator_SecurityManager_t3191249573____SecurityEnabled_PropertyInfoP21CustomAttributesCache
UZe:_List_1_System_Collections_IList_Insert_m813883425_gshared
jzj:__ZN6il2cpp6icalls8mscorlib6System7Runtime15InteropServices8GCHandle15GetTargetHandleEP12Il2CppObjectii
lLa:__Z32TransferEnumWithNameForceIntSizeI14SafeBinaryRead18RealtimeGICPUUsageEvRT_RT0_PKc17TransferMetaFlags
m3h:_SafeHandle_Dispose_m3871883741
nk:_unsetenv
$9:__ZN9GfxDevice29GetMinimumNodesPerGraphicsJobEv
u1a:__ZN17BlendShapeChannel8TransferI24GenerateTypeTreeTransferEEvRT_
r9h:_Parser_NewParseException_m3909819299
x5c:__ZN22BaseUnityConnectClient12CloseServiceEv
b7:__ZN15DirectorManager17OnSampleFixedTimeEv
bUb:__ZNK13RendererScene21GetDynamicObjectCountEv
cFh:_Enumerator_System_Collections_IEnumerator_get_Current_m1805365227_AdjustorThunk
Dzj:_GC_is_black_listed
XGd:_InputField_set_caretSelectPositionInternal_m2063243072
dtb:__ZN24GenerateTypeTreeTransfer32TransferSTLStyleArrayWithElementI23ManagedObjectTransfererEEvRT_17TransferMetaFlags
iZh:_InternalEnumerator_1_System_Collections_IEnumerator_get_Current_m3043347404_AdjustorThunk
$uj:__ZN6il2cpp6icalls8mscorlib6System11Environment12get_PlatformEv
KLe:_WriteDelegate_BeginInvoke_m2985235908
t3d:_DateTimeOffset_get_Offset_m2335492074_AdjustorThunk
toe:_Component_GetComponentsInChildren_TisRuntimeObject_m1992201622_gshared
$Oc:_UNITY_FT_Destroy_Class_tt_driver_class
AGe:_Int32_System_IConvertible_ToChar_m719315943_AdjustorThunk
Wr:__GLOBAL__sub_I_runtime_animation_0_cpp
C7h:_Match__ctor_m478172746
tke:_Array_InternalArray__Insert_TisWorkRequest_t1154022482_m452198486_gshared
jdc:__Z42Register_UnityEngine_Behaviour_get_enabledv
aQe:_Math_Pow_m3099781906
V9i:__ZN6il2cpp2vm14TypeNameParser23ParseNestedTypeOptionalERi
NRe:_MonoType_ReorderParamArrayArguments_m979187413
$nf:_BigInteger_ToString_m1842353154
bFj:__ZN6il2cpp2os13FastMutexImplC2Ev
fSh:_InternalEnumerator_1_get_Current_m2882946014_gshared
g8a:__ZN30RuntimeInitializeOnLoadManager9ClassInfo8TransferI14SafeBinaryReadEEvRT_
R2h:_GCHandle_Equals_m170815541_AdjustorThunk
tQb:__ZL13RenderCastersiRK8Vector3fS1_RK13ShadowJobDataR17ShaderPassContextRKNSt3__26vectorI16ShadowCasterData13stl_allocatorIS9_L18MemLabelIdentifier2ELi16EEEERKNS8_I20ShadowCasterPartDataSA_ISG_LSB_2ELi16EEEERK15RenderNodeQueuebPKj
ol:_emscripten_glGetShaderInfoLog
dgd:_RIPEMD160Managed_Compress_m3844168032
N3d:_DBNull_System_IConvertible_ToInt32_m3596596664
nGe:_Int16_ToString_m1247017262_AdjustorThunk
UQc:_UNITY_ft_glyphslot_set_bitmap
Zwc:__ZN14b2PolygonShape3SetEPK6b2Vec2i
c0:__ZN24GenerateTypeTreeTransfer18SetScriptingObjectE18ScriptingObjectPtri
RGe:_Int32_System_IConvertible_ToType_m573330549_AdjustorThunk
PPg:_CustomAttributeTypedArgument_Equals_m1555989603
Lvj:__ZN6il2cpp2os6ThreadC2EPNS0_10ThreadImplE
Q_b:__ZN6prcoreL11inner_clearILj3EEEvPhjjj
THa:__Z29FindReflectionProbeFromAnchorP9TransformRK4AABBRS1_RsS5_
tae:_CultureInfo_insert_into_shared_tables_m348522444
rLf:_Interval_Merge_m1170166798
EQf:_WellKnownServiceTypeEntry__ctor_m1109686429
hXc:_Read_CVT_Stretched
d6i:__ZN6il2cpp6icalls8mscorlib6System18CollectTypeMethodsINS_5utils10functional10TrueFilterEEEvP11Il2CppClassPKS7_jRKT_RNSt3__26vectorIPK10MethodInfoNSE_9allocatorISI_EEEERA65535_b
D6e:_Enumerator_get_Current_m2566716693_AdjustorThunk
FEb:__Z14SetPlayerPause11PlayerPauseb
IBd:_FontData_get_defaultFontData_m3296571046
Iyb:__ZN18StreamedBinaryReadILb1EE8TransferI13dynamic_arrayIfLj4EEEEvRT_PKc17TransferMetaFlags
Ami:_Object_Internal_CloneSingle_m1822942073
pHd:_InputField_InPlaceEditing_m1040314765
g_:__Z30scripting_stack_trace_info_for21ScriptingExceptionPtrR14StackTraceInfo
SOj:_glCompressedTexSubImage3D__wrapper
QKi:_AudioExtensionManager_AddSpatializerExtension_m1061433739
BOa:__ZN18ShadowMapJobHeaderD0Ev
Fej:__ZN15dense_hashtableINSt3__24pairIK10KeyWrapperINS1_IPK12PropertyInfoP11Il2CppClassEEEjEES9_17ReflectionMapHashIS8_EN14dense_hash_mapIS9_jSD_NS9_14EqualsComparerINS0_8equal_toIS8_EEEENS0_9allocatorISB_EEE9SelectKeyESI_SK_EC2ERKSN_j
wI:__ZN15AudioReverbZone7CleanupEv
K9:__ZN10BufferGLESD0Ev
lEb:__Z20scripting_gc_disablev
OYh:_InternalEnumerator_1_System_Collections_IEnumerator_get_Current_m790514740_gshared
TKi:_AudioSettings_GetSpatializerPluginName_m698617843
qld:__Z9NullCheckPv
U8c:__ZN22UnityAnalyticsSettings8TransferI14SafeBinaryReadEEvRT_
cxc:__ZNK14b2PolygonShape9TestPointERK11b2TransformRK6b2Vec2
hEc:__ZN22FindParticleCollisions22ProcessFoundCollisionsERKfRK13dynamic_arrayI15BatchedRaycastsLj4EERS2_I20BatchedRaycastResultLj4EERS2_I21BatchedColliderResultLj4EE
xVc:_cf2_hintmask_isNew
Jyb:__Z29Transfer_Blittable_ArrayFieldI18StreamedBinaryReadILb1EEfEvRT_R9ArrayInfoRK23StaticTransferFieldInfo
Nje:_Array_InternalArray__Insert_TisIntPtr_t_m3232864760_gshared
pma:__ZN6prcoreL26RemapGenericIntegerToFloatI17TexFormatARGB888818TexFormatARGBFloatEEvPKNS_9InnerInfoE
bMi:__ZL24UnresolvedVirtualCall_10P12Il2CppObjectPK10MethodInfo
ETj:_emscripten_glCompressedTexSubImage2D__wrapper
Xcd:_DSA_FromXmlString_m2141326025
azj:__ZN6il2cpp6icalls8mscorlib6System7Runtime16CompilerServices14RuntimeHelpers15InitializeArrayEP11Il2CppArrayi
dad:__ZZN18UnityConnectClient23RegisterGlobalCallbacksEvEN46EarlyUpdateUnityConnectClientUpdateRegistrator7ForwardEv
HHh:_Dictionary_2_System_Collections_IDictionary_Remove_m2901901588_gshared
Kji:_Input_get_touchCount_m814531925
NGc:__ZN16b2ContactManager7CollideEv
j5i:__ZN6il2cpp2vmL29SocketPollingThreadEntryPointEPv
$1d:_DateTime_GetNow_m1004310079
f4g:__Z97RuntimeInvoker_Void_t1841601450_RuntimeObject_Int32_t2071877448_SByte_t454417549_SByte_t454417549PFvvEPK10MethodInfoPvPS4_
D1a:__ZN10Matrix4x4f8TransferI18StreamedBinaryReadILb0EEEEvRT_
FCi:_CachedInvokableCall_1_Invoke_m3335223860_gshared
EAf:_SslStreamBase_get_Length_m763159069
Ymf:_Comparison_1_Invoke_m4190993814_gshared
hM:__ZN4FMOD7Channel19getReverbPropertiesEP29FMOD_REVERB_CHANNELPROPERTIES
C_h:_InternalEnumerator_1_get_Current_m906360510_AdjustorThunk
X5d:_StackFrame_GetSecureFileName_m389986943
ZQf:_FormatterConverter_ToInt16_m2774942580
Hxd:_CanvasScaler_HandleConstantPixelSize_m229625308
vX:__GLOBAL__sub_I_platformdependent_webgl_source_0_cpp
oTb:__ZL23NormalizeRobustInternalRK8Vector3fRfS2_f
GWi:_UnityAnalyticsHandler_InternalDestroy_m483041424
Mxd:_CanvasUpdateRegistry_PerformUpdate_m2200492017
gpa:__ZNSt3__26vectorINS_4pairIyP17VertexDeclarationEENS_9allocatorIS4_EEE6insertENS_11__wrap_iterIPKS4_EERS9_
JKc:__GLOBAL__sub_I_modules_terrain_public_2_cpp
QYf:_UTF32Encoding_GetCharCount_m3319809517
V5i:__ZN6il2cpp6icalls8mscorlib6System8MonoType13GetInterfacesEP20Il2CppReflectionType
iT:__ZN11UnityEngine15CloudWebService25WebRequestDownloadHandler7OnAbortEv
lO:__ZN9AudioClip16EnableLegacyModeEv
HHb:__ZN23ManagedAttributeManager15InitializeClassEv
Zvj:__ZN6il2cpp2os6Thread22SetNativeThreadCleanupEPFvPvE
E7i:_il2cpp_class_from_system_type
nwi:_TouchScreenKeyboard_Open_m4126304679
fn:FUNCTION_TABLE_vdd
csb:__Z18Transfer_BlittableI24GenerateTypeTreeTransferLb1E10ColorRGBAfEvRK29SerializationCommandArgumentsR31RuntimeSerializationCommandInfo
pla:__ZN6prcoreL17RemapGenericFloatI18TexFormatRGBAFloat16TexFormatRGFloatEEvPKNS_9InnerInfoE
vre:_MSCompatUnicodeTable_FillCJKCore_m1100372933
u5i:__ZN6il2cpp6icalls8mscorlib6System8MonoType8get_NameEP20Il2CppReflectionType
Cob:__ZNSt3__26vectorI10RectOffset13stl_allocatorIS1_L18MemLabelIdentifier1ELi16EEE8__appendEj
hZd:_DateTime_op_Inequality_m1607380213
ut:__ZN21AnimationClipPlayable22PrepareAnimationEventsEfR13dynamic_arrayI22AnimationClipEventInfoLj4EE
Yne:_Dictionary_2_Do_ICollectionCopyTo_TisRuntimeObject_m4050345195_gshared
rbe:_Array_InternalArray__ICollection_Contains_TisResourceCacheItem_t333236149_m1769941464_gshared
Oza:__ZN15dense_hashtableINSt3__24pairIKN4core12basic_stringIcNS2_20StringStorageDefaultIcEEEEP20ArchiveStorageReaderEES6_20StringHash32FunctionIS6_EN14dense_hash_mapIS6_S9_SC_NS0_8equal_toIS6_EE13stl_allocatorISA_L18MemLabelIdentifier55ELi16EEE9SelectKeyESF_SI_E9copy_fromERKSL_j
hrj:__ZN14dense_hash_mapI10KeyWrapperIP12Il2CppObjectEN6il2cpp2gc9CachedCCWENS4_5utils11PointerHashIS1_EENS3_14EqualsComparerINSt3__28equal_toIS2_EEEENSB_9allocatorINSB_4pairIKS3_S6_EEEEE13set_empty_keyERSH_
_o:FUNCTION_TABLE_ff
l$a:__ZNSt3__218__stable_sort_moveIRNS_4lessI4PPtrI11SpriteAtlasEEENS_11__wrap_iterIPS4_EEEEvT0_SA_T_NS_15iterator_traitsISA_E15difference_typeEPNSD_10value_typeE
ap:FUNCTION_TABLE_fi
Bqd:_BaseEventData_set_selectedObject_m2198139983
Rz:__ZNSt3__227__insertion_sort_incompleteIRN11UnityEngine9Animation11BindingSortEPNS_4pairINS2_14GenericBindingEPNS2_10BoundIndexEEEEEbT0_SB_T_
mGj:__ZN6il2cpp2vm16GenericContainer19GetGenericParameterEPK22Il2CppGenericContainert
ZPd:_Char_System_IConvertible_ToSingle_m2547558725_AdjustorThunk
GVg:_PropertyBuilder_GetSetMethod_m3440414495
sii:_UnityEventBase_FindMethod_m3314394402
xd:_emscripten_glGetAttribLocation
fIb:__ZZ23InitPlayerLoopCallbacksvEN39PostLateUpdateResetInputAxisRegistrator7ForwardEv
_K:__ZN4FMOD12ChannelGroup14getParentGroupEPPS0_
Uyf:_SslClientStream_add_ServerCertValidation_m684653638
Bd:_emscripten_set_blur_callback
Rsi:_Rect_Contains_m846865666_AdjustorThunk
vEj:__GLOBAL__sub_I_MemoryMappedFile_cpp
cQj:___cxa_pure_virtual__wrapper
eja:__ZNK14ImageReference9ClipImageEiiii
dRb:__ZN10Matrix4x4f30SetPositionAndOrthoNormalBasisERK8Vector3fS2_S2_S2_
Qwa:__ZN5RectTIfE8TransferI24GenerateTypeTreeTransferEEvRT_
seh:__Z87RuntimeInvoker_Void_t1841601450_RuntimeObject_Vector3_t2243707580_HitInfoU26_t216915145PFvvEPK10MethodInfoPvPS4_
v4h:_CrossAppDomainSink__cctor_m1547233779
Sqe:_TableRange__ctor_m1944319286_AdjustorThunk
eLb:__ZN12FlareManager6UpdateEv
AQj:_glColorMask__wrapper
ugg:__ZL59_ConstructorInfo_t3269099341_CustomAttributesCacheGeneratorP21CustomAttributesCache
Gsh:_RawImage_get_mainTexture_m3865646934
ize:_X509CertificateEnumerator_MoveNext_m1031936092
Zmj:__ZN6il2cpp6icalls8mscorlib6System4Type29GetGenericTypeDefinition_implEP20Il2CppReflectionType
huf:_TlsStream__ctor_m2982031560
xFf:_X509EnhancedKeyUsageExtension__ctor_m4050164330
OXh:_InternalEnumerator_1_get_Current_m2198364332_AdjustorThunk
P5a:__ZN27GenericSlowGarbageCollector16ProcessReferenceEi
sPf:_RealProxy_InternalGetProxyType_m858618403
J8d:_FieldAccessException__ctor_m1240495912
odi:_Uri_HexUnescapeMultiByte_m25670899
zxd:_CanvasScaler_set_dynamicPixelsPerUnit_m742632820
OIj:_fopen
jOc:__ZN20TextRenderingPrivate8FontImplD2Ev
TU:__ZN19CloudServiceHandler8SaveFileERKN4core12basic_stringIcNS0_20StringStorageDefaultIcEEEEPKvj
hrd:_BaseInputModule_HandlePointerExitAndEnter_m1570886840
SIf:_X509EnhancedKeyUsageExtension_CopyFrom_m1426370958
uRj:_glFramebufferTexture2D__wrapper
rGj:__ZN6il2cpp6icalls8mscorlib6System7Runtime8Remoting7Proxies9RealProxy27InternalGetTransparentProxyEP12Il2CppObjectP12Il2CppString
S2e:_List_1_AddEnumerable_m1000825969_gshared
luj:__ZN6il2cpp2vm6Method10IsInflatedEPK10MethodInfo
gzj:__ZNK6il2cpp8metadata14Il2CppTypeLessclEPK10Il2CppTypeS4_
aAj:_GC_remove_header
_7a:__ZNSt3__26vectorIi13stl_allocatorIiL18MemLabelIdentifier13ELi16EEE8__appendEj
Psi:_Rect_Contains_m3575749021_AdjustorThunk
QCe:_RegionInfo_GetHashCode_m1038358761
Uki:_Mathf_Lerp_m1928161522
P4h:_ConfigHandler_ReadCustomProviderData_m784203316
hFa:__ZNSt3__26vectorI17SortingLayerEntryNS_9allocatorIS1_EEE7reserveEj
dvf:_Context_set_MasterSecret_m1422386411
ovb:__Z19TransferField_ArrayI19StreamedBinaryWriteILb0EE27Converter_UnityEngineObjectEvRK23StaticTransferFieldInfoR31RuntimeSerializationCommandInfoRT0_
bBc:__ZN10ClipperLib7Clipper15AddLocalMinPolyEPNS_5TEdgeES2_RKNS_8IntPointE
Brf:_RSAManaged_ToXmlString_m2606223477
z9h:_CharacterClass__ctor_m1318163925
Hih:__Z150RuntimeInvoker_Void_t1841601450_Vector3_t2243707580_Color32_t874517518_Vector2_t2243707579_Vector2_t2243707579_Vector3_t2243707580_Vector4_t2243707581PFvvEPK10MethodInfoPvPS4_
Tfa:__Z16GetMSAALevelDesc9MSAALevel
KJb:__ZN8Renderer27EnsureTransformInfoUpToDateEv
l8:__ZN15dense_hashtableINSt3__24pairIKN4core12basic_stringIcNS2_20StringStorageDefaultIcEEEEP11AssetBundleEES6_20StringHash32FunctionIS6_EN14dense_hash_mapIS6_S9_SC_NS0_8equal_toIS6_EENS0_9allocatorISA_EEE9SelectKeyESF_SH_E9copy_fromERKSK_j
eWj:_emscripten_glFrontFace__wrapper
Na:invoke_fiffi
HEj:__ZN6il2cpp5utils6Memory6CallocEjj
a2:__ZN14SerializedFile14SerializedType8ReadTypeILb1EEEbibRPKhS3_Pi
pRj:_emscripten_glRenderbufferStorage__wrapper
OSa:__ZN8Playable7SetTimeEd
RZ:__ZN13RuntimeStaticI12GraphicsCapsLb0EE16StaticInitializeEPv
l0a:__ZN9Texture3D17UploadToGfxDeviceEv
Rsc:__Z18Transfer_BlittableI8JSONReadLb1E8Vector4fEvRK29SerializationCommandArgumentsR31RuntimeSerializationCommandInfo
tRc:_tt_cmap2_validate
Lxf:_HttpsClientStream_U3CHttpsClientStreamU3Em__1_m4293802471
cWc:_cff_cmap_unicode_done
iGe:_NumberFormatter_Init_m1515770916
Nbi:_Literal_Compile_m3864266818
bEb:__ZN9Scripting20SendScriptingMessageER10GameObjectPKc18ScriptingObjectPtr
BEb:__Z26IsSplashScreenFadeCompletev
UMa:__Z17SendMessageDirectR6ObjectRK17MessageIdentifierR11MessageData
rHd:_InputField_LateUpdate_m1045279070
Kdc:__Z42Register_UnityEngine_Camera_get_clearFlagsv
X5i:__ZNSt3__26__treeIP11Il2CppClassNS_4lessIS2_EENS_9allocatorIS2_EEED2Ev
XHh:_Dictionary_2_InitArrays_m852496598_gshared
vTh:_InternalEnumerator_1_get_Current_m1389169756_gshared
XXf:_StringBuilder_set_Chars_m1019094834
aXi:_Physics2D_Raycast_m2247349452
sXb:__ZN13RenderManager27UpdatePreviousFrameMatricesEv
zwb:__Z35Transfer_Blittable_FixedBufferFieldI18StreamedBinaryReadILb1EExEvRK29SerializationCommandArgumentsR31RuntimeSerializationCommandInfo
$Od:_Byte_System_IConvertible_ToUInt64_m2667486567
V3:__Z22SetManagerPtrInContextiP6Object
K6a:__ZN14PlayerSettings8TransferI19StreamedBinaryWriteILb0EEEEvRT_
Bsc:__Z18Transfer_BlittableI8JSONReadLb0E10ColorRGBAfEvRK29SerializationCommandArgumentsR31RuntimeSerializationCommandInfo
Edf:_Collection_1_Remove_m2017992820_gshared
Kje:_Array_InternalArray__Insert_TisInt16_t4041245914_m371511339_gshared
sQg:_ConstructorBuilder_get_next_table_index_m932085784
HGh:_ValueCollection_System_Collections_ICollection_get_SyncRoot_m919209341_gshared
e2i:__ZN15dense_hashtableINSt3__24pairIK10KeyWrapperIN6il2cpp5utils13dynamic_arrayIPK10Il2CppTypeLj4EEEEPFvvEEESA_NS3_8metadata19Il2CppSignatureHashEN14dense_hash_mapISA_SD_SG_NSA_14EqualsComparerINSF_22Il2CppSignatureCompareEEENS0_9allocatorISE_EEE9SelectKeyESK_SM_E14squash_deletedEv
$xh:_Slider_UpdateDrag_m1963963631
iUf:_SByte_Equals_m755715567
_5:__ZN15DirectorManagerD2Ev
Wre:_SortKeyBuffer_AppendNormal_m2554296431
H2b:__ZNK30SpriteRendererAnimationBinding15GenerateBindingERKN4core12basic_stringIcNS0_20StringStorageDefaultIcEEEEbRN11UnityEngine9Animation14GenericBindingE
ieh:__Z87RuntimeInvoker_Void_t1841601450_Int32_t2071877448_Single_t2076509932_Single_t2076509932PFvvEPK10MethodInfoPvPS4_
Ioj:__ZN6il2cpp6icalls8mscorlib6System13Globalization11CultureInfo45construct_internal_locale_from_current_localeEP17Il2CppCultureInfo
KJg:__ZL70InputField_t1631627530_CustomAttributesCacheGenerator_m_CaretBlinkRateP21CustomAttributesCache
Ife:_Array_IndexOf_TisCustomAttributeNamedArgument_t94157543_m2205974312_gshared
Tqa:__ZN15TextureTFMethod16BindForRenderingEj
Mbe:_Array_InternalArray__ICollection_Contains_TisUICharInfo_t3056636800_m2001435744_gshared
hLh:_DefaultComparer_GetHashCode_m3250641461_gshared
OJf:_Key_ToString_m1129871742
TLd:_Array_Sort_m1417611156
fJj:_access
T1g:__Z59RuntimeInvoker_RuntimeObject_RuntimeObject_Int64_t909078037PFvvEPK10MethodInfoPvPS4_
bpj:__ZN15dense_hashtableINSt3__24pairIK10KeyWrapperINS1_IPKcS4_EEEiEES6_24NamespaceAndNamePairHashN14dense_hash_mapIS6_iS9_NS6_14EqualsComparerI26NamespaceAndNamePairEqualsEENS0_9allocatorIS8_EEE9SelectKeyESD_SF_E4findERS7_
iwc:__ZN11UnityEngine9Analytics33PerformanceReportingRenderingInfoC2Ei
OLc:__ZN20TextRenderingPrivate8FontImpl13CharacterInfo8TransferI19StreamedBinaryWriteILb0EEEEvRT_
m4i:__ZN6il2cpp2os19SocketHandleWrapper7ReleaseEv
Xzd:_DefaultControls_CreateRawImage_m2572997170
E0f:_TimeSpan_get_TotalDays_m3496775483_AdjustorThunk
B5a:__ZNSt3__27__sort4IRNS_6__lessINS_4pairIPKN5Unity4TypeE7Hash128EES8_EEPS8_EEjT0_SC_SC_SC_T_
fxa:__ZNK11NamedObject22GetTypeVirtualInternalEv
n$f:_Thread_Start_m1419497481
fyi:_Vector3_set_Item_m2026854946
Xeh:__Z94RuntimeInvoker_Void_t1841601450_RuntimeObject_PlayableGraph_t1041204988_RuntimeObject_IntPtr_tPFvvEPK10MethodInfoPvPS4_
dpe:_Array_InternalArray__get_Item_TisDictionaryEntry_t3048875398_m2371191320_gshared
NIg:__ZL62FontData_t2614388407_CustomAttributesCacheGenerator_m_RichTextP21CustomAttributesCache
Y3g:__Z65RuntimeInvoker_Double_t4078015681_RuntimeObject_Int32_t2071877448PFvvEPK10MethodInfoPvPS4_
jRh:_InternalEnumerator_1_get_Current_m2351441486_gshared
KEh:_Enumerator_System_Collections_IEnumerator_Reset_m1146954164_AdjustorThunk
Emc:__ZN11IMGUIModule21QueryGUIDisplayTargetE17ScriptingClassPtr
cbc:__ZN11UTF16StringC2ERKS_18MemLabelIdentifier
h1i:__ZNSt3__27__sort4IRN6il2cpp5utils11collections13ArrayValueMapIPK10Il2CppType17Il2CppInteropData26InteropDataToTypeConverterNS1_8metadata14Il2CppTypeLessENSA_26Il2CppTypeEqualityComparerEE12SortComparerEPS8_EEjT0_SH_SH_SH_T_
rMj:dynCall_vidi
U9c:__ZN11UnityEngine15PlatformWrapper14GetCloudUserIdEv
bjf:_ReadOnlyCollection_1_System_Collections_IList_Remove_m2350545199_gshared
bMj:___udivdi3
Xac:__ZN11PlayerPrefs9SetStringERKN4core12basic_stringIcNS0_20StringStorageDefaultIcEEEES6_
rBi:_GUILayoutGroup_ToString_m3992339043
SCj:__ZN6il2cpp6icalls8mscorlib6System8Delegate18SetMulticastInvokeEP14Il2CppDelegate
REc:__ZL18b2FindIncidentEdgeP12b2ClipVertexPK14b2PolygonShapeRK11b2TransformiS3_S6_
qJd:_LayoutGroup_get_minHeight_m2270010946
US:__ZN11UnityEngine15CloudWebService20WebRequestRestClient5BeginEv
Qpf:_ARC4Managed_GenerateIV_m2815460576
myi:_Vector3_get_normalized_m1057036856_AdjustorThunk
Sld:_String_Substring_m2032624251
Z4b:__ZN8Material12CleanupClassEv
W1d:_DateTime_get_DayOfWeek_m2345429939_AdjustorThunk
h2f:_Type_GetTypeCode_m1044483454
S1h:_ResourceSet_GetObjectInternal_m3556256510
zrb:__Z22TransferField_NonArrayI17RemapPPtrTransfer27Converter_SimpleNativeClassI10RectOffsetEEvRK23StaticTransferFieldInfoR31RuntimeSerializationCommandInfoRT0_
jZd:_DateTimeOffset__ctor_m2870721395
lM:__ZN20SoundChannelInstance11set3DSpreadEf
Gz:__ZNSt3__26__sortIRN11UnityEngine9Animation11BindingSortEPNS_4pairINS2_14GenericBindingEPNS2_10BoundIndexEEEEEvT0_SB_T_
Ood:_String_ReplaceFallback_m64616664
RYg:_MonoMethod_GetCustomAttributes_m2493833930
A6a:__ZN24GenerateTypeTreeTransfer32TransferSTLStyleArrayWithElementI16SplashScreenLogoEEvRT_17TransferMetaFlags
_bj:__ZN15dense_hashtableINSt3__24pairIK10KeyWrapperINS1_IPK9FieldInfoP11Il2CppClassEEEjEES9_17ReflectionMapHashIS8_EN14dense_hash_mapIS9_jSD_NS9_14EqualsComparerINS0_8equal_toIS8_EEEENS0_9allocatorISB_EEE9SelectKeyESI_SK_E6insertERKSB_
m$i:__ZN14dense_hash_mapI10KeyWrapperIPKcEP11Il2CppClassN6il2cpp5utils11StringUtils12StringHasherIS2_EENS3_14EqualsComparerINS7_13VmStringUtils21CaseSensitiveComparerEEENSt3__29allocatorINSF_4pairIKS3_S5_EEEEEC2EjRKSA_RKSE_
aui:_Vector2_get_one_m542290559
GGe:_Int32_System_IConvertible_ToDouble_m3322226667_AdjustorThunk
gje:_Array_InternalArray__ICollection_CopyTo_TisPlayableBinding_t2498078091_m2296273826_gshared
a5:__Z37InitializeIntermediateRendererManagerPv
szj:_GC_log_printf
odc:__Z27Camera_Get_Custom_PropDepthP12Il2CppObject
DUf:_CodeAccessPermission_ToString_m3345031296
Msj:__ZN6il2cpp2vm6Object5UnboxEP12Il2CppObject
$Cf:_FtpWebRequest__ctor_m3003551676
oxe:_EncryptedPrivateKeyInfo__ctor_m832236482
OZ:__ZN23DefaultMeshVertexFormatC2E17ShaderChannelMask
Uwb:__ZL26Transfer_SimpleNativeClassI18StreamedBinaryReadILb1EE8GradientLb1EEvRK29SerializationCommandArgumentsR31RuntimeSerializationCommandInfo
_md:_Single_Equals_m3359827399
Z_f:_Thread_FreeLocalSlotValues_m2948667652
yfa:__ZN7ApiGLES10InvalidateERK14GfxContextGLES
Xue:_ASN1Convert_ToOid_m2695991795
nYc:_UNITY_FT_Init_Class_tt_service_truetype_glyf
lki:_ManagedStreamHelpers_ValidateLoadFromStream_m733853519
_Ej:__ZN6il2cpp2os5Mutex7TryLockEjb
WY:__Z20IsVectorBuiltinParamPKcPi
jsj:__ZN6il2cpp2vm5Field8GetFlagsEP9FieldInfo
aXh:_InternalEnumerator_1_get_Current_m727737343_AdjustorThunk
Xkj:__ZN6il2cpp6icalls8mscorlib6System10ReflectionL16LoadResourceFileEP24Il2CppReflectionAssembly
B1:__Z13IsFileCreatedRKN4core12basic_stringIcNS_20StringStorageDefaultIcEEEE
cEj:__ZN6il2cpp6icalls8mscorlib6System21CurrentSystemTimeZone15GetTimeZoneDataEiPP11Il2CppArrayS6_
vLi:_AudioExtensionManager_GetListenerSpatializerExtensionType_m3668710088
tWa:__ZN16LightmapSettings18TransferDeprecatedI14SafeBinaryReadEEvRT_
i4a:__ZN8Renderer11SetMaterialE4PPtrI8MaterialEi
Wrj:__ZN15dense_hashtableINSt3__24pairIK10KeyWrapperIP12Il2CppObjectEN6il2cpp2gc9CachedCCWEEES5_NS7_5utils11PointerHashIS3_EEN14dense_hash_mapIS5_S9_SD_NS5_14EqualsComparerINS0_8equal_toIS4_EEEENS0_9allocatorISA_EEE9SelectKeyESI_SK_E5eraseE30dense_hashtable_const_iteratorISA_S5_SD_SM_SI_SK_E
zOg:_Assembly_UnprotectedGetName_m3014607408
snd:_String__cctor_m710226597
RW:__GLOBAL__sub_I_runtime_camera_renderloops_1_cpp
hff:_Collection_1_IsValidItem_m404831699_gshared
d1f:_TimeSpan_Negate_m4198463235_AdjustorThunk
fKa:__ZN12FlareManager9AddCameraER6Camera
cN:__ZN11AudioSource8TransferI14SafeBinaryReadEEvRT_
V8b:__ZN4Mesh17SetIndicesComplexEPKvjj16GfxPrimitiveTypei
Bdf:_Collection_1_Insert_m4010554762_gshared
Su:__ZN7mecanim9animation23TransformDeltasFromClipEiiiRKNS0_18ClipMuscleConstantERKNS0_12ClipBindingsERKNS_14ValueArrayMaskERN4math4trsXESC_SC_
Jme:_Array_Sort_TisRuntimeObject_m1954851512_gshared
Izb:__Z18Transfer_BlittableI18StreamedBinaryReadILb0EELb0E12PropertyNameEvRK29SerializationCommandArgumentsR31RuntimeSerializationCommandInfo
EAc:__ZTv0_n12_N10ClipperLib7ClipperD0Ev
k6h:_ContextAttribute_GetHashCode_m3646968314
Pre:_SimpleCollator_GetSortKey_m540875593
Vfb:__ZN9ShaderLab9IntShader26CreateFromSerializedShaderERKNS_16SerializedShaderERNSt3__26vectorI4PPtrI6ShaderENS4_9allocatorIS8_EEEEbPS7_
qfi:_Camera_INTERNAL_CALL_ScreenPointToRay_m305063597
cKb:__ZN19ShaderPropertySheet16SetComputeBufferEN9ShaderLab16FastPropertyNameE15ComputeBufferIDNS_8SetFlagsE
vwj:__ZNK15dense_hashtableINSt3__24pairIK10KeyWrapperIPK19Il2CppGenericMethodEP10MethodInfoEES6_N6il2cpp8metadata23Il2CppGenericMethodHashEN14dense_hash_mapIS6_S9_SD_NS6_14EqualsComparerINSC_26Il2CppGenericMethodCompareEEENS0_9allocatorISA_EEE9SelectKeyESH_SJ_E5beginEv
Wu:__ZN7mecanim21CreateFloatValueArrayEPKNS_18ValueArrayConstantERNS_6memory9AllocatorE
a$f:_Thread_GetCachedCurrentCulture_m450033007
tUb:__ZL12CullGroupJobP20CullingGroupsJobDataj
yAj:_GC_remove_dangling_disappearing_links
IT:__ZN11UnityEngine15CloudWebService14RestDownloader9IsAbortedEv
ay:__ZN7mecanim12statemachine28DestroyStateMachineWorkspaceEPNS0_21StateMachineWorkspaceERNS_6memory9AllocatorE
Rk:_emscripten_glNormalPointer
unc:__Z30GUIStyle_CUSTOM_SetDefaultFontP12Il2CppObject
ZKf:_Interval_t2354235237_marshal_pinvoke_back
po:FUNCTION_TABLE_f
dp:FUNCTION_TABLE_i
i5d:_Decimal_ToString_m541380585_AdjustorThunk
S7:__ZN11TypeManager12RegisterTypeERK20TypeRegistrationDesc
Gn:FUNCTION_TABLE_v
i1a:__ZNSt3__26vectorI17BlendShapeChannelNS_9allocatorIS1_EEE8__appendEj
JEd:_Image_get_preserveAspect_m2161836851
Np:__ZN18StreamedBinaryReadILb0EE21TransferSTLStyleArrayI13dynamic_arrayI8Vector3fLj4EEEEvRT_17TransferMetaFlags
lIb:__ZZ23InitPlayerLoopCallbacksvEN43PostLateUpdateUpdateAllRenderersRegistrator7ForwardEv
T9a:__ZN21LightProbeProxyVolume13GetRenderDataER27LightProbeProxyVolumeSample
Y0d:_CurrentSystemTimeZone_GetDaylightChanges_m2777828412
m7i:__ZN6il2cpp2vm7Runtime30CallUnhandledExceptionDelegateEP12Il2CppDomainP14Il2CppDelegateP15Il2CppException
GSi:_Predicate_1_Invoke_m577088274_gshared
shi:_Display_GetSystemExtImpl_m4242640572
zPf:_RemotingProxy_get_TypeName_m1400928020
h5a:__ZN11TimeManager8TransferI24GenerateTypeTreeTransferEEvRT_
Ure:_SortKeyBuffer_GetResult_m962852575
Bre:_SimpleCollator_Category_m1504096908
er:__ZNK11UnityEngine9Animation28GenericAnimationBindingCache10BindCustomERKNS0_14GenericBindingER9TransformRNS0_10BoundCurveE
raj:__ZN6il2cpp2vm17TypeNameParseInfoC2ERKS1_
B8c:__ZN18UnityConnectClient17InitConnectClientEv
iQh:_ArrayReadOnlyList_1_ReadOnlyError_m2158247090_gshared
BHj:_memcmp
m2d:_DateTime_CompareTo_m3372173896
c7c:__ZN11UnityEngine7Connect18ConnectSessionInfo8TransferER9JSONWrite
cmi:_MonoBehaviour_StopCoroutine_Auto_m2947240387
Ifi:_Color__ctor_m3831565866
UP:__Z74Register_UnityEngine_AudioListener_INTERNAL_CALL_ReadExtensionPropertyNamev
m4a:__ZN9Scripting32GetCachedPtrFromScriptingWrapperE18ScriptingObjectPtr
l0c:__ZN2UI29ScheduleUIJobsForInstructionsERNS_7BatchesEjPKNS_13UIInstructionEfjjPNS_13CanvasJobDataE
SK:__ZN5audio5mixer22CreateAudioMixerMemoryERKNS0_18AudioMixerConstantEPN4FMOD6SystemERN7mecanim6memory9AllocatorEib
CCb:__ZL65EmitSerializationCommandsForLinearCollectionOfManagedObjectsFieldRK31TransferFunctionScriptingTraitsRK23TransferArrayField_InfoR20SerializationCommandR32SerializationCommandQueueBuilderRP20AllowNameConversions
Dyf:_RSASslSignatureDeformatter_VerifySignature_m3138484348
Die:_Array_InternalArray__ICollection_CopyTo_TisDecimal_t724701077_m1087621311_gshared
wCh:_Enumerator_System_Collections_IDictionaryEnumerator_get_Value_m2325383168_AdjustorThunk
u$d:_Convert_ToInt64_m4280008532
zgc:__Z28Mesh_CUSTOM_SetTrianglesImplP12Il2CppObjectiP11Il2CppArrayih
qKg:__ZL61RawImage_t2749640213_CustomAttributesCacheGenerator_m_TextureP21CustomAttributesCache
lGb:__ZL20ShaderWarmupFuncImplP6ShaderiPN9ShaderLab4PassERK16ShaderKeywordSetP10DynamicVBOPvR17ShaderPassContext
bed:_HMAC_set_Key_m1530357889
_0i:__ZN15dense_hashtableI10KeyWrapperIPK17Il2CppGenericInstES4_N6il2cpp8metadata21Il2CppGenericInstHashEN14dense_hash_setIS4_S7_NS4_14EqualsComparerINS6_24Il2CppGenericInstCompareEEENSt3__29allocatorIS4_EEE8IdentityESB_SE_E6insertERKS4_
qbj:__ZN15dense_hashtableINSt3__24pairIK10KeyWrapperINS1_IPK14Il2CppAssemblyP11Il2CppClassEEEjEES9_17ReflectionMapHashIS8_EN14dense_hash_mapIS9_jSD_NS9_14EqualsComparerINS0_8equal_toIS8_EEEENS0_9allocatorISB_EEE9SelectKeyESI_SK_E3endEv
Rth:_Scrollbar_set_numberOfSteps_m579707524
j8c:__ZN11UnityEngine7Connect17DeviceStatusEventC2Ev
LHj:_fmt_u
wga:__ZN14DataBufferGLES12RecordUpdateEv
e1h:_ResourceManager__cctor_m2190112652
bNc:__ZN20TextRenderingPrivate15DynamicFontData28GetFaceForFontRefFromOSFontsERKNS_7FontRefE
YNe:_StreamWriter__ctor_m4232641237
Osj:__ZN6il2cpp2vm12GenericClass12SetupMethodsEP11Il2CppClass
tkb:__ZNK20LocalFileSystemPosix18GetApplicationPathEv
UZd:_Decimal__ctor_m3876694886
zCb:__ZN9Scripting30IsSystemCollectionsGenericListE17ScriptingClassPtr
EMd:_AttributeUsageAttribute__ctor_m2873156923
E0c:__ZN2UI23InitializeCanvasManagerEv
IDa:__ZN10GameObject16CheckConsistencyEv
Y2b:__ZN14RenderSettings15InitializeClassEv
dFf:_AsnEncodedData_set_Oid_m3568255745
Jec:__Z46Register_UnityEngine_GameObject_get_activeSelfv
rzf:_SslClientStream_OnRemoteCertificateValidation2_m3416857045
DTf:_RuntimeTypeHandle_Equals_m452760426_AdjustorThunk
g3b:__ZL19OnLightProbesUpdatev
S_h:_InternalEnumerator_1_System_Collections_IEnumerator_get_Current_m762846484_AdjustorThunk
bsb:__Z18Transfer_BlittableI24GenerateTypeTreeTransferLb0E10ColorRGBAfEvRK29SerializationCommandArgumentsR31RuntimeSerializationCommandInfo
$_b:__ZN14SpriteRenderer13GetRenderDataEv
WXi:_AnalyticsTracker_OnEnable_m1011291651
k$c:__ZN2UI16GetCanvasManagerEv
$cf:_Collection_1_ConvertItem_m3057301945_gshared
ffc:__Z31RectOffset_Get_Custom_PropRightP12Il2CppObject
HZc:__Z54Register_UnityEngine_TextGenerator_GetVerticesInternalv
vfd:__Z3BoxP11Il2CppClassPv
aae:_CultureInfo_Clone_m2970753766
sKf:_IntStack_Push_m1259764820
Yqa:__ZN21UniformBufferTFMethodD2Ev
GKe:_FileStream_InitBuffer_m2153931481
N2f:_Type_MakeGenericType_m2765875033
zbc:__ZL34GetComponentsImplementationRecurseILb1ELi1ELi2EEbR10GameObjectbRK17CompareParametersRK39GetComponentsImplementation_ReturnValue
ika:__ZN6prcoreL12RemapGenericI15TexFormatRGB56515TexFormatRGB888EEvPKNS_9InnerInfoE
DHd:_InputField_OnEndDrag_m1818224847
iFe:_NumberFormatter_GetInstance_m2421260460
dqe:_AttributeHelperEngine_GetCustomAttributeOfType_TisRuntimeObject_m2532320824_gshared
L1c:__Z41CanvasGroup_Get_Custom_PropBlocksRaycastsP12Il2CppObject
jcb:__ZNSt3__26vectorIN9ShaderLab26SerializedShaderDependencyENS_9allocatorIS2_EEE8__appendEj
UUh:_InternalEnumerator_1_System_Collections_IEnumerator_get_Current_m4242639349_gshared
t3:__ZN32TransformHierarchyChangeDispatch26DispatchSelfAndAllChildrenE15TransformAccessNS_12InterestTypeE
YP:__Z46Register_UnityEngine_AudioSource_get_isPlayingv
eXf:_UTF32Encoding__ctor_m3199945978
r4:__ZN13RuntimeStaticI22VirtualJoystickManagerLb0EE13StaticDestroyEPv
uH:__ZN13AudioListener12ApplyFiltersEv
ZCe:_SortKey_GetHashCode_m2534654444
gbe:_Array_InternalArray__ICollection_Contains_TisInt64_t909078037_m1425723755_gshared
dwf:_HandshakeMessage_Update_m1733566706
WEj:__ZN6il2cpp8metadata27Il2CppGenericContextCompare7CompareEPK20Il2CppGenericContextS4_
tNj:dynCall_viiii
kSd:_ArrayListWrapper_ToArray_m235921330
QWg:_MemberInfoSerializationHolder_Serialize_m4243060728
cAi:_GUIUtility_Internal_GetGUIDepth_m2168931083
Nrh:_MaskableGraphic_OnDisable_m2605143092
vaj:__ZNSt3__214__split_bufferIN6il2cpp2vm17TypeNameParseInfoERNS_9allocatorIS3_EEED2Ev
E2f:_Type_GetConstructor_m663514781
FHe:_Int64_System_IConvertible_ToDouble_m638786774_AdjustorThunk
e7:__ZN15DirectorManager14ConnectionPool16GrowEmptyBucketsEv
fFe:_Int16_ToString_m1247017262
k$:__ZN17PersistentManager32CopyToAwakeFromLoadQueueInternalER18AwakeFromLoadQueue
lCc:__ZN10Collider2D23VirtualRedirectTransferER24GenerateTypeTreeTransfer
PNb:__ZNK6Camera16SetActiveVRUsageEv
v4f:_UInt32_System_IConvertible_ToUInt16_m2798641702
IRj:_emscripten_glDrawElementsInstanced__wrapper
ftc:__ZL26Transfer_SimpleNativeClassI8JSONRead8GradientLb1EEvRK29SerializationCommandArgumentsR31RuntimeSerializationCommandInfo
dIj:_open
B2c:__Z64Register_UnityEngine_CanvasRenderer_CreateUIVertexStreamInternalv
RHc:__ZN6b2Body7SetTypeE10b2BodyType
ykj:__ZN6il2cpp6icalls8mscorlib6System5Array5CloneEP11Il2CppArray
zXb:__Z30GetPlayerShouldRunInBackgroundv
H_h:_InternalEnumerator_1_get_Current_m2986222582_gshared
zYf:_UnicodeEncoding_GetBytes_m4175529985
X0c:__Z13RegisterClassIN2UI6CanvasEEvv
auh:_Selectable_OnDisable_m2660228016
cka:__ZN6prcoreL12RemapGenericI11TexFormatI815TexFormatRGB565EEvPKNS_9InnerInfoE
k9g:__Z75RuntimeInvoker_DateTime_t693205669_DateTime_t693205669_TimeSpan_t3430258949PFvvEPK10MethodInfoPvPS4_
Efa:__ZNK13TranslateGLES17FramebufferTargetEN2gl17FramebufferTargetE
bvj:__ZL11on_gc_event11GCEventType
qjj:__ZNSt3__214__split_bufferIN6il2cpp8metadata18GenericArrayMethodERNS_9allocatorIS3_EEED2Ev
omd:_Single_System_IConvertible_ToBoolean_m2661548087_AdjustorThunk
UFc:__ZNSt3__27__sort5IR31RayHitsByInverseDepthComparitorP12RaycastHit2DEEjT0_S5_S5_S5_S5_T_
zdd:_DSASignatureDeformatter_VerifySignature_m4078616251
vQj:b62
uQj:b61
tQj:b60
NRj:b67
Ege:_Array_InternalArray__IndexOf_TisUInt16_t986882611_m390127593_gshared
LFd:_InputField_set_shouldHideMobileInput_m2478534110
tRj:b64
$od:_String_Concat_m3881798623
ORj:b68
ZSg:_FieldBuilder_IsDefined_m2730324893
Fog:__ZL56FlagsAttribute_t859561169_CustomAttributesCacheGeneratorP21CustomAttributesCache
AJa:__ZNSt3__26__treeINS_12__value_typeIi17ShadowCachingDataEENS_19__map_value_compareIiS3_NS_4lessIiEELb1EEE13stl_allocatorIS3_L18MemLabelIdentifier66ELi16EEE7destroyEPNS_11__tree_nodeIS3_PvEE
xch:__Z102RuntimeInvoker_RuntimeObject_RuntimeObject_RuntimeObject_Int32_t2071877448_RuntimeObject_RuntimeObjectPFvvEPK10MethodInfoPvPS4_
smf:_ReadOnlyCollection_1_System_Collections_IList_Insert_m571902768_gshared
B7g:__Z93RuntimeInvoker_Single_t2076509932_SingleU26_t4173844468_Single_t2076509932_Single_t2076509932PFvvEPK10MethodInfoPvPS4_
vNj:dynCall_iifffi
z9b:__Z9SetIIMGUIP6IIMGUI
qWd:_SyncHashtable_ContainsKey_m3408601214
LRc:_tt_cmap10_get_info
aFb:__Z28SetupPixelCorrectCoordinatesi
v7b:__ZNSt3__218__insertion_sort_3IRN10vector_mapIiiNS_4lessIiEE13stl_allocatorINS_4pairIiiEEL18MemLabelIdentifier1ELi16EEE13value_compareEPS6_EEvT0_SD_T_
Yfa:__Z5SplitRKN4core12basic_stringIcNS_20StringStorageDefaultIcEEEEcRNSt3__26vectorIS3_NS6_9allocatorIS3_EEEEi
kZi:__ZN6il2cpp2vmL10InitLockedEP11Il2CppClassRKNS_2os12FastAutoLockE
$$:__ZN17ScriptingGCHandle28ResolveBackendNativeGCHandleEj
$Kh:_DefaultComparer_Equals_m524689061_gshared
U6b:__ZN13PlayableGraph16DestroyRecursiveEP8Playable
Akc:__ZNK19RectangleCellLayout11CellToLocalERKN4Grid9GridStateERKN4math7_float3E
o6d:_Double_System_IConvertible_ToType_m4036266196_AdjustorThunk
FH:__ZN12AudioManagerD0Ev
JHj:___fwritex
Yb:invoke_viiififii
ALe:_Stream_EndRead_m2148943753
R5a:__ZNK22GenericPropertyBinding13SetFloatValueERKN11UnityEngine9Animation10BoundCurveEf
P2b:__ZN6ShaderC2E18MemLabelIdentifier18ObjectCreationMode
NKj:__ZNSt3__211char_traitsIcE4findEPKcjRS2_
zYc:_raccess_guess_darwin_ufs_export
EHb:__ZN11TypeManager18InitializeAllTypesEv
CF:__ZN9AudioClipD0Ev
yDi:_InvokableCall_3_Invoke_m2530072389_gshared
cce:_Array_InternalArray__ICollection_Remove_TisKeyValuePair_2_t38854645_m3060436673_gshared
j$e:_List_1_Find_m3480386930_gshared
KMh:_EqualityComparer_1__cctor_m51007461_gshared
Jw:__ZN27AnimationLayerMixerPlayable26ProcessAnimationLayerBeginEP35AnimationPlayableEvaluationConstantP32AnimationPlayableEvaluationInputP33AnimationPlayableEvaluationOutput
g0b:__Z13RegisterClassI8GUILayerEvv
v_b:__ZN25ThreadsafeLinearAllocatorC2EiiPKc
nse:_SimpleCollator_IsSuffix_m740049399
doa:__ZN14GfxContextGLES11MakeCurrentER7ApiGLESN2gl13ContextHandleE
ioi:_PKCS12__cctor_m3312759338
aXc:_UNITY_tt_glyphzone_new
nuf:_RecordProtocol_BeginSendRecord_m166940611
jRe:_ShortComparer_Compare_m1398180168
CQi:_TextGenerationSettings_CompareColors_m2745847049_AdjustorThunk
fkg:__ZL56SecurityAction_t446643378_CustomAttributesCacheGeneratorP21CustomAttributesCache
jGb:__ZN16GraphicsSettings22WarmupPreloadedShadersEv
Y2c:__Z34Canvas_Set_Custom_PropSortingOrderP12Il2CppObjecti
MMe:_MonoIO_get_ConsoleError_m592181393
AAb:__ZN18StreamedBinaryReadILb0EE8TransferI13dynamic_arrayI12PropertyNameLj4EEEEvRT_PKc17TransferMetaFlags
mgb:__ZN9ShaderLab4Pass6RetainEv
IUi:__ZL11decimalLog2P19il2cpp_decimal_repr
Oyf:_SslCipherSuite_prf_m2084589217
cb:invoke_iiiiiiffiiiiiiiiiffffiii
j_c:__ZN2UI6Canvas8TransferI14SafeBinaryReadEEvRT_
ewc:__ZN11UnityEngine9Analytics18RenderingInfoEvent12ToJsonStringER9JSONWrite
oeh:__Z51RuntimeInvoker_Color32_t874517518_Color_t2020392075PFvvEPK10MethodInfoPvPS4_
enj:__ZN6il2cpp6icalls8mscorlib6System4Type23type_is_assignable_fromEP20Il2CppReflectionTypeS5_
Acj:__ZN6il2cpp2gc19AppendOnlyGCHashMapIPK10Il2CppTypeP20Il2CppReflectionTypeNS_8metadata14Il2CppTypeHashENS7_26Il2CppTypeEqualityComparerEE3AddERKS4_S6_
OQ:__ZN11UnityEngine15CloudWebService17CloudJobScheduler11ScheduleJobEPFvPvES2_
iAg:__ZL57CSSMeasureFunc_t2092170507_CustomAttributesCacheGeneratorP21CustomAttributesCache
ODe:_Guid_Equals_m2389236871_AdjustorThunk
XR:__ZN11UnityEngine15CloudWebService17CloudServiceEvent12ToJsonStringER9JSONWrite
U4:__ZNK18VertexChannelsInfoltERKS_
Skg:__ZL93ASCIIEncoding_t3022927988_CustomAttributesCacheGenerator_ASCIIEncoding_GetDecoder_m3693600923P21CustomAttributesCache
epc:__ZN9JSONWrite8TransferIfEEvRT_PKc17TransferMetaFlags
Ryd:_ContentSizeFitter_SetLayoutHorizontal_m2830034151
PBa:__ZN10MemoryFileD0Ev
obc:__ZN10MonoScript27InitializeAndRegisterScriptERKN4core12basic_stringIcNS0_20StringStorageDefaultIcEEEES6_S6_S6_b
qVf:_DES_set_Key_m2689203108
UIb:__Z23DrawSplashAndWatermarksv
NRh:_InternalEnumerator_1_get_Current_m1526874475_gshared
$pe:_Array_InternalArray__get_Item_TisWorkRequest_t1154022482_m2456727038_gshared
Ani:_SubjectAltNameExtension_ToString_m1300810903
Oxe:_RSAManaged_ImportParameters_m2382611442
cob:__ZN13GUIStyleState8TransferI14SafeBinaryReadEEvRT_
r0h:_Comparer_1_System_Collections_IComparer_Compare_m2490067344_gshared
q8h:_PatternCompiler_EmitSet_m866698437
Sd:_glDrawArrays
VTi:_CanvasRenderer_SetAlphaTexture_m1030438445
Shf:_ReadOnlyCollection_1_System_Collections_IList_Add_m527174473_gshared
iUh:_InternalEnumerator_1_System_Collections_IEnumerator_get_Current_m127456009_AdjustorThunk
cKi:_HashSet_1_System_Collections_Generic_ICollectionU3CTU3E_CopyTo_m1933244740_gshared
vlg:__ZL54UTF8Encoding_t111055448_CustomAttributesCacheGeneratorP21CustomAttributesCache
SD:__ZN23AnimatedPropertyBuilder5BuildEP13AnimationClip18ScriptingObjectPtr
UJd:_LayoutRebuilder_LayoutComplete_m498127808
Bhe:_Array_InternalArray__ICollection_Add_TisInt32_t2071877448_m1775306598_gshared
Xbe:_Array_InternalArray__ICollection_Remove_TisChar_t3454481338_m1562002771_gshared
BHe:_Int64_System_IConvertible_ToDateTime_m1002280174_AdjustorThunk
nkc:__ZNSt3__26__treeINS_12__value_typeI7Hash12816CrashReportEventEENS_19__map_value_compareIS2_S4_NS_4lessIS2_EELb1EEE13stl_allocatorIS4_L18MemLabelIdentifier6ELi16EEE12__find_equalIS2_EERPNS_16__tree_node_baseIPvEENS_21__tree_const_iteratorIS4_PNS_11__tree_nodeIS4_SF_EEiEESI_RKT_
y1a:__ZN14BlendShapeData8TransferI18StreamedBinaryReadILb0EEEEvRT_
sGj:__ZN6il2cpp6icalls8mscorlib6System7Runtime8Remoting7Proxies9RealProxy20InternalGetProxyTypeEP12Il2CppObject
uKb:__ZN13sorted_vectorINSt3__24pairIiN17InstancedPropInfo12PropertyTypeEEEN10vector_mapIiS3_NS0_4lessIiEE13stl_allocatorIS4_L18MemLabelIdentifier1ELi16EEE13value_compareESA_E21sort_clear_duplicatesEv
oXc:_Round_To_Grid
jNc:_UNITY_FT_Stream_Close
UVi:_UnityAnalyticsHandler_SendCustomEvent_m1356877329
L8:__ZL20FormatOrderedProcessPKcP17FormatOrderedDataPc
dec:__Z35DebugLogHandler_CUSTOM_Internal_Log7LogTypeP12Il2CppStringP12Il2CppObject
bmi:_MonoBehaviour_StopCoroutine_m606332095
HRj:_emscripten_glShaderBinary__wrapper
Zma:__ZL17ProgramUniform3ivPK7ApiGLESjiihPKv
Pba:__ZN9GfxDevice25GetBackBufferColorSurfaceEv
gCa:__ZN25SingleBlockMemoryFileData9SetLengthEy
H7b:__Z29AwakeAndActivateClonedObjectsPP6ObjectRK10vector_mapIiiNSt3__24lessIiEE13stl_allocatorINS3_4pairIiiEEL18MemLabelIdentifier1ELi16EEE
khj:__ZN15dense_hashtableINSt3__24pairIK10KeyWrapperINS1_IPK10MethodInfoP11Il2CppClassEEEjEES9_17ReflectionMapHashIS8_EN14dense_hash_mapIS9_jSD_NS9_14EqualsComparerINS0_8equal_toIS8_EEEENS0_9allocatorISB_EEE9SelectKeyESI_SK_E14squash_deletedEv
Cgh:__Z55RuntimeInvoker_Void_t1841601450_RaycastResult_t21186376PFvvEPK10MethodInfoPvPS4_
x0b:__Z13RegisterClassI6ShaderEvv
GEe:_Int16_System_IConvertible_ToUInt32_m883204517
y1h:_ResourceCacheItem_t333236149_marshal_pinvoke_cleanup
tYe:_List_1_CheckMatch_m1196994270_gshared
Lcd:__ZN13RuntimeStaticI11WindManagerLb0EE13StaticDestroyEPv
B0d:_Convert_ToUInt64_m3559662221
zqc:__Z18Transfer_BlittableI9JSONWriteLb1EaEvRK29SerializationCommandArgumentsR31RuntimeSerializationCommandInfo
fhj:__ZN13Il2CppHashMapINSt3__24pairIPK10MethodInfoP11Il2CppClassEEj17ReflectionMapHashIS7_ENS0_8equal_toIS7_EENS0_9allocatorINS1_IK10KeyWrapperIS7_EjEEEEEC2EjRKS9_RKSB_
NNb:__ZN11HaloManager11HasAnyHalosEPK11CullResults
$Qd:_ArrayList_set_Item_m1858827078
_$a:__ZN9Texture3D23VirtualRedirectTransferER19StreamedBinaryWriteILb0EE
Ooc:__ZN5Unity9rapidjson8internal8PrettifyEPcii
Zpf:_HMAC__ctor_m2605930831
JO:__Z13RegisterClassI10SampleClipEvv
PEc:__Z23b2CollideRadialPolygonsP10b2ManifoldPK14b2PolygonShapeRK11b2TransformS3_S6_
IQb:__ZNK23ForwardShaderRenderLoop18RenderObjectSorterILb1EEclERK21ForwardRenderPassDataS4_
A2i:__ZN15dense_hashtableI10KeyWrapperIPK19Il2CppGenericMethodES4_N6il2cpp8metadata23Il2CppGenericMethodHashEN14dense_hash_setIS4_S7_NS4_14EqualsComparerINS6_26Il2CppGenericMethodCompareEEENSt3__29allocatorIS4_EEE8IdentityESB_SE_E12maybe_shrinkEv
Pra:__ZN10BufferGLES10BeginWriteEjj
z2i:__ZNK15dense_hashtableI10KeyWrapperIPK19Il2CppGenericMethodES4_N6il2cpp8metadata23Il2CppGenericMethodHashEN14dense_hash_setIS4_S7_NS4_14EqualsComparerINS6_26Il2CppGenericMethodCompareEEENSt3__29allocatorIS4_EEE8IdentityESB_SE_E12test_deletedEj
ZA:__ZN7mecanim12statemachine18StateMachineMemory8TransferI9BlobWriteEEvRT_
Zid:_ToBase64Transform_Dispose_m1132043687
eij:__GLOBAL__sub_I_ArrayMetadata_cpp
U4f:_UInt64_System_IConvertible_ToByte_m953298241
Ora:__ZN7ApiGLES11FlushBufferEjN2gl12BufferTargetEll
K0d:_Convert_ToUInt64_m1896191125
_ob:__ZN14SafeBinaryRead21TransferSTLStyleArrayI13dynamic_arrayI8BitFieldLj4EEEEvRT_17TransferMetaFlags
voa:__ZN12_GLOBAL__N_127PrepareReadback_ResolveMSAAER18GfxFramebufferGLESR7ApiGLESP17RenderSurfaceGLESS5_
fSg:_EnumBuilder_GetAttributeFlagsImpl_m4263246832
hfh:__Z98RuntimeInvoker_RaycastHit2D_t4063908774_Vector2_t2243707579_Vector2_t2243707579_Single_t2076509932PFvvEPK10MethodInfoPvPS4_
RPg:_CustomAttributeData_GetHashCode_m3989739430
gzh:_Text_AssignDefaultFont_m1295571657
B4b:__ZNK24RendererAnimationBinding9BindValueER6ObjectRKN11UnityEngine9Animation14GenericBindingERNS3_10BoundCurveE
Re:_glBindBuffer
lAb:__ZN8GUIStyle8TransferI18StreamedBinaryReadILb0EEEEvRT_
C5:__ZNSt3__213__stable_sortIRN10vector_mapIijNS_4lessIiEENS_9allocatorINS_4pairIijEEEEE13value_compareENS_11__wrap_iterIPS6_EEEEvT0_SE_T_NS_15iterator_traitsISE_E15difference_typeEPNSH_10value_typeEi
Fhe:_Array_InternalArray__ICollection_Add_TisCustomAttributeNamedArgument_t94157543_m1003067274_gshared
I6a:__ZN10VRSettings8Daydream8TransferI18StreamedBinaryReadILb0EEEEvRT_
Nhb:__ZNSt3__218__insertion_sort_3IRNS_6__lessIN4core12basic_stringIcNS2_20StringStorageDefaultIcEEEES6_EEPS6_EEvT0_SA_T_
WVe:_Enumerator_System_Collections_IEnumerator_Reset_m925111644_gshared
aJ:__ZN4FMOD7Channel13set3DPanLevelEf
oHj:_isupper
idh:__Z93RuntimeInvoker_Vector3_t2243707580_Vector3_t2243707580_Vector3_t2243707580_Single_t2076509932PFvvEPK10MethodInfoPvPS4_
NOg:_AssemblyName__ctor_m609734316
CWf:_Encoding_set_DecoderFallback_m2255528738
hRa:__ZNSt3__26__treeINS_12__value_typeIN9ShaderLab16FastPropertyNameEN18UnityPropertySheet11UnityTexEnvEEENS_19__map_value_compareIS3_S6_NS_4lessIS3_EELb1EEENS_9allocatorIS6_EEE7destroyEPNS_11__tree_nodeIS6_PvEE
Uzf:_InternalAsyncResult_get_IsCompleted_m1463732458
L3i:__ZN6il2cpp2vm13MetadataCache24GetExportedTypeFromIndexEi
WPb:__ZN26LightProbeProxyVolumeCacheC2ER13BatchRendererR15RenderLoopStats
Joc:__ZN5Unity9rapidjson6WriterI16TempBufferWriterNS0_4UTF8IcEES4_13JSONAllocatorE9WriteUintEj
WJj:_getuid
lEd:_HorizontalLayoutGroup_CalculateLayoutInputVertical_m3516192138
tE:__ZN7mecanim5human8BoneNameEj
ADi:_InvokableCall_4__ctor_m2170162585_gshared
N0b:__Z13RegisterClassI10MonoScriptEvv
Pwe:_AttrListImpl__ctor_m3211398293
dDi:_InvokableCall_1_Invoke_m417090952_gshared
HLc:__ZN20TextRenderingPrivate8FontImpl8TransferI18StreamedBinaryReadILb0EEEEvRT_
WXf:_StringBuilder_get_Chars_m256627635
Dri:_UnityString_Format_m328130606
s5i:__ZN6il2cpp6icalls8mscorlib6System8MonoType22get_IsGenericParameterEP20Il2CppReflectionType
fu:__ZN7mecanim5human14HumanPoseClearERNS0_9HumanPoseE
Wti:_RectTransform_GetLocalCorners_m3824854770
OJe:_MonoIO_GetException_m957022672
LRa:__ZN18StreamedBinaryReadILb0EE19TransferSTLStyleMapINSt3__23mapIN9ShaderLab16FastPropertyNameE10ColorRGBAfNS2_4lessIS5_EENS2_9allocatorINS2_4pairIKS5_S6_EEEEEEEEvRT_17TransferMetaFlags
uvi:_Sprite_get_border_m1504762991
FGf:_X509Certificate2_GetValueAsString_m1286925493
BQd:_Char_ToLower_m2719897546
tle:_Array_InternalArray__set_Item_TisHitInfo_t1761367055_m2693590376_gshared
JRe:_MonoType_IsPointerImpl_m648213545
$Be:_InvalidOperationException__ctor_m2801133788
rXb:__ZN13RenderManager28AreCamerasUsingMotionVectorsEv
F4:__Z25InitializeLODGroupManagerPv
$da:__ZN13GfxDeviceGLES12EndStereoEyeE15StereoscopicEye
Cxd:_CanvasScaler_SetScaleFactor_m3305903109
Yhe:_Array_InternalArray__ICollection_Add_TisUriScheme_t1876590943_m3218110478_gshared
MKb:__ZNK12ImageFilters28ApplyAfterTransparentFiltersEv
ZJd:_LayoutRebuilder_U3Cs_RebuildersU3Em__0_m3768099182
V7c:__ZN11UnityEngine7Connect15AppRunningEvent12ToJsonStringER9JSONWrite
tSa:__ZN19ShaderPropertySheet5ClearEb
Pwf:_TlsServerCertificate_ProcessAsTls1_m3083203628
qif:_ReadOnlyCollection_1_System_Collections_Generic_IListU3CTU3E_set_Item_m1099846173_gshared
kLb:__ZNK6Camera11GetPositionEv
Bs:__ZN8Animator19CreatePlayableGraphEv
nVj:_emscripten_glClearDepth__wrapper
L$d:_Convert_ToSByte_m1880147062
Wkb:__ZNK16MemoryFileSystem8FilenameERK13FileEntryData
Vf:_glUniform1fv
Zf:_JS_FileSystem_Sync
afd:_MD5CryptoServiceProvider_HashCore_m2367253552
Jea:__ZNSt3__26__treeINS_12__value_typeI21GLESRenderTargetSetupN2gl6HandleILNS3_10ObjectTypeE9EEEEENS_19__map_value_compareIS2_S7_NS_4lessIS2_EELb1EEENS_9allocatorIS7_EEE7destroyEPNS_11__tree_nodeIS7_PvEE
wpi:_X509StoreManager_get_TrustedRootCertificates_m122138510
zoa:__ZN4gles15BlitFramebufferERNS_23BlitFramebufferDrawQuadER9GfxDeviceii9TextureIDiiiiiiii
Xf:__emscripten_sample_gamepad_data
Y1b:__Z22DelayedDestroyCallbackP6ObjectPv
VRj:_glBlendEquationSeparate__wrapper
HDd:_GraphicRegistry__cctor_m4197769737
nIc:__ZN15b2ContactFilter13ShouldCollideEP9b2FixtureS1_
m1:__Z34scripting_class_get_declaring_type17ScriptingClassPtr
r8c:__ZN11UnityEngine7Connect20BasePersistentValues13RestoreValuesER8JSONRead
srf:_KeyGeneratedEventHandler_Invoke_m1298576133
aId:_InputField_Rebuild_m3481959062
Y4a:__ZN11TimeManagerD0Ev
KT:__ZN11UnityEngine15CloudWebService18RestFileDownloader10InitializeERKN4core12basic_stringIcNS2_20StringStorageDefaultIcEEEE
oL:__ZN12AudioManager33GetAudioEffectInternalDefinitionsEv
qVa:__ZN9Texture2D16DeleteGfxTextureEv
Qjb:__ZN20LocalFileSystemPosix4OpenER13FileEntryData14FilePermission16FileAutoBehavior
Tpf:_KeyBuilder_get_Rng_m2539978716
EKi:_AudioClip_InvokePCMSetPositionCallback_Internal_m1220105088
Aoe:_BaseInvokableCall_ThrowOnInvalidArg_TisVector2_t2243707579_m879131569_gshared
J1i:__ZN15dense_hashtableINSt3__24pairIK10KeyWrapperIN6il2cpp5utils13dynamic_arrayIPK10Il2CppTypeLj4EEEEPFvvEEESA_NS3_8metadata19Il2CppSignatureHashEN14dense_hash_mapISA_SD_SG_NSA_14EqualsComparerINSF_22Il2CppSignatureCompareEEENS0_9allocatorISE_EEE9SelectKeyESK_SM_ED2Ev
_Zc:__ZN2UI6Canvas12AddToManagerEv
BQc:_UNITY_tt_face_load_sbit
n7b:__Z37GetTransformFromComponentOrGameObjectP6Object
ZCh:_ShimEnumerator_get_Current_m2516732679_gshared
mVc:_cf2_hint_isTop
uWb:__ZN23ManagedAttributeManager21GetRequiredComponentsE17ScriptingClassPtr
kYb:__Z23InitializeStdConvertersv
Faf:_Collection_1_Contains_m3292349561_gshared
gFd:_Image_SetNativeSize_m3580044470
IPb:__ZN19ShaderPropertySheet17UpdateTextureInfoEiRK23FastTexturePropertyNamePK10TextureRef
FTc:_ps_unicodes_init
eIb:__ZZ23InitPlayerLoopCallbacksvEN38PreUpdateCheckTexFieldInputRegistrator7ForwardEv
gpj:__ZNK10KeyWrapperINSt3__24pairIPKcS3_EEE14EqualsComparerI26NamespaceAndNamePairEqualsEclERKS5_SA_
mCb:__ZN13MonoBehaviour17StopAllCoroutinesEv
b5:__Z34CleanupIntermediateRendererManagerPv
kze:_X509CertificateEnumerator__ctor_m1500464146
S1f:_Type_get_IsPointer_m3832342327
Omj:__ZN6il2cpp2vm9Exception27GetExecutionEngineExceptionEPKc
DIh:_Dictionary_2_System_Collections_ICollection_CopyTo_m2784181332_gshared
kh:_JS_WebRequest_GetResponseHeaders
GDb:__ZNSt3__26__treeINS_12__value_typeI26SerializedObjectIdentifieriEENS_19__map_value_compareIS2_S3_NS_4lessIS2_EELb1EEENS_9allocatorIS3_EEE7destroyEPNS_11__tree_nodeIS3_PvEE
$Pc:_UNITY_FT_Create_Class_tt_cmap_classes
Cbj:__ZN15dense_hashtableINSt3__24pairIK10KeyWrapperINS1_IPK14Il2CppAssemblyP11Il2CppClassEEEjEES9_17ReflectionMapHashIS8_EN14dense_hash_mapIS9_jSD_NS9_14EqualsComparerINS0_8equal_toIS8_EEEENS0_9allocatorISB_EEE9SelectKeyESI_SK_EC2ERKSN_j
hbc:__ZN9Scripting18RaiseNullExceptionEPKcz
yif:_ReadOnlyCollection_1_System_Collections_IList_Insert_m2659121605_gshared
q7:__ZN13RuntimeStaticI13RendererSceneLb0EE16StaticInitializeEPv
JIc:__ZZN10Collider2D15InitializeClassEvEN28FunctorImpl_100kSetPolygon2D4CallEPviR11MessageData
vh:_glCreateProgram
Mfj:__ZN6il2cpp2vm10Reflection7IsFieldEP12Il2CppObject
kje:_Array_InternalArray__ICollection_CopyTo_TisContentType_t1028629049_m330597634_gshared
ISd:_SimpleEnumerator_Reset_m3524591211
pFa:__ZN24GenerateTypeTreeTransfer32TransferSTLStyleArrayWithElementI17SortingLayerEntryEEvRT_17TransferMetaFlags
NQj:_glUniformMatrix3fv__wrapper
DKa:__ZN5Light9SetupHaloEv
Qwb:__Z18Transfer_BlittableI18StreamedBinaryReadILb1EELb1E12PropertyNameEvRK29SerializationCommandArgumentsR31RuntimeSerializationCommandInfo
_ld:_SecurityFrame__ctor_m3738328608_AdjustorThunk
Hgj:__ZN15dense_hashtableINSt3__24pairIK10KeyWrapperIPK22Il2CppGenericParameterEPK24MonoGenericParameterInfoEES6_N6il2cpp5utils11PointerHashIS4_EEN14dense_hash_mapIS6_SA_SF_NS6_14EqualsComparerINS0_8equal_toIS5_EEEENS0_9allocatorISB_EEE9SelectKeyESK_SM_EC2ERKSP_j
oZ:__ZN23TransformChangeDispatch12CleanupClassEPv
sac:__ZN8UserList11SendMessageERK17MessageIdentifier
P2c:__Z33Canvas_Get_Custom_PropScaleFactorP12Il2CppObject
rC:__ZNK26AnimatorControllerPlayable21GetStateMachineMemoryEi
Kaj:__ZN6il2cpp2vm14TypeNameParser17ConsumeIdentifierEv
Pkd:_EvidenceEnumerator_get_Current_m632582639
VSb:__Z15CullLocalLightsR8JobFenceS0_RK22SceneCullingParametersiPK8Vector4fRK13dynamic_arrayIhLj1EER9IndexListSC_PfP5RectTIfEP13TargetEyeMaskPPK5LightRK14ShadowCullData
kqd:_DecoderFallback_get_ReplacementFallback_m2155645318
zIa:__ZNK6Camera16GetTargetTextureEv
Abd:__ZNK20UnityWebRequestProtoI24UnityWebRequestTransport16AtomicRefCounter14RedirectHelper14ResponseHelper15DownloadHandler13UploadHandler12HeaderHelper14AsyncOperationE17GetUploadProgressEv
Zjc:__ZN18CrashReportManager33OnPlayerSessionStateChangedStaticEjyy
NZd:_Convert_ToDateTime_m3528521877
rob:__Z35Transfer_Blittable_SingleValueFieldI14SafeBinaryReadyEvRT_R17GeneralMonoObjectRK23StaticTransferFieldInfo
YSa:__ZN8Playable20ClearInputConnectionEi
nMb:__ZN13BatchRenderer12EndLoopFlushEv
o7d:_Enum_System_IConvertible_ToChar_m1838232954
p9d:_CultureInfo_CreateTextInfo_m2269397562
$Kd:_Array_SetValue_m2469980129
A8b:__ZNK6Sprite11GetInnerUVsE20SpriteRenderDataMode
ZC:__ZN11UnityEngine9Animation28DestroyAvatarBindingConstantEPNS0_21AvatarBindingConstantERN7mecanim6memory9AllocatorE
K1b:__ZN16MessageForwarder23RegisterMessageCallbackEiPFvPviR11MessageDataEPKN5Unity4TypeE
q9i:__ZN6il2cpp2os4File9SetLengthEPNS0_10FileHandleExPi
yMa:__ZN4Mesh30AcquireSharedMeshRenderingDataEv
fi:_gmtime
mi:_emscripten_glUniform3i
sfa:__ZNK7ApiGLES10GetContextEv
Amd:_Single_System_IConvertible_ToInt16_m962677079_AdjustorThunk
Omb:__Z18Transfer_BlittableI14SafeBinaryReadLb1E5RectTIfEEvRK29SerializationCommandArgumentsR31RuntimeSerializationCommandInfo
Kxc:__Z7b2Alloci
hZa:__ZN15TextureSettings14SetAnisoLimitsEii
ptb:__Z19TransferField_ArrayI24GenerateTypeTreeTransfer27Converter_SimpleNativeClassI10RectOffsetEEvRK23StaticTransferFieldInfoR31RuntimeSerializationCommandInfoRT0_
Ala:__ZN6prcoreL17RemapGenericFloatI18TexFormatARGBFloat15TexFormatRGHalfEEvPKNS_9InnerInfoE
L8i:_il2cpp_object_unbox
_jd:_String_memcpy2_m2338403668
WQh:_InternalEnumerator_1_get_Current_m4154615771_AdjustorThunk
Mlb:__ZNSt3__26vectorI4PPtrI10MonoScriptE13stl_allocatorIS3_L18MemLabelIdentifier78ELi16EEE8__appendEj
Mke:_Array_InternalArray__set_Item_TisDateTime_t693205669_m197118909_gshared
YUg:_ModuleBuilder_GetToken_m4190668737
JWj:_emscripten_glIsProgram__wrapper
O4b:__ZL22PrepareMeshRenderNodesILb1EEvR35RenderNodeQueuePrepareThreadContext
qzg:__ZL66NativeContainerAttribute_t269240268_CustomAttributesCacheGeneratorP21CustomAttributesCache
aaj:__ZN6il2cpp2vm14TypeNameParser25ConsumeAssemblyIdentifierEv
rkb:__ZN20LocalFileSystemPosix5TouchER13FileEntryData
Lrc:__ZN9JSONWrite8TransferI13dynamic_arrayItLj2EEEEvRT_PKc17TransferMetaFlags
p_f:_NativeEventCalls_SetEvent_internal_m2449488771
Ci:_emscripten_glDrawElements
_4c:__Z62Register_UnityEngine_Analytics_CustomEventData_InternalDestroyv
d9:__ZN15dense_hashtableINSt3__24pairIKN4core12basic_stringIcNS2_20StringStorageDefaultIcEEEE13dynamic_arrayI4PPtrI6SpriteELj4EEEES6_20StringHash32FunctionIS6_EN14dense_hash_mapIS6_SC_SF_NS0_8equal_toIS6_EE13stl_allocatorISD_L18MemLabelIdentifier81ELi16EEE9SelectKeyESI_SL_ED2Ev
Fqf:_MD4Managed_HH_m2172169314
ihd:_RSAPKCS1SignatureDeformatter_SetHashAlgorithm_m894366837
hze:_X509Certificate_get_DSA_m3959895595
wNd:_Boolean_System_IConvertible_ToDouble_m624978277
t5d:_Delegate_get_Method_m2968370506
Swd:_Button__ctor_m975719067
PBc:__ZN20SpriteTilingProperty8TransferI14SafeBinaryReadEEvRT_
M0f:_TimeSpan_CompareTo_m2891128664
vA:__ZN9BlobWriteD2Ev
Fji:_Input_get_mouseScrollDelta_m3621133506
$mb:__ZL26Transfer_SimpleNativeClassI14SafeBinaryRead8GradientLb0EEvRK29SerializationCommandArgumentsR31RuntimeSerializationCommandInfo
XVj:_emscripten_glClientActiveTexture__wrapper
X2i:__ZNK15dense_hashtableI10KeyWrapperIPK17Il2CppGenericInstES4_N6il2cpp8metadata21Il2CppGenericInstHashEN14dense_hash_setIS4_S7_NS4_14EqualsComparerINS6_24Il2CppGenericInstCompareEEENSt3__29allocatorIS4_EEE8IdentityESB_SE_E4findERKS4_
Oji:_Input_get_compositionString_m3305020009
K9g:__Z71RuntimeInvoker_Double_t4078015681_Double_t4078015681_Double_t4078015681PFvvEPK10MethodInfoPvPS4_
Vte:_PrimalityTests_RabinMillerTest_m1376858197
sed:_HMACSHA1__ctor_m2027292306
mVf:_DES_Create_m2705450713
npi:_X509CertificateCollection_Remove_m2722259192
Bge:_Array_InternalArray__IndexOf_TisSingle_t2076509932_m2151846718_gshared
jPa:__ZN13RenderTexture23VirtualRedirectTransferER18StreamedBinaryReadILb0EE
Xzi:_GUIUtility_CheckOnGUI_m4132974677
elg:__ZL56StringBuilder_t1221177846_CustomAttributesCacheGeneratorP21CustomAttributesCache
BFe:_NumberFormatter_FormatHexadecimal_m1317851390
$Qc:_UNITY_tt_face_lookup_table
IHf:_X509Certificate2Collection_AddRange_m1503879780
uoc:__ZN5Unity9rapidjson13GenericReaderINS0_4UTF8IcEES3_13JSONAllocatorE9ParseHex4INS0_25GenericInsituStringStreamIS3_EEEEjRT_
Zpa:__Z17ComputeMipmapSizeiii14GraphicsFormat
KKe:_StreamReader__ctor_m871771009
_Uc:_cf2_stack_pushFixed
Bia:__ZN4crnd12crn_unpacker12unpack_dxt5aEPPhjjjjjj
Cai:_AnchorInfo_get_Length_m1721106162
GPf:_RemotingConfiguration_RegisterActivatedClientType_m2207611714
qEh:_Transform_1_Invoke_m1224512163_gshared
YEj:__ZN6il2cpp2os5Mutex4LockEb
CDd:_GraphicRaycaster_Raycast_m3351280444
Cyb:__Z29Transfer_Blittable_ArrayFieldI18StreamedBinaryReadILb1EE8Vector2fEvRT_R9ArrayInfoRK23StaticTransferFieldInfo
g2c:__Z50CanvasRenderer_CUSTOM_CreateUIVertexStreamInternalP12Il2CppObjectS0_S0_S0_S0_S0_S0_S0_S0_S0_
d6:__ZN14PlayableOutput15PrepareTraverseERK9FrameData
unj:__ZN6il2cpp2vm13LivenessState25FieldCanContainReferencesEP9FieldInfo
oBb:__ZL19RequireCorLibMethodPKcS0_S0_
hwa:__ZNK5Unity9Component22GetTypeVirtualInternalEv
Ocg:__ZL111RegionInfo_t3784626978_CustomAttributesCacheGenerator_RegionInfo_t3784626978____CurrencyNativeName_PropertyInfoP21CustomAttributesCache
am:_emscripten_get_fullscreen_status
Ved:_MD5_Create_m1572997499
RAe:_AppDomain_LoadAssembly_m1537679648
nma:__ZN6prcoreL26RemapGenericIntegerToFloatI17TexFormatARGB888817TexFormatRGBFloatEEvPKNS_9InnerInfoE
y6g:__Z146RuntimeInvoker_Void_t1841601450_RuntimeObject_RuntimeObject_Int64_t909078037_RuntimeObject_RuntimeObject_RuntimeObject_RuntimeObject_RuntimeObjectPFvvEPK10MethodInfoPvPS4_
gUb:__ZN15LODGroupManager27GarbageCollectCameraLODDataEv
zza:__ZN11NamedObjectC2E18MemLabelIdentifier18ObjectCreationMode
vXb:__ZN13ScreenManagerC2Ev
vTe:_OrdinalComparer_GetHashCode_m3400975772
lw:__ZN7mecanim20ValueArrayBlendBeginILb1EEEvRNS_14ValueArrayMaskE
hlc:__ZN12GUIClipState20CalculateMouseValuesER10InputEvent
Csb:__Z18Transfer_BlittableI24GenerateTypeTreeTransferLb0E12PropertyNameEvRK29SerializationCommandArgumentsR31RuntimeSerializationCommandInfo
ofa:__ZN7ApiGLES4InitERK14GfxContextGLESR16GfxDeviceLevelGL
R4c:__Z31CustomEventData_CUSTOM_AddSByteP12Il2CppObjectP12Il2CppStringa
YHa:__ZNK11LightProbes14LightProbeData33GetLightProbeInterpolationWeightsERK8Vector3fRiR8Vector4fRf
uOf:_SoapServices_GetAssemblyName_m2037446159
gV:__ZN21UnityDefaultAllocatorI17LowLevelAllocatorED0Ev
uXa:__ZN8Renderer15SetIsRenderableEb
ORh:_InternalEnumerator_1_System_Collections_IEnumerator_get_Current_m1313308902_AdjustorThunk
o4f:_UInt32_System_IConvertible_ToInt64_m3091851828_AdjustorThunk
Bma:__Z14DecodeBC7BlockP9HDRColorAPKh
z4b:__ZNK24RendererAnimationBinding12GetPPtrValueERKN11UnityEngine9Animation10BoundCurveE
Kuf:_ClientSessionCache__cctor_m1134810266
ybi:_CharacterClass_GetIntervalCost_m2706255216
fEb:__Z29FindRelativeTransformWithPathR9TransformPKcb
FRf:_ObjectReader_ReadGenericArray_m788836286
lCj:_GC_new_proc_inner
oc:invoke_fiiffi
SOa:__ZN19RenderBufferManager13GetTempBufferE17RenderTextureDesc
XVc:_UNITY_FT_Init_Class_cff_service_glyph_dict
dmb:__Z35Transfer_Blittable_FixedBufferFieldI14SafeBinaryReadiEvRK29SerializationCommandArgumentsR31RuntimeSerializationCommandInfo
eii:_InvokableCallList_AddPersistentInvokableCall_m452514359
Rfd:_RijndaelManagedTransform_TransformFinalBlock_m3663752599
Xod:_String_Format_m4262916296
RKb:__ZNK25CameraStackRenderingState21IsRenderingLastCameraEv
Nja:__ZL24stbir__filter_catmullromff
gse:_SimpleCollator_CompareInternal_m280569710
WAc:__ZN10ClipperLib7Clipper8AddOutPtEPNS_5TEdgeERKNS_8IntPointE
rMc:__ZN20TextRenderingPrivate15GetFormatStringER11UTF16StringR13dynamic_arrayINS_16TextFormatChangeELj4EE
dHf:_X509ExtensionEnumerator_get_Current_m3926549773
kah:__Z77RuntimeInvoker_TimeSpan_t3430258949_TimeSpan_t3430258949_TimeSpan_t3430258949PFvvEPK10MethodInfoPvPS4_
C6i:__ZN6il2cpp6icalls8mscorlib6SystemL16CheckMemberMatchI9EventInfoNS_5utils10functional6FilterINSt3__212basic_stringIcNS8_11char_traitsIcEENS8_9allocatorIcEEEENS5_13VmStringUtils21CaseSensitiveComparerEEEEEbPKT_PK11Il2CppClassSN_iRKT0_
MFe:_NumberFormatter_IsZeroOnly_m3495795110
aFe:_Int32_ValidDigit_m2682121722
qWb:__Z23ValidateScriptComponentP10MonoScriptPN4core12basic_stringIcNS1_20StringStorageDefaultIcEEEE
au:__ZN7mecanim9animation12GetHumanPoseIfEEvRKNS0_18ClipMuscleConstantEPKT_RNS_5human9HumanPoseE
m$a:__ZNSt3__215__inplace_mergeIRNS_4lessI4PPtrI11SpriteAtlasEEENS_11__wrap_iterIPS4_EEEEvT0_SA_SA_T_NS_15iterator_traitsISA_E15difference_typeESE_PNSD_10value_typeEi
k:ABORT
IBj:_GC_init_headers
uEj:__ZNSt3__26__treeINS_12__value_typeINS_12basic_stringIcNS_11char_traitsIcEENS_9allocatorIcEEEEPFvvEEENS_19__map_value_compareIS7_SA_NS_4lessIS7_EELb1EEENS5_ISA_EEE13__lower_boundIS7_EENS_15__tree_iteratorISA_PNS_11__tree_nodeISA_PvEEiEERKT_SM_SM_
cHb:__ZN26SinglePassStereoSupportExt27InitSinglePassStereoSupportEP21ISinglePassStereoImplP9GfxDevice
OOc:_UNITY_FT_Init_Class_ft_outline_glyph_class
Dqi:_PlayableBinding__cctor_m98050961
bEf:_IPv6Address_AsIPv4Int_m3565745471
ZU:__ZNSt3__23mapIN19CloudServiceHandler11ServiceTypeEPS1_NS_4lessIS2_EE13stl_allocatorINS_4pairIKS2_S3_EEL18MemLabelIdentifier88ELi16EEEixERS8_
fGf:_X509BasicConstraintsExtension__ctor_m4017912156
Weh:__Z75RuntimeInvoker_Playable_t1896841784_PlayableGraph_t1041204988_RuntimeObjectPFvvEPK10MethodInfoPvPS4_
VPj:_glTexStorage3D__wrapper
LTc:_ft_get_adobe_glyph_index
oEj:__ZNSt3__26__treeINS_12__value_typeINS_12basic_stringIcNS_11char_traitsIcEENS_9allocatorIcEEEEPFvvEEENS_19__map_value_compareIS7_SA_NS_4lessIS7_EELb1EEENS5_ISA_EEE25__emplace_unique_key_argsIS7_JRKNS_21piecewise_construct_tENS_5tupleIJOS7_EEENSL_IJEEEEEENS_4pairINS_15__tree_iteratorISA_PNS_11__tree_nodeISA_PvEEiEEbEERKT_DpOT0_
lic:__Z47Register_UnityEngine_Texture_Internal_GetHeightv
OCb:__Z25scripting_field_get_flags17ScriptingFieldPtr
vmi:_MessageEvent__ctor_m1822782644
guh:_Scrollbar_OnBeginDrag_m574021735
GJh:_Dictionary_2_Add_m790520409_gshared
Xtc:__ZN8JSONRead8TransferIyEEvRT_PKc17TransferMetaFlagsb
Imb:__Z18Transfer_BlittableI14SafeBinaryReadLb0EtEvRK29SerializationCommandArgumentsR31RuntimeSerializationCommandInfo
aPh:_U3CGetEnumeratorU3Ec__Iterator0_MoveNext_m2489948797_gshared
ZV:__ZNK20DynamicHeapAllocatorI17LowLevelAllocatorE8ContainsEPKv
Zy:__ZN23AnimationPlayableOutput7DestroyEv
p6g:__Z128RuntimeInvoker_Void_t1841601450_Byte_t3683104436_RuntimeObject_SByte_t454417549_ObjectU26_t597476745_HeaderU5BU5DU26_t2818328198PFvvEPK10MethodInfoPvPS4_
Vgi:_Debug_LogError_m3299155069
Tmj:__ZN6il2cpp2vm14PlatformInvoke36MarshalCppStringToCSharpStringResultEPKc
QRb:__ZN8Material23GetStencilWriteMaterialEv
_oa:__Z12GetBlockSize14GraphicsFormat
UPe:_Math_Log_m3325929366
uAf:_SslStreamBase_Flush_m2762644405
V9h:_Assertion__ctor_m1169129098
Jzi:_Event_PopEvent_m4241312794
nFa:__ZN10TagManager8TransferI24GenerateTypeTreeTransferEEvRT_
ath:_ReflectionMethodsCache_get_Singleton_m2330935729
RKf:_InterpreterFactory_get_GroupCount_m1785101782
QQd:_CharEnumerator_Clone_m3844021309
gve:_BlockProcessor_Initialize_m3476609078
$8b:__Z35AllocExtractMeshComponentFromScriptRK4Mesh30InternalScriptingShaderChannel34InternalScriptingVertexChannelTypei
mw:__ZN7mecanim12SetValueMaskILb1EEEvPNS_14ValueArrayMaskEb
WEa:__ZN10TagManager23VirtualRedirectTransferER24GenerateTypeTreeTransfer
Lkf:_ReadOnlyCollection_1_System_Collections_IList_Remove_m688362945_gshared
obe:_Array_InternalArray__ICollection_Contains_TisMonoResource_t3127387157_m1257352693_gshared
Hja:__ZL23stbir__filter_trapezoidff
RP:__Z44Register_UnityEngine_AudioClip_get_ambisonicv
MJf:_Key_GetHashCode_m345804220
Y0f:_TimeSpan_FromHours_m2521548378
L6d:_Double_System_IConvertible_ToUInt16_m286326038
eVb:__ZN23ScriptableRenderContextD2Ev
Dia:__ZN4crnd12crn_unpacker11unpack_dxt1EPPhjjjjjj
Fye:_PKCS12__ctor_m3492967071
ldj:__ZN15dense_hashtableINSt3__24pairIK10KeyWrapperINS1_IPK10MethodInfoP11Il2CppClassEEEjEES9_17ReflectionMapHashIS8_EN14dense_hash_mapIS9_jSD_NS9_14EqualsComparerINS0_8equal_toIS8_EEEENS0_9allocatorISB_EEE9SelectKeyESI_SK_E15insert_noresizeERKSB_
rZc:__Z32TextGenerator_CUSTOM_Dispose_cppP12Il2CppObject
Jge:_Array_InternalArray__IndexOf_TisContactPoint2D_t3659330976_m3961643896_gshared
tUg:_MethodBuilder_GetCustomAttributes_m923430117
Mkj:__ZN6il2cpp6icalls8mscorlib6System19ExtractWidenedValueE14Il2CppTypeEnumPv
JXh:_InternalEnumerator_1_get_Current_m2198364332_gshared
sAi:_GUILayoutUtility_INTERNAL_CALL_Internal_GetWindowRect_m3180933350
TBj:_GC_invoke_finalizers
zWi:_CustomEventData_Add_m1952130794
hZh:_InternalEnumerator_1_get_Current_m1715820327_gshared
Vmb:__Z18Transfer_BlittableI14SafeBinaryReadLb0E8BitFieldEvRK29SerializationCommandArgumentsR31RuntimeSerializationCommandInfo
gVg:_OpCode_GetHashCode_m2974727122_AdjustorThunk
QRg:_EnumBuilder_get_BaseType_m63295819
sPd:_Byte_ToString_m1309661918_AdjustorThunk
z0h:_Comparer_1_System_Collections_IComparer_Compare_m1153499515_gshared
JJe:_Directory_CreateDirectoriesInternal_m2817848291
KGe:_Int32_System_IConvertible_ToInt64_m3790029067
oSh:_InternalEnumerator_1_System_Collections_IEnumerator_get_Current_m3546309124_gshared
$Ha:__ZNK10GameObject25QueryComponentByExactTypeEPKN5Unity4TypeE
qZf:_UTF7Encoding_GetDecoder_m396865028
RGa:__ZNK9ShaderLab22ShaderStencilStateDesc17ToGfxStencilStateEPK19ShaderPropertySheetS3_RK14GfxRasterStateR15GfxStencilState
pwe:_SmallXmlParser_ReadContent_m4038164984
iqi:_X509Extension_WriteLine_m364247613
oRc:_tt_cmap0_char_next
e_b:__ZN15GUIEventManager10QueueEventERK10InputEvent
Cma:__Z15DecodeBC6HBlockP9HDRColorAPKh
f0b:__Z13RegisterClassI10GUIElementEvv
hz:__ZN7mecanim9animation32DeallocateAvatarOuputForBindingsEPNS0_12AvatarOutputERNS_6memory9AllocatorE
$Ge:_Int32_Equals_m753832628_AdjustorThunk
_Bj:_GC_malloc_uncollectable
bUd:_CollectionBase_System_Collections_IList_get_IsReadOnly_m2883787483
Vkb:__ZNK16MemoryFileSystem6ParentERK13FileEntryDataRN4core12basic_stringIcNS3_20StringStorageDefaultIcEEEE
lTi:_Canvas_get_targetDisplay_m150918273
H4:__ZN15LODGroupManagerD2Ev
$uc:__ZN8JSONRead21TransferSTLStyleArrayI13dynamic_arrayIN4math12int2_storageELj4EEEEvRT_17TransferMetaFlags
nOg:_Assembly_IsDefined_m2841897391
b9i:__GLOBAL__sub_I_File_cpp
LBa:__ZN12IFileAdapter9SetLengthER13FileEntryDatay
GGd:_InputField_set_lineType_m3589045448
Dhc:__Z39SortingLayer_CUSTOM_GetLayerValueFromIDi
Qc:_Mix_PlayMusic
gWc:_cff_cmap_encoding_init
SOh:_EqualityComparer_1_System_Collections_IEqualityComparer_GetHashCode_m2460068977_gshared
mbd:__Z34GetUnityWebRequestScriptingClassesv
CFb:__ZN19RuntimeSceneManager24PrepareNewBootstrapSceneEv
FKd:_Array_GetLongLength_m3005360186
Ewa:__ZN10SpookyHash7Hash128EPKvjPyS2_
zTb:__ZL60CombineDirectionalShadowCasterCullingIndexListsAndDestroyJobP20ShadowCullingJobData
aEe:_Guid_ToString_m3858592945_AdjustorThunk
rUh:_InternalEnumerator_1_get_Current_m3206960238_gshared
lwf:_TlsClientCertificate_ProcessAsSsl3_m3634449507
Ukd:_Hash_GetData_m3416116641
eed:_HMAC_get_Block_m1367204253
yeb:__ZN9ShaderLab18SerializedPropertyC2ERKS0_
NTc:_cff_driver_init
bBd:_Dropdown_AlphaFadeList_m511547679
X2a:__ZN14SpriteRenderer10SmartResetEv
Sae:_Array_InternalArray__ICollection_Contains_TisChar_t3454481338_m1444673620_gshared
i3b:__ZN16ReflectionProbes20DidChangeActiveSceneEP10UnitySceneS1_
JFe:_NumberFormatter_RoundDecimal_m176606570
O3g:__Z90RuntimeInvoker_RuntimeObject_RuntimeObject_SByte_t454417549_RuntimeObject_SByte_t454417549PFvvEPK10MethodInfoPvPS4_
nLf:_Interval_Contains_m3209397137_AdjustorThunk
a_a:__ZN16SpriteRenderData8TransferI14SafeBinaryReadEEvRT_
w_d:_Convert_ToDouble_m1714698801
cRi:_TextGenerator_GetLines_m387280398
TXh:_InternalEnumerator_1_get_Current_m35328337_gshared
P5b:__ZN6CameraC2E18MemLabelIdentifier18ObjectCreationMode
JRb:__ZL31SetRenderStateForStencilMarkingR9GfxDeviceR17ShaderPassContextjj
xCa:__ZN20ArchiveStorageReader20FillChunkCachedBlockEPNS_11CachedBlockE
vM:__ZN10AudioMixer16ResumeProcessingEv
xef:_Collection_1_ConvertItem_m2559468638_gshared
l9h:_Parser_GetMapping_m2879066771
Qob:__ZNSt3__26vectorI17AnimationCurveTplIfE13stl_allocatorIS2_L18MemLabelIdentifier1ELi16EEE7reserveEj
cud:_PointerEventData_get_dragging_m220490640
SPe:_Math_Ceiling_m614624719
Qof:_BigInteger_op_Inequality_m4286929594
SLg:__ZL80CanvasScaler_t2574720772_CustomAttributesCacheGenerator_m_ReferencePixelsPerUnitP21CustomAttributesCache
Ild:_SecurityException__ctor_m230238597
O0c:__ZN2UI13CanvasManager21EmitGeometryForCameraEP6Camera
i1:__Z31AudioFilterReadValidateCallback18ScriptingMethodPtr17ScriptingClassPtrP6Object
EFe:_CustomInfo_Parse_m3558073058
YTe:_KeyValuePair_2_get_Value_m1916631176_gshared
yfb:__ZN9ShaderLab16SerializedTagMap8TransferI19StreamedBinaryWriteILb0EEEEvRT_
hHh:_Dictionary_2_InitArrays_m3810830177_gshared
Fsi:_Rect_get_size_m1353657457_AdjustorThunk
_Hc:__ZN17Physics2DSettings16CheckConsistencyEv
Clj:__ZN6il2cpp6icalls8mscorlib6System9Threading6Thread25SetCachedCurrentUICultureEP12Il2CppThreadP12Il2CppObject
vWj:_glIsVertexArray__wrapper
gPf:_RemotingServices_DisposeIdentity_m266836454
dhd:_RSAPKCS1KeyExchangeFormatter_SetRSAKey_m3575964424
LMc:_UNITY_FT_Bitmap_Convert
UYd:_DateTimeUtils_GetStandardPattern_m4198947977
ATb:__Z22CullDirectionalShadowsR9IndexListPK9SceneNodePK4AABBR22DirectionalCullContext
Lpe:_Array_InternalArray__get_Item_TisUInt16_t986882611_m2599215710_gshared
sAh:_Enumerator_System_Collections_IEnumerator_Reset_m2828524109_gshared
rPg:_Default_IsArrayAssignable_m3862319150
Gni:_PKCS12_MAC_m3228833816
wji:_IL2CPPStructAlignmentAttribute__ctor_m3421252534
j3i:__ZN15dense_hashtableINSt3__24pairIK10KeyWrapperIPK11Il2CppClassEPKcEES6_N6il2cpp5utils11PointerHashIS3_EEN14dense_hash_mapIS6_S9_SE_NS6_14EqualsComparerINS0_8equal_toIS5_EEEENS0_9allocatorISA_EEE9SelectKeyESJ_SL_E4findERS7_
oFe:_NumberFormatter_FastAppendDigits_m2324805728
VT:__ZN11UnityEngine15CloudWebService14RestDownloader7OnAbortEv
WRf:_FormatterServices_GetUninitializedObject_m1786947853
CL:__ZNK11AudioSource22GetTypeVirtualInternalEv
oda:__ZNK13GfxDeviceGLES18GetDefaultRTFormatEv
aYc:_UNITY_FT_Get_Glyph_Name
SHa:__Z13VFormatBufferPciPKcPi
qtb:__Z19TransferField_ArrayI24GenerateTypeTreeTransfer27Converter_SimpleNativeClassI8GradientEEvRK23StaticTransferFieldInfoR31RuntimeSerializationCommandInfoRT0_
Pki:_Mathf_FloorToInt_m824771903
Uuh:_ScrollRect_get_vertical_m3957330783
Utg:__ZL98GameObject_t1756533147_CustomAttributesCacheGenerator_GameObject_SendMessage_m3423113156____value1P21CustomAttributesCache
